ARM GAS  /var/folders/2h/lww79zv53b510qlyvytqnvq40000gn/T//ccWbaZ4r.s 			page 1


   1              		.cpu cortex-m4
   2              		.arch armv7e-m
   3              		.fpu fpv4-sp-d16
   4              		.eabi_attribute 27, 1
   5              		.eabi_attribute 28, 1
   6              		.eabi_attribute 20, 1
   7              		.eabi_attribute 21, 1
   8              		.eabi_attribute 23, 3
   9              		.eabi_attribute 24, 1
  10              		.eabi_attribute 25, 1
  11              		.eabi_attribute 26, 1
  12              		.eabi_attribute 30, 1
  13              		.eabi_attribute 34, 1
  14              		.eabi_attribute 18, 4
  15              		.file	"_main_main.c"
  16              		.text
  17              	.Ltext0:
  18              		.cfi_sections	.debug_frame
  19              		.file 1 "src-gen/Main/_main_main.c"
  20              		.section	.rodata._main_mainreaction_function_0.str1.4,"aMS",%progbits,1
  21              		.align	2
  22              	.LC0:
  23 0000 68656C6C 		.ascii	"hello world\000"
  23      6F20776F 
  23      726C6400 
  24              		.section	.text._main_mainreaction_function_0,"ax",%progbits
  25              		.align	1
  26              		.global	_main_mainreaction_function_0
  27              		.syntax unified
  28              		.thumb
  29              		.thumb_func
  31              	_main_mainreaction_function_0:
  32              	.LVL0:
  33              	.LFB133:
   1:src-gen/Main/_main_main.c **** #include "include/api/api.h"
   2:src-gen/Main/_main_main.c **** #include "include/Main/Main.h"
   3:src-gen/Main/_main_main.c **** #include "_main_main.h"
   4:src-gen/Main/_main_main.c **** // ***** Start of method declarations.
   5:src-gen/Main/_main_main.c **** // ***** End of method declarations.
   6:src-gen/Main/_main_main.c **** #include "include/api/set.h"
   7:src-gen/Main/_main_main.c **** void _main_mainreaction_function_0(void* instance_args) {
  34              		.loc 1 7 57 view -0
  35              		.cfi_startproc
  36              		@ args = 0, pretend = 0, frame = 0
  37              		@ frame_needed = 0, uses_anonymous_args = 0
  38              		.loc 1 7 57 is_stmt 0 view .LVU1
  39 0000 08B5     		push	{r3, lr}
  40              	.LCFI0:
  41              		.cfi_def_cfa_offset 8
  42              		.cfi_offset 3, -8
  43              		.cfi_offset 14, -4
   8:src-gen/Main/_main_main.c ****     _main_main_main_self_t* self = (_main_main_main_self_t*)instance_args; SUPPRESS_UNUSED_WARNING(
  44              		.loc 1 8 5 is_stmt 1 view .LVU2
  45              	.LVL1:
  46              		.loc 1 8 76 view .LVU3
  47              		.file 2 "/Users/naichenzhao/Desktop/EECS149-Project/LFC_Porting/lfc_testbench/src/Main.lf"
   1:/Users/naichenzhao/Desktop/EECS149-Project/LFC_Porting/lfc_testbench/src/Main.lf **** // Other options: Python, Cpp, TypeScript, Rust.
ARM GAS  /var/folders/2h/lww79zv53b510qlyvytqnvq40000gn/T//ccWbaZ4r.s 			page 2


   2:/Users/naichenzhao/Desktop/EECS149-Project/LFC_Porting/lfc_testbench/src/Main.lf **** target C {
   3:/Users/naichenzhao/Desktop/EECS149-Project/LFC_Porting/lfc_testbench/src/Main.lf ****   platform: {
   4:/Users/naichenzhao/Desktop/EECS149-Project/LFC_Porting/lfc_testbench/src/Main.lf ****     name: "rp2040",
   5:/Users/naichenzhao/Desktop/EECS149-Project/LFC_Porting/lfc_testbench/src/Main.lf ****     board: "pololu_3pi_2040_robot"
   6:/Users/naichenzhao/Desktop/EECS149-Project/LFC_Porting/lfc_testbench/src/Main.lf ****   },
   7:/Users/naichenzhao/Desktop/EECS149-Project/LFC_Porting/lfc_testbench/src/Main.lf ****   threading: false,
   8:/Users/naichenzhao/Desktop/EECS149-Project/LFC_Porting/lfc_testbench/src/Main.lf **** }
   9:/Users/naichenzhao/Desktop/EECS149-Project/LFC_Porting/lfc_testbench/src/Main.lf **** 
  10:/Users/naichenzhao/Desktop/EECS149-Project/LFC_Porting/lfc_testbench/src/Main.lf **** preamble {=
  11:/Users/naichenzhao/Desktop/EECS149-Project/LFC_Porting/lfc_testbench/src/Main.lf ****   #include <stdio.h>
  12:/Users/naichenzhao/Desktop/EECS149-Project/LFC_Porting/lfc_testbench/src/Main.lf ****   #include <pico/stdlib.h>
  13:/Users/naichenzhao/Desktop/EECS149-Project/LFC_Porting/lfc_testbench/src/Main.lf ****   #include <hardware/gpio.h>
  14:/Users/naichenzhao/Desktop/EECS149-Project/LFC_Porting/lfc_testbench/src/Main.lf **** =}
  15:/Users/naichenzhao/Desktop/EECS149-Project/LFC_Porting/lfc_testbench/src/Main.lf **** 
  16:/Users/naichenzhao/Desktop/EECS149-Project/LFC_Porting/lfc_testbench/src/Main.lf **** // Import and/or declare reactor classes.
  17:/Users/naichenzhao/Desktop/EECS149-Project/LFC_Porting/lfc_testbench/src/Main.lf **** main reactor {
  18:/Users/naichenzhao/Desktop/EECS149-Project/LFC_Porting/lfc_testbench/src/Main.lf ****   reaction(startup) {=
  19:/Users/naichenzhao/Desktop/EECS149-Project/LFC_Porting/lfc_testbench/src/Main.lf ****     printf("hello world\n");
  48              		.loc 2 19 5 view .LVU4
  49 0002 0248     		ldr	r0, .L3
  50              	.LVL2:
  51              		.loc 2 19 5 is_stmt 0 view .LVU5
  52 0004 FFF7FEFF 		bl	puts
  53              	.LVL3:
  20:/Users/naichenzhao/Desktop/EECS149-Project/LFC_Porting/lfc_testbench/src/Main.lf ****   =}
  54              		.loc 2 20 1 view .LVU6
  55 0008 08BD     		pop	{r3, pc}
  56              	.L4:
  57 000a 00BF     		.align	2
  58              	.L3:
  59 000c 00000000 		.word	.LC0
  60              		.cfi_endproc
  61              	.LFE133:
  63              		.section	.rodata.new__main_main.str1.4,"aMS",%progbits,1
  64              		.align	2
  65              	.LC1:
  66 0000 3F00     		.ascii	"?\000"
  67              		.section	.text.new__main_main,"ax",%progbits
  68              		.align	1
  69              		.global	new__main_main
  70              		.syntax unified
  71              		.thumb
  72              		.thumb_func
  74              	new__main_main:
  75              	.LFB134:
  21:/Users/naichenzhao/Desktop/EECS149-Project/LFC_Porting/lfc_testbench/src/Main.lf **** }
  22:/Users/naichenzhao/Desktop/EECS149-Project/LFC_Porting/lfc_testbench/src/Main.lf **** ...
  76              		.loc 2 22 42 is_stmt 1 view -0
  77              		.cfi_startproc
  78              		@ args = 0, pretend = 0, frame = 0
  79              		@ frame_needed = 0, uses_anonymous_args = 0
  80 0000 08B5     		push	{r3, lr}
  81              	.LCFI1:
  82              		.cfi_def_cfa_offset 8
  83              		.cfi_offset 3, -8
  84              		.cfi_offset 14, -4
  85              		.loc 2 23 5 view .LVU8
ARM GAS  /var/folders/2h/lww79zv53b510qlyvytqnvq40000gn/T//ccWbaZ4r.s 			page 3


  86              		.loc 2 23 61 is_stmt 0 view .LVU9
  87 0002 C020     		movs	r0, #192
  88 0004 FFF7FEFF 		bl	_lf_new_reactor
  89              	.LVL4:
  18:/Users/naichenzhao/Desktop/EECS149-Project/LFC_Porting/lfc_testbench/src/Main.lf ****   reaction(startup) {=
  90              		.loc 2 18 5 is_stmt 1 view .LVU10
  18:/Users/naichenzhao/Desktop/EECS149-Project/LFC_Porting/lfc_testbench/src/Main.lf ****   reaction(startup) {=
  91              		.loc 2 18 34 is_stmt 0 view .LVU11
  92 0008 0022     		movs	r2, #0
  93 000a 8261     		str	r2, [r0, #24]
  18:/Users/naichenzhao/Desktop/EECS149-Project/LFC_Porting/lfc_testbench/src/Main.lf ****   reaction(startup) {=
  94              		.loc 2 18 5 is_stmt 1 view .LVU12
  18:/Users/naichenzhao/Desktop/EECS149-Project/LFC_Porting/lfc_testbench/src/Main.lf ****   reaction(startup) {=
  95              		.loc 2 18 36 is_stmt 0 view .LVU13
  96 000c 0B49     		ldr	r1, .L7
  97 000e 0161     		str	r1, [r0, #16]
  18:/Users/naichenzhao/Desktop/EECS149-Project/LFC_Porting/lfc_testbench/src/Main.lf ****   reaction(startup) {=
  98              		.loc 2 18 5 is_stmt 1 view .LVU14
  18:/Users/naichenzhao/Desktop/EECS149-Project/LFC_Porting/lfc_testbench/src/Main.lf ****   reaction(startup) {=
  99              		.loc 2 18 32 is_stmt 0 view .LVU15
 100 0010 4061     		str	r0, [r0, #20]
  18:/Users/naichenzhao/Desktop/EECS149-Project/LFC_Porting/lfc_testbench/src/Main.lf ****   reaction(startup) {=
 101              		.loc 2 18 5 is_stmt 1 view .LVU16
  18:/Users/naichenzhao/Desktop/EECS149-Project/LFC_Porting/lfc_testbench/src/Main.lf ****   reaction(startup) {=
 102              		.loc 2 18 54 is_stmt 0 view .LVU17
 103 0012 C265     		str	r2, [r0, #92]
  18:/Users/naichenzhao/Desktop/EECS149-Project/LFC_Porting/lfc_testbench/src/Main.lf ****   reaction(startup) {=
 104              		.loc 2 18 5 is_stmt 1 view .LVU18
  18:/Users/naichenzhao/Desktop/EECS149-Project/LFC_Porting/lfc_testbench/src/Main.lf ****   reaction(startup) {=
 105              		.loc 2 18 39 is_stmt 0 view .LVU19
 106 0014 0266     		str	r2, [r0, #96]
  18:/Users/naichenzhao/Desktop/EECS149-Project/LFC_Porting/lfc_testbench/src/Main.lf ****   reaction(startup) {=
 107              		.loc 2 18 5 is_stmt 1 view .LVU20
  18:/Users/naichenzhao/Desktop/EECS149-Project/LFC_Porting/lfc_testbench/src/Main.lf ****   reaction(startup) {=
 108              		.loc 2 18 32 is_stmt 0 view .LVU21
 109 0016 0A49     		ldr	r1, .L7+4
 110 0018 C166     		str	r1, [r0, #108]
  18:/Users/naichenzhao/Desktop/EECS149-Project/LFC_Porting/lfc_testbench/src/Main.lf ****   reaction(startup) {=
 111              		.loc 2 18 5 is_stmt 1 view .LVU22
  18:/Users/naichenzhao/Desktop/EECS149-Project/LFC_Porting/lfc_testbench/src/Main.lf ****   reaction(startup) {=
 112              		.loc 2 18 32 is_stmt 0 view .LVU23
 113 001a 0267     		str	r2, [r0, #112]
 114              		.loc 2 22 5 is_stmt 1 view .LVU24
 115              		.loc 2 22 39 is_stmt 0 view .LVU25
 116 001c 00F11001 		add	r1, r0, #16
 117              		.loc 2 22 37 view .LVU26
 118 0020 C0F8B810 		str	r1, [r0, #184]
 119              		.loc 2 23 5 is_stmt 1 view .LVU27
 120              		.loc 2 23 29 is_stmt 0 view .LVU28
 121 0024 C0F8AC20 		str	r2, [r0, #172]
 122              		.loc 2 24 5 is_stmt 1 view .LVU29
 123              		.loc 2 24 36 is_stmt 0 view .LVU30
 124 0028 00F1B801 		add	r1, r0, #184
 125              		.loc 2 24 34 view .LVU31
 126 002c C0F88C10 		str	r1, [r0, #140]
 127              		.loc 2 25 5 is_stmt 1 view .LVU32
 128              		.loc 2 25 44 is_stmt 0 view .LVU33
ARM GAS  /var/folders/2h/lww79zv53b510qlyvytqnvq40000gn/T//ccWbaZ4r.s 			page 4


 129 0030 0121     		movs	r1, #1
 130 0032 C0F89010 		str	r1, [r0, #144]
 131              		.loc 2 26 5 is_stmt 1 view .LVU34
 132              		.loc 2 26 33 is_stmt 0 view .LVU35
 133 0036 80F89420 		strb	r2, [r0, #148]
 134              		.loc 2 27 5 is_stmt 1 view .LVU36
 135              		.loc 2 28 1 is_stmt 0 view .LVU37
 136 003a 08BD     		pop	{r3, pc}
 137              	.L8:
 138              		.align	2
 139              	.L7:
 140 003c 00000000 		.word	_main_mainreaction_function_0
 141 0040 00000000 		.word	.LC1
 142              		.cfi_endproc
 143              	.LFE134:
 145              		.text
 146              	.Letext0:
 147              		.file 3 "/Applications/ArmGNUToolchain/12.3.rel1/arm-none-eabi/arm-none-eabi/include/machine/_defa
 148              		.file 4 "/Applications/ArmGNUToolchain/12.3.rel1/arm-none-eabi/lib/gcc/arm-none-eabi/12.3.1/includ
 149              		.file 5 "src-gen/Main/include/core/utils/pqueue.h"
 150              		.file 6 "src-gen/Main/include/core/lf_token.h"
 151              		.file 7 "src-gen/Main/include/core/lf_types.h"
 152              		.file 8 "/Applications/ArmGNUToolchain/12.3.rel1/arm-none-eabi/arm-none-eabi/include/sys/_stdint.h
 153              		.file 9 "src-gen/Main/include/core/tag.h"
 154              		.file 10 "src-gen/Main/_main_main.h"
 155              		.file 11 "src-gen/Main/include/core/modal_models/modes.h"
 156              		.file 12 "src-gen/Main/include/core/federated/../../core/reactor.h"
 157              		.file 13 "<built-in>"
ARM GAS  /var/folders/2h/lww79zv53b510qlyvytqnvq40000gn/T//ccWbaZ4r.s 			page 5

