ARM GAS  /var/folders/2h/lww79zv53b510qlyvytqnvq40000gn/T//ccBAFPQL.s 			page 1


   1              		.cpu cortex-m4
   2              		.arch armv7e-m
   3              		.fpu fpv4-sp-d16
   4              		.eabi_attribute 27, 1
   5              		.eabi_attribute 28, 1
   6              		.eabi_attribute 20, 1
   7              		.eabi_attribute 21, 1
   8              		.eabi_attribute 23, 3
   9              		.eabi_attribute 24, 1
  10              		.eabi_attribute 25, 1
  11              		.eabi_attribute 26, 1
  12              		.eabi_attribute 30, 1
  13              		.eabi_attribute 34, 1
  14              		.eabi_attribute 18, 4
  15              		.file	"Main.c"
  16              		.text
  17              	.Ltext0:
  18              		.cfi_sections	.debug_frame
  19              		.file 1 "src-gen/Main/Main.c"
  20              		.section	.text.main,"ax",%progbits
  21              		.align	1
  22              		.global	main
  23              		.syntax unified
  24              		.thumb
  25              		.thumb_func
  27              	main:
  28              	.LFB133:
   1:src-gen/Main/Main.c **** // Code generated by the Lingua Franca compiler from:
   2:src-gen/Main/Main.c **** // file://Users/naichenzhao/Desktop/EECS149-Project/LFC_Porting/lfc_testbench/src/Main.lf
   3:src-gen/Main/Main.c **** #define LOG_LEVEL 2
   4:src-gen/Main/Main.c **** #define TARGET_FILES_DIRECTORY "/Users/naichenzhao/Desktop/EECS149-Project/LFC_Porting/lfc_testbenc
   5:src-gen/Main/Main.c **** 
   6:src-gen/Main/Main.c **** #include <limits.h>
   7:src-gen/Main/Main.c **** #include "include/core/platform.h"
   8:src-gen/Main/Main.c **** #include "include/api/api.h"
   9:src-gen/Main/Main.c **** #include "include/core/reactor.h"
  10:src-gen/Main/Main.c **** #include "include/core/reactor_common.h"
  11:src-gen/Main/Main.c **** #include "include/core/mixed_radix.h"
  12:src-gen/Main/Main.c **** #include "include/core/port.h"
  13:src-gen/Main/Main.c **** #include "include/core/environment.h"
  14:src-gen/Main/Main.c **** int lf_reactor_c_main(int argc, const char* argv[]);
  15:src-gen/Main/Main.c **** int main(void) {
  29              		.loc 1 15 16 view -0
  30              		.cfi_startproc
  31              		@ args = 0, pretend = 0, frame = 0
  32              		@ frame_needed = 0, uses_anonymous_args = 0
  33 0000 08B5     		push	{r3, lr}
  34              	.LCFI0:
  35              		.cfi_def_cfa_offset 8
  36              		.cfi_offset 3, -8
  37              		.cfi_offset 14, -4
  16:src-gen/Main/Main.c ****    return lf_reactor_c_main(0, NULL);
  38              		.loc 1 16 4 view .LVU1
  39              		.loc 1 16 11 is_stmt 0 view .LVU2
  40 0002 0021     		movs	r1, #0
  41 0004 0846     		mov	r0, r1
  42 0006 FFF7FEFF 		bl	lf_reactor_c_main
ARM GAS  /var/folders/2h/lww79zv53b510qlyvytqnvq40000gn/T//ccBAFPQL.s 			page 2


  43              	.LVL0:
  17:src-gen/Main/Main.c **** }
  44              		.loc 1 17 1 view .LVU3
  45 000a 08BD     		pop	{r3, pc}
  46              		.cfi_endproc
  47              	.LFE133:
  49              		.section	.text._lf_set_default_command_line_options,"ax",%progbits
  50              		.align	1
  51              		.global	_lf_set_default_command_line_options
  52              		.syntax unified
  53              		.thumb
  54              		.thumb_func
  56              	_lf_set_default_command_line_options:
  57              	.LFB134:
  18:src-gen/Main/Main.c **** void _lf_set_default_command_line_options() {}
  58              		.loc 1 18 45 is_stmt 1 view -0
  59              		.cfi_startproc
  60              		@ args = 0, pretend = 0, frame = 0
  61              		@ frame_needed = 0, uses_anonymous_args = 0
  62              		@ link register save eliminated.
  63              		.loc 1 18 46 view .LVU5
  64 0000 7047     		bx	lr
  65              		.cfi_endproc
  66              	.LFE134:
  68              		.section	.text._lf_create_environments,"ax",%progbits
  69              		.align	1
  70              		.global	_lf_create_environments
  71              		.syntax unified
  72              		.thumb
  73              		.thumb_func
  75              	_lf_create_environments:
  76              	.LFB135:
  19:src-gen/Main/Main.c **** #include "_main_main.h"
  20:src-gen/Main/Main.c **** typedef enum {
  21:src-gen/Main/Main.c ****     main_main,
  22:src-gen/Main/Main.c ****     _num_enclaves
  23:src-gen/Main/Main.c **** } _enclave_id;
  24:src-gen/Main/Main.c **** // The global array of environments associated with each enclave
  25:src-gen/Main/Main.c **** environment_t envs[_num_enclaves];
  26:src-gen/Main/Main.c **** // 'Create' and initialize the environments in the program
  27:src-gen/Main/Main.c **** void _lf_create_environments() {
  77              		.loc 1 27 32 view -0
  78              		.cfi_startproc
  79              		@ args = 0, pretend = 0, frame = 0
  80              		@ frame_needed = 0, uses_anonymous_args = 0
  81 0000 00B5     		push	{lr}
  82              	.LCFI1:
  83              		.cfi_def_cfa_offset 4
  84              		.cfi_offset 14, -4
  85 0002 89B0     		sub	sp, sp, #36
  86              	.LCFI2:
  87              		.cfi_def_cfa_offset 40
  28:src-gen/Main/Main.c ****     environment_init(&envs[main_main],main_main,_lf_number_of_workers,0,1,0,0,0,0,0,NULL);
  88              		.loc 1 28 5 view .LVU7
  89 0004 0021     		movs	r1, #0
  90 0006 0691     		str	r1, [sp, #24]
  91 0008 0591     		str	r1, [sp, #20]
ARM GAS  /var/folders/2h/lww79zv53b510qlyvytqnvq40000gn/T//ccBAFPQL.s 			page 3


  92 000a 0491     		str	r1, [sp, #16]
  93 000c 0391     		str	r1, [sp, #12]
  94 000e 0291     		str	r1, [sp, #8]
  95 0010 0191     		str	r1, [sp, #4]
  96 0012 0123     		movs	r3, #1
  97 0014 0093     		str	r3, [sp]
  98 0016 0B46     		mov	r3, r1
  99 0018 034A     		ldr	r2, .L6
 100 001a 1268     		ldr	r2, [r2]
 101 001c 0348     		ldr	r0, .L6+4
 102 001e FFF7FEFF 		bl	environment_init
 103              	.LVL1:
  29:src-gen/Main/Main.c **** }
 104              		.loc 1 29 1 is_stmt 0 view .LVU8
 105 0022 09B0     		add	sp, sp, #36
 106              	.LCFI3:
 107              		.cfi_def_cfa_offset 4
 108              		@ sp needed
 109 0024 5DF804FB 		ldr	pc, [sp], #4
 110              	.L7:
 111              		.align	2
 112              	.L6:
 113 0028 00000000 		.word	_lf_number_of_workers
 114 002c 00000000 		.word	envs
 115              		.cfi_endproc
 116              	.LFE135:
 118              		.section	.text._lf_get_environments,"ax",%progbits
 119              		.align	1
 120              		.global	_lf_get_environments
 121              		.syntax unified
 122              		.thumb
 123              		.thumb_func
 125              	_lf_get_environments:
 126              	.LVL2:
 127              	.LFB136:
  30:src-gen/Main/Main.c **** // Update the pointer argument to point to the beginning of the environment array
  31:src-gen/Main/Main.c **** // and return the size of that array
  32:src-gen/Main/Main.c **** int _lf_get_environments(environment_t ** return_envs) {
 128              		.loc 1 32 56 is_stmt 1 view -0
 129              		.cfi_startproc
 130              		@ args = 0, pretend = 0, frame = 0
 131              		@ frame_needed = 0, uses_anonymous_args = 0
 132              		@ link register save eliminated.
  33:src-gen/Main/Main.c ****    (*return_envs) = (environment_t *) envs;
 133              		.loc 1 33 4 view .LVU10
 134              		.loc 1 33 19 is_stmt 0 view .LVU11
 135 0000 014B     		ldr	r3, .L9
 136 0002 0360     		str	r3, [r0]
  34:src-gen/Main/Main.c ****    return _num_enclaves;
 137              		.loc 1 34 4 is_stmt 1 view .LVU12
  35:src-gen/Main/Main.c **** }
 138              		.loc 1 35 1 is_stmt 0 view .LVU13
 139 0004 0120     		movs	r0, #1
 140              	.LVL3:
 141              		.loc 1 35 1 view .LVU14
 142 0006 7047     		bx	lr
 143              	.L10:
ARM GAS  /var/folders/2h/lww79zv53b510qlyvytqnvq40000gn/T//ccBAFPQL.s 			page 4


 144              		.align	2
 145              	.L9:
 146 0008 00000000 		.word	envs
 147              		.cfi_endproc
 148              	.LFE136:
 150              		.section	.text._lf_initialize_trigger_objects,"ax",%progbits
 151              		.align	1
 152              		.global	_lf_initialize_trigger_objects
 153              		.syntax unified
 154              		.thumb
 155              		.thumb_func
 157              	_lf_initialize_trigger_objects:
 158              	.LFB137:
  36:src-gen/Main/Main.c **** // No watchdogs found.
  37:src-gen/Main/Main.c **** typedef void watchdog_t;
  38:src-gen/Main/Main.c **** watchdog_t* _lf_watchdogs = NULL;
  39:src-gen/Main/Main.c **** int _lf_watchdog_count = 0;
  40:src-gen/Main/Main.c **** void _lf_initialize_trigger_objects() {
 159              		.loc 1 40 39 is_stmt 1 view -0
 160              		.cfi_startproc
 161              		@ args = 0, pretend = 0, frame = 0
 162              		@ frame_needed = 0, uses_anonymous_args = 0
 163 0000 08B5     		push	{r3, lr}
 164              	.LCFI4:
 165              		.cfi_def_cfa_offset 8
 166              		.cfi_offset 3, -8
 167              		.cfi_offset 14, -4
  41:src-gen/Main/Main.c ****     int startup_reaction_count[_num_enclaves] = {0}; SUPPRESS_UNUSED_WARNING(startup_reaction_count
 168              		.loc 1 41 5 view .LVU16
 169              		.loc 1 41 54 view .LVU17
  42:src-gen/Main/Main.c ****     int shutdown_reaction_count[_num_enclaves] = {0}; SUPPRESS_UNUSED_WARNING(shutdown_reaction_cou
 170              		.loc 1 42 5 view .LVU18
 171              		.loc 1 42 55 view .LVU19
  43:src-gen/Main/Main.c ****     int reset_reaction_count[_num_enclaves] = {0}; SUPPRESS_UNUSED_WARNING(reset_reaction_count);
 172              		.loc 1 43 5 view .LVU20
 173              		.loc 1 43 52 view .LVU21
  44:src-gen/Main/Main.c ****     int timer_triggers_count[_num_enclaves] = {0}; SUPPRESS_UNUSED_WARNING(timer_triggers_count);
 174              		.loc 1 44 5 view .LVU22
 175              		.loc 1 44 52 view .LVU23
  45:src-gen/Main/Main.c ****     int modal_state_reset_count[_num_enclaves] = {0}; SUPPRESS_UNUSED_WARNING(modal_state_reset_cou
 176              		.loc 1 45 5 view .LVU24
 177              		.loc 1 45 55 view .LVU25
  46:src-gen/Main/Main.c ****     int modal_reactor_count[_num_enclaves] = {0}; SUPPRESS_UNUSED_WARNING(modal_reactor_count);
 178              		.loc 1 46 5 view .LVU26
 179              		.loc 1 46 51 view .LVU27
  47:src-gen/Main/Main.c ****     int bank_index;
 180              		.loc 1 47 5 view .LVU28
  48:src-gen/Main/Main.c ****     SUPPRESS_UNUSED_WARNING(bank_index);
 181              		.loc 1 48 5 view .LVU29
  49:src-gen/Main/Main.c ****     int watchdog_number = 0;
 182              		.loc 1 49 5 view .LVU30
 183              	.LVL4:
  50:src-gen/Main/Main.c ****     SUPPRESS_UNUSED_WARNING(watchdog_number);
 184              		.loc 1 50 5 view .LVU31
  51:src-gen/Main/Main.c ****     _main_main_main_self_t* main_main_self[1];
 185              		.loc 1 51 5 view .LVU32
  52:src-gen/Main/Main.c ****     SUPPRESS_UNUSED_WARNING(main_main_self);
ARM GAS  /var/folders/2h/lww79zv53b510qlyvytqnvq40000gn/T//ccBAFPQL.s 			page 5


 186              		.loc 1 52 5 view .LVU33
  53:src-gen/Main/Main.c ****     // ***** Start initializing Main of class Main
  54:src-gen/Main/Main.c ****     main_main_self[0] = new__main_main();
 187              		.loc 1 54 5 view .LVU34
 188              		.loc 1 54 25 is_stmt 0 view .LVU35
 189 0002 FFF7FEFF 		bl	new__main_main
 190              	.LVL5:
  55:src-gen/Main/Main.c ****     main_main_self[0]->base.environment = &envs[main_main];
 191              		.loc 1 55 5 is_stmt 1 view .LVU36
 192              		.loc 1 55 41 is_stmt 0 view .LVU37
 193 0006 0B4B     		ldr	r3, .L13
 194 0008 8360     		str	r3, [r0, #8]
  56:src-gen/Main/Main.c ****     bank_index = 0; SUPPRESS_UNUSED_WARNING(bank_index);
 195              		.loc 1 56 5 is_stmt 1 view .LVU38
 196              	.LVL6:
 197              		.loc 1 56 21 view .LVU39
  57:src-gen/Main/Main.c ****     envs[main_main].startup_reactions[startup_reaction_count[main_main]++] = &main_main_self[0]->_l
 198              		.loc 1 57 5 view .LVU40
 199              		.loc 1 57 20 is_stmt 0 view .LVU41
 200 000a 5B6E     		ldr	r3, [r3, #100]
 201              		.loc 1 57 78 view .LVU42
 202 000c 00F11002 		add	r2, r0, #16
 203              		.loc 1 57 76 view .LVU43
 204 0010 1A60     		str	r2, [r3]
  58:src-gen/Main/Main.c ****     SUPPRESS_UNUSED_WARNING(_lf_watchdog_count);
 205              		.loc 1 58 5 is_stmt 1 view .LVU44
  59:src-gen/Main/Main.c ****     
  60:src-gen/Main/Main.c ****     main_main_self[0]->_lf__reaction_0.deadline = NEVER;
 206              		.loc 1 60 5 view .LVU45
 207              		.loc 1 60 49 is_stmt 0 view .LVU46
 208 0012 0022     		movs	r2, #0
 209 0014 4FF00043 		mov	r3, #-2147483648
 210 0018 C0E91423 		strd	r2, [r0, #80]
  61:src-gen/Main/Main.c ****     //***** End initializing Main
  62:src-gen/Main/Main.c ****     // **** Start deferred initialize for Main
  63:src-gen/Main/Main.c ****     {
  64:src-gen/Main/Main.c ****     
  65:src-gen/Main/Main.c ****         // Total number of outputs (single ports and multiport channels)
  66:src-gen/Main/Main.c ****         // produced by reaction_1 of Main.
  67:src-gen/Main/Main.c ****         main_main_self[0]->_lf__reaction_0.num_outputs = 0;
 211              		.loc 1 67 9 is_stmt 1 view .LVU47
 212              		.loc 1 67 56 is_stmt 0 view .LVU48
 213 001c 0023     		movs	r3, #0
 214 001e 8363     		str	r3, [r0, #56]
  68:src-gen/Main/Main.c ****         {
  69:src-gen/Main/Main.c ****             int count = 0; SUPPRESS_UNUSED_WARNING(count);
 215              		.loc 1 69 13 is_stmt 1 view .LVU49
 216              	.LVL7:
 217              		.loc 1 69 28 view .LVU50
  70:src-gen/Main/Main.c ****         }
  71:src-gen/Main/Main.c ****         
  72:src-gen/Main/Main.c ****         // ** End initialization for reaction 0 of Main
  73:src-gen/Main/Main.c ****     
  74:src-gen/Main/Main.c ****     }
  75:src-gen/Main/Main.c ****     // **** End of deferred initialize for Main
  76:src-gen/Main/Main.c ****     // **** Start non-nested deferred initialize for Main
  77:src-gen/Main/Main.c ****     {
ARM GAS  /var/folders/2h/lww79zv53b510qlyvytqnvq40000gn/T//ccBAFPQL.s 			page 6


  78:src-gen/Main/Main.c ****     
  79:src-gen/Main/Main.c ****     
  80:src-gen/Main/Main.c ****     
  81:src-gen/Main/Main.c ****     }
 218              		.loc 1 81 5 view .LVU51
  82:src-gen/Main/Main.c ****     // **** End of non-nested deferred initialize for Main
  83:src-gen/Main/Main.c ****     // Connect inputs and outputs for reactor Main.
  84:src-gen/Main/Main.c **** 
  85:src-gen/Main/Main.c ****     
  86:src-gen/Main/Main.c ****     // Set reaction priorities for ReactorInstance Main
  87:src-gen/Main/Main.c ****     {
  88:src-gen/Main/Main.c ****         main_main_self[0]->_lf__reaction_0.chain_id = 1;
 219              		.loc 1 88 9 view .LVU52
 220              		.loc 1 88 53 is_stmt 0 view .LVU53
 221 0020 0122     		movs	r2, #1
 222 0022 0023     		movs	r3, #0
 223 0024 C0E90A23 		strd	r2, [r0, #40]
  89:src-gen/Main/Main.c ****         // index is the OR of level 0 and 
  90:src-gen/Main/Main.c ****         // deadline 9223372036854775807 shifted left 16 bits.
  91:src-gen/Main/Main.c ****         main_main_self[0]->_lf__reaction_0.index = 0xffffffffffff0000LL;
 224              		.loc 1 91 9 is_stmt 1 view .LVU54
 225              		.loc 1 91 50 is_stmt 0 view .LVU55
 226 0028 034A     		ldr	r2, .L13+4
 227 002a 4FF0FF33 		mov	r3, #-1
 228 002e C0E90823 		strd	r2, [r0, #32]
  92:src-gen/Main/Main.c ****     }
  93:src-gen/Main/Main.c ****     
  94:src-gen/Main/Main.c **** 
  95:src-gen/Main/Main.c ****     #ifdef EXECUTABLE_PREAMBLE
  96:src-gen/Main/Main.c ****     _lf_executable_preamble(&envs[0]);
  97:src-gen/Main/Main.c ****     #endif
  98:src-gen/Main/Main.c ****     #ifdef FEDERATED
  99:src-gen/Main/Main.c ****     initialize_triggers_for_federate();
 100:src-gen/Main/Main.c ****     #endif // FEDERATED
 101:src-gen/Main/Main.c **** }
 229              		.loc 1 101 1 view .LVU56
 230 0032 08BD     		pop	{r3, pc}
 231              	.L14:
 232              		.align	2
 233              	.L13:
 234 0034 00000000 		.word	envs
 235 0038 0000FFFF 		.word	-65536
 236              		.cfi_endproc
 237              	.LFE137:
 239              		.section	.text.logical_tag_complete,"ax",%progbits
 240              		.align	1
 241              		.global	logical_tag_complete
 242              		.syntax unified
 243              		.thumb
 244              		.thumb_func
 246              	logical_tag_complete:
 247              	.LFB138:
 102:src-gen/Main/Main.c **** void logical_tag_complete(tag_t tag_to_send) {
 248              		.loc 1 102 46 is_stmt 1 view -0
 249              		.cfi_startproc
 250              		@ args = 0, pretend = 0, frame = 16
 251              		@ frame_needed = 0, uses_anonymous_args = 0
ARM GAS  /var/folders/2h/lww79zv53b510qlyvytqnvq40000gn/T//ccBAFPQL.s 			page 7


 252              		@ link register save eliminated.
 253 0000 84B0     		sub	sp, sp, #16
 254              	.LCFI5:
 255              		.cfi_def_cfa_offset 16
 256 0002 0DF1100C 		add	ip, sp, #16
 257 0006 0CE90F00 		stmdb	ip, {r0, r1, r2, r3}
 103:src-gen/Main/Main.c **** #ifdef FEDERATED_CENTRALIZED
 104:src-gen/Main/Main.c ****         _lf_logical_tag_complete(tag_to_send);
 105:src-gen/Main/Main.c **** #endif // FEDERATED_CENTRALIZED
 106:src-gen/Main/Main.c **** 
 107:src-gen/Main/Main.c **** }
 258              		.loc 1 107 1 view .LVU58
 259 000a 04B0     		add	sp, sp, #16
 260              	.LCFI6:
 261              		.cfi_def_cfa_offset 0
 262              		@ sp needed
 263 000c 7047     		bx	lr
 264              		.cfi_endproc
 265              	.LFE138:
 267              		.section	.text.terminate_execution,"ax",%progbits
 268              		.align	1
 269              		.global	terminate_execution
 270              		.syntax unified
 271              		.thumb
 272              		.thumb_func
 274              	terminate_execution:
 275              	.LVL8:
 276              	.LFB139:
 108:src-gen/Main/Main.c **** #ifndef FEDERATED
 109:src-gen/Main/Main.c **** void terminate_execution(environment_t* env) {}
 277              		.loc 1 109 46 view -0
 278              		.cfi_startproc
 279              		@ args = 0, pretend = 0, frame = 0
 280              		@ frame_needed = 0, uses_anonymous_args = 0
 281              		@ link register save eliminated.
 282              		.loc 1 109 47 view .LVU60
 283 0000 7047     		bx	lr
 284              		.cfi_endproc
 285              	.LFE139:
 287              		.global	_lf_watchdog_count
 288              		.section	.bss._lf_watchdog_count,"aw",%nobits
 289              		.align	2
 292              	_lf_watchdog_count:
 293 0000 00000000 		.space	4
 294              		.global	_lf_watchdogs
 295              		.section	.bss._lf_watchdogs,"aw",%nobits
 296              		.align	2
 299              	_lf_watchdogs:
 300 0000 00000000 		.space	4
 301              		.global	envs
 302              		.section	.bss.envs,"aw",%nobits
 303              		.align	3
 306              	envs:
 307 0000 00000000 		.space	136
 307      00000000 
 307      00000000 
 307      00000000 
ARM GAS  /var/folders/2h/lww79zv53b510qlyvytqnvq40000gn/T//ccBAFPQL.s 			page 8


 307      00000000 
 308              		.text
 309              	.Letext0:
 310              		.file 2 "/Applications/ArmGNUToolchain/12.3.rel1/arm-none-eabi/arm-none-eabi/include/machine/_defa
 311              		.file 3 "/Applications/ArmGNUToolchain/12.3.rel1/arm-none-eabi/arm-none-eabi/include/sys/_stdint.h
 312              		.file 4 "/Applications/ArmGNUToolchain/12.3.rel1/arm-none-eabi/lib/gcc/arm-none-eabi/12.3.1/includ
 313              		.file 5 "src-gen/Main/include/core/tag.h"
 314              		.file 6 "src-gen/Main/include/core/platform.h"
 315              		.file 7 "src-gen/Main/include/core/environment.h"
 316              		.file 8 "src-gen/Main/include/core/utils/pqueue.h"
 317              		.file 9 "src-gen/Main/include/core/lf_token.h"
 318              		.file 10 "src-gen/Main/include/core/lf_types.h"
 319              		.file 11 "src-gen/Main/include/core/utils/vector.h"
 320              		.file 12 "src-gen/Main/_main_main.h"
 321              		.file 13 "/Users/naichenzhao/Desktop/EECS149-Project/LFC_Porting/lfc_testbench/src/Main.lf"
 322              		.file 14 "src-gen/Main/include/core/reactor_common.h"
 323              		.file 15 "src-gen/Main/include/core/modal_models/modes.h"
ARM GAS  /var/folders/2h/lww79zv53b510qlyvytqnvq40000gn/T//ccBAFPQL.s 			page 9

