ARM GAS  /var/folders/2h/lww79zv53b510qlyvytqnvq40000gn/T//cc1mYm3y.s 			page 1


   1              		.cpu cortex-m4
   2              		.arch armv7e-m
   3              		.fpu fpv4-sp-d16
   4              		.eabi_attribute 27, 1
   5              		.eabi_attribute 28, 1
   6              		.eabi_attribute 20, 1
   7              		.eabi_attribute 21, 1
   8              		.eabi_attribute 23, 3
   9              		.eabi_attribute 24, 1
  10              		.eabi_attribute 25, 1
  11              		.eabi_attribute 26, 1
  12              		.eabi_attribute 30, 1
  13              		.eabi_attribute 34, 1
  14              		.eabi_attribute 18, 4
  15              		.file	"pqueue.c"
  16              		.text
  17              	.Ltext0:
  18              		.cfi_sections	.debug_frame
  19              		.file 1 "src-gen/Main/core/utils/pqueue.c"
  20              		.section	.text.maxchild,"ax",%progbits
  21              		.align	1
  22              		.syntax unified
  23              		.thumb
  24              		.thumb_func
  26              	maxchild:
  27              	.LVL0:
  28              	.LFB138:
   1:src-gen/Main/core/utils/pqueue.c **** /*
   2:src-gen/Main/core/utils/pqueue.c ****  * Copyright (c) 2014, Volkan Yazıcı <volkan.yazici@gmail.com>
   3:src-gen/Main/core/utils/pqueue.c ****  * All rights reserved.
   4:src-gen/Main/core/utils/pqueue.c ****  *
   5:src-gen/Main/core/utils/pqueue.c ****  * Redistribution and use in source and binary forms, with or without
   6:src-gen/Main/core/utils/pqueue.c ****  * modification, are permitted provided that the following conditions are met:
   7:src-gen/Main/core/utils/pqueue.c ****  *
   8:src-gen/Main/core/utils/pqueue.c ****  * 1. Redistributions of source code must retain the above copyright notice, this
   9:src-gen/Main/core/utils/pqueue.c ****  *    list of conditions and the following disclaimer.
  10:src-gen/Main/core/utils/pqueue.c ****  * 2. Redistributions in binary form must reproduce the above copyright notice,
  11:src-gen/Main/core/utils/pqueue.c ****  *    this list of conditions and the following disclaimer in the documentation
  12:src-gen/Main/core/utils/pqueue.c ****  *    and/or other materials provided with the distribution.
  13:src-gen/Main/core/utils/pqueue.c ****  *
  14:src-gen/Main/core/utils/pqueue.c ****  * THIS SOFTWARE IS PROVIDED BY THE COPYRIGHT HOLDERS AND CONTRIBUTORS "AS IS" AND
  15:src-gen/Main/core/utils/pqueue.c ****  * ANY EXPRESS OR IMPLIED WARRANTIES, INCLUDING, BUT NOT LIMITED TO, THE IMPLIED
  16:src-gen/Main/core/utils/pqueue.c ****  * WARRANTIES OF MERCHANTABILITY AND FITNESS FOR A PARTICULAR PURPOSE ARE
  17:src-gen/Main/core/utils/pqueue.c ****  * DISCLAIMED. IN NO EVENT SHALL THE COPYRIGHT OWNER OR CONTRIBUTORS BE LIABLE FOR
  18:src-gen/Main/core/utils/pqueue.c ****  * ANY DIRECT, INDIRECT, INCIDENTAL, SPECIAL, EXEMPLARY, OR CONSEQUENTIAL DAMAGES
  19:src-gen/Main/core/utils/pqueue.c ****  * (INCLUDING, BUT NOT LIMITED TO, PROCUREMENT OF SUBSTITUTE GOODS OR SERVICES;
  20:src-gen/Main/core/utils/pqueue.c ****  * LOSS OF USE, DATA, OR PROFITS; OR BUSINESS INTERRUPTION) HOWEVER CAUSED AND
  21:src-gen/Main/core/utils/pqueue.c ****  * ON ANY THEORY OF LIABILITY, WHETHER IN CONTRACT, STRICT LIABILITY, OR TORT
  22:src-gen/Main/core/utils/pqueue.c ****  * (INCLUDING NEGLIGENCE OR OTHERWISE) ARISING IN ANY WAY OUT OF THE USE OF THIS
  23:src-gen/Main/core/utils/pqueue.c ****  * SOFTWARE, EVEN IF ADVISED OF THE POSSIBILITY OF SUCH DAMAGE.
  24:src-gen/Main/core/utils/pqueue.c ****  *
  25:src-gen/Main/core/utils/pqueue.c ****  * Modified by Marten Lohstroh (May, 2019).
  26:src-gen/Main/core/utils/pqueue.c ****  * Changes:
  27:src-gen/Main/core/utils/pqueue.c ****  * - Require implementation of a pqueue_eq_elem_f function to determine
  28:src-gen/Main/core/utils/pqueue.c ****  *   whether two elements are equal or not; and
  29:src-gen/Main/core/utils/pqueue.c ****  * - The provided pqueue_eq_elem_f implementation is used to test and
  30:src-gen/Main/core/utils/pqueue.c ****  *   search for equal elements present in the queue; and
ARM GAS  /var/folders/2h/lww79zv53b510qlyvytqnvq40000gn/T//cc1mYm3y.s 			page 2


  31:src-gen/Main/core/utils/pqueue.c ****  * - Removed capability to reassign priorities.
  32:src-gen/Main/core/utils/pqueue.c ****  */
  33:src-gen/Main/core/utils/pqueue.c **** 
  34:src-gen/Main/core/utils/pqueue.c **** #include <stdlib.h>
  35:src-gen/Main/core/utils/pqueue.c **** #include <stdio.h>
  36:src-gen/Main/core/utils/pqueue.c **** #include <string.h>
  37:src-gen/Main/core/utils/pqueue.c **** #include <assert.h>
  38:src-gen/Main/core/utils/pqueue.c **** #include <stdbool.h>
  39:src-gen/Main/core/utils/pqueue.c **** 
  40:src-gen/Main/core/utils/pqueue.c **** #include "platform.h"
  41:src-gen/Main/core/utils/pqueue.c **** #include "pqueue.h"
  42:src-gen/Main/core/utils/pqueue.c **** #include "util.h"
  43:src-gen/Main/core/utils/pqueue.c **** #include "lf_types.h"
  44:src-gen/Main/core/utils/pqueue.c **** 
  45:src-gen/Main/core/utils/pqueue.c **** #define LF_LEFT(i)   ((i) << 1)
  46:src-gen/Main/core/utils/pqueue.c **** #define LF_RIGHT(i)  (((i) << 1) + 1)
  47:src-gen/Main/core/utils/pqueue.c **** #define LF_PARENT(i) ((i) >> 1)
  48:src-gen/Main/core/utils/pqueue.c **** 
  49:src-gen/Main/core/utils/pqueue.c **** /**
  50:src-gen/Main/core/utils/pqueue.c ****  * Find an element in the queue that matches the given element up to
  51:src-gen/Main/core/utils/pqueue.c ****  * and including the given maximum priority.
  52:src-gen/Main/core/utils/pqueue.c ****  */
  53:src-gen/Main/core/utils/pqueue.c **** void* find_equal(pqueue_t *q, void *e, int pos, pqueue_pri_t max) {
  54:src-gen/Main/core/utils/pqueue.c ****     if (pos < 0) {
  55:src-gen/Main/core/utils/pqueue.c ****         lf_print_error_and_exit("find_equal() called with a negative pos index.");
  56:src-gen/Main/core/utils/pqueue.c ****     }
  57:src-gen/Main/core/utils/pqueue.c **** 
  58:src-gen/Main/core/utils/pqueue.c ****     // Stop the recursion when we've reached the end of the
  59:src-gen/Main/core/utils/pqueue.c ****     // queue. This has to be done before accessing the queue
  60:src-gen/Main/core/utils/pqueue.c ****     // to avoid segmentation fault.
  61:src-gen/Main/core/utils/pqueue.c ****     if (!q || (size_t)pos >= q->size) {
  62:src-gen/Main/core/utils/pqueue.c ****         return NULL;
  63:src-gen/Main/core/utils/pqueue.c ****     }
  64:src-gen/Main/core/utils/pqueue.c **** 
  65:src-gen/Main/core/utils/pqueue.c ****     void* rval;
  66:src-gen/Main/core/utils/pqueue.c ****     void* curr = q->d[pos];
  67:src-gen/Main/core/utils/pqueue.c **** 
  68:src-gen/Main/core/utils/pqueue.c ****     // Stop the recursion when we've surpassed the maximum priority.
  69:src-gen/Main/core/utils/pqueue.c ****     if (!curr || q->cmppri(q->getpri(curr), max)) {
  70:src-gen/Main/core/utils/pqueue.c ****         return NULL;
  71:src-gen/Main/core/utils/pqueue.c ****     }
  72:src-gen/Main/core/utils/pqueue.c **** 
  73:src-gen/Main/core/utils/pqueue.c ****     if (q->eqelem(curr, e)) {
  74:src-gen/Main/core/utils/pqueue.c ****         return curr;
  75:src-gen/Main/core/utils/pqueue.c ****     } else {
  76:src-gen/Main/core/utils/pqueue.c ****         rval = find_equal(q, e, LF_LEFT(pos), max);
  77:src-gen/Main/core/utils/pqueue.c ****         if (rval)
  78:src-gen/Main/core/utils/pqueue.c ****             return rval;
  79:src-gen/Main/core/utils/pqueue.c ****         else
  80:src-gen/Main/core/utils/pqueue.c ****             return find_equal(q, e, LF_RIGHT(pos), max);
  81:src-gen/Main/core/utils/pqueue.c ****     }
  82:src-gen/Main/core/utils/pqueue.c ****     return NULL;
  83:src-gen/Main/core/utils/pqueue.c **** }
  84:src-gen/Main/core/utils/pqueue.c **** 
  85:src-gen/Main/core/utils/pqueue.c **** /**
  86:src-gen/Main/core/utils/pqueue.c ****  * Find an element in the queue that matches the given element up to
  87:src-gen/Main/core/utils/pqueue.c ****  * but not including the given maximum priority. The matching element
ARM GAS  /var/folders/2h/lww79zv53b510qlyvytqnvq40000gn/T//cc1mYm3y.s 			page 3


  88:src-gen/Main/core/utils/pqueue.c ****  * has to _also_ have the same priority.
  89:src-gen/Main/core/utils/pqueue.c ****  */
  90:src-gen/Main/core/utils/pqueue.c **** void* find_equal_same_priority(pqueue_t *q, void *e, int pos) {
  91:src-gen/Main/core/utils/pqueue.c ****     if (pos < 0) {
  92:src-gen/Main/core/utils/pqueue.c ****         lf_print_error_and_exit("find_equal_same_priority() called with a negative pos index.");
  93:src-gen/Main/core/utils/pqueue.c ****     }
  94:src-gen/Main/core/utils/pqueue.c **** 
  95:src-gen/Main/core/utils/pqueue.c ****     // Stop the recursion when we've reached the end of the
  96:src-gen/Main/core/utils/pqueue.c ****     // queue. This has to be done before accessing the queue
  97:src-gen/Main/core/utils/pqueue.c ****     // to avoid segmentation fault.
  98:src-gen/Main/core/utils/pqueue.c ****     if (!q || (size_t)pos >= q->size) {
  99:src-gen/Main/core/utils/pqueue.c ****         return NULL;
 100:src-gen/Main/core/utils/pqueue.c ****     }
 101:src-gen/Main/core/utils/pqueue.c **** 
 102:src-gen/Main/core/utils/pqueue.c ****     void* rval;
 103:src-gen/Main/core/utils/pqueue.c ****     void* curr = q->d[pos];
 104:src-gen/Main/core/utils/pqueue.c **** 
 105:src-gen/Main/core/utils/pqueue.c ****     // Stop the recursion once we've surpassed the priority of the element
 106:src-gen/Main/core/utils/pqueue.c ****     // we're looking for.
 107:src-gen/Main/core/utils/pqueue.c ****     if (!curr || q->cmppri(q->getpri(curr), q->getpri(e))) {
 108:src-gen/Main/core/utils/pqueue.c ****         return NULL;
 109:src-gen/Main/core/utils/pqueue.c ****     }
 110:src-gen/Main/core/utils/pqueue.c **** 
 111:src-gen/Main/core/utils/pqueue.c ****     if (q->getpri(curr) == q->getpri(e) && q->eqelem(curr, e)) {
 112:src-gen/Main/core/utils/pqueue.c ****         return curr;
 113:src-gen/Main/core/utils/pqueue.c ****     } else {
 114:src-gen/Main/core/utils/pqueue.c ****         rval = find_equal_same_priority(q, e, LF_LEFT(pos));
 115:src-gen/Main/core/utils/pqueue.c ****         if (rval)
 116:src-gen/Main/core/utils/pqueue.c ****             return rval;
 117:src-gen/Main/core/utils/pqueue.c ****         else
 118:src-gen/Main/core/utils/pqueue.c ****             return find_equal_same_priority(q, e, LF_RIGHT(pos));
 119:src-gen/Main/core/utils/pqueue.c ****     }
 120:src-gen/Main/core/utils/pqueue.c **** 
 121:src-gen/Main/core/utils/pqueue.c ****     // for (int i=1; i < q->size; i++) {
 122:src-gen/Main/core/utils/pqueue.c ****     //     if (q->d[i] == e) {
 123:src-gen/Main/core/utils/pqueue.c ****     //         return q->d[i];
 124:src-gen/Main/core/utils/pqueue.c ****     //     }
 125:src-gen/Main/core/utils/pqueue.c ****     // }
 126:src-gen/Main/core/utils/pqueue.c ****     return NULL;
 127:src-gen/Main/core/utils/pqueue.c **** }
 128:src-gen/Main/core/utils/pqueue.c **** 
 129:src-gen/Main/core/utils/pqueue.c **** pqueue_t * pqueue_init(size_t n,
 130:src-gen/Main/core/utils/pqueue.c ****                        pqueue_cmp_pri_f cmppri,
 131:src-gen/Main/core/utils/pqueue.c ****                        pqueue_get_pri_f getpri,
 132:src-gen/Main/core/utils/pqueue.c ****                        pqueue_get_pos_f getpos,
 133:src-gen/Main/core/utils/pqueue.c ****                        pqueue_set_pos_f setpos,
 134:src-gen/Main/core/utils/pqueue.c ****                        pqueue_eq_elem_f eqelem,
 135:src-gen/Main/core/utils/pqueue.c ****                        pqueue_print_entry_f prt) {
 136:src-gen/Main/core/utils/pqueue.c ****     pqueue_t *q;
 137:src-gen/Main/core/utils/pqueue.c **** 
 138:src-gen/Main/core/utils/pqueue.c ****     if (!(q = (pqueue_t*)malloc(sizeof(pqueue_t))))
 139:src-gen/Main/core/utils/pqueue.c ****         return NULL;
 140:src-gen/Main/core/utils/pqueue.c **** 
 141:src-gen/Main/core/utils/pqueue.c ****     /* Need to allocate n+1 elements since element 0 isn't used. */
 142:src-gen/Main/core/utils/pqueue.c ****     if (!(q->d = (void**)malloc((n + 1) * sizeof(void *)))) {
 143:src-gen/Main/core/utils/pqueue.c ****         free(q);
 144:src-gen/Main/core/utils/pqueue.c ****         return NULL;
ARM GAS  /var/folders/2h/lww79zv53b510qlyvytqnvq40000gn/T//cc1mYm3y.s 			page 4


 145:src-gen/Main/core/utils/pqueue.c ****     }
 146:src-gen/Main/core/utils/pqueue.c **** 
 147:src-gen/Main/core/utils/pqueue.c ****     q->size = 1;
 148:src-gen/Main/core/utils/pqueue.c ****     q->avail = q->step = (n+1);  /* see comment above about n+1 */
 149:src-gen/Main/core/utils/pqueue.c ****     q->cmppri = cmppri;
 150:src-gen/Main/core/utils/pqueue.c ****     q->getpri = getpri;
 151:src-gen/Main/core/utils/pqueue.c ****     q->getpos = getpos;
 152:src-gen/Main/core/utils/pqueue.c ****     q->setpos = setpos;
 153:src-gen/Main/core/utils/pqueue.c ****     q->eqelem = eqelem;
 154:src-gen/Main/core/utils/pqueue.c ****     q->prt = prt;
 155:src-gen/Main/core/utils/pqueue.c ****     return q;
 156:src-gen/Main/core/utils/pqueue.c **** }
 157:src-gen/Main/core/utils/pqueue.c **** 
 158:src-gen/Main/core/utils/pqueue.c **** void pqueue_free(pqueue_t *q) {
 159:src-gen/Main/core/utils/pqueue.c ****     free(q->d);
 160:src-gen/Main/core/utils/pqueue.c ****     free(q);
 161:src-gen/Main/core/utils/pqueue.c **** }
 162:src-gen/Main/core/utils/pqueue.c **** 
 163:src-gen/Main/core/utils/pqueue.c **** size_t pqueue_size(pqueue_t *q) {
 164:src-gen/Main/core/utils/pqueue.c ****     if (!q) return 0;
 165:src-gen/Main/core/utils/pqueue.c ****     // Queue element 0 exists but doesn't count since it isn't used.
 166:src-gen/Main/core/utils/pqueue.c ****     return (q->size - 1);
 167:src-gen/Main/core/utils/pqueue.c **** }
 168:src-gen/Main/core/utils/pqueue.c **** 
 169:src-gen/Main/core/utils/pqueue.c **** static size_t maxchild(pqueue_t *q, size_t i) {
  29              		.loc 1 169 47 view -0
  30              		.cfi_startproc
  31              		@ args = 0, pretend = 0, frame = 0
  32              		@ frame_needed = 0, uses_anonymous_args = 0
  33              		.loc 1 169 47 is_stmt 0 view .LVU1
  34 0000 2DE9F843 		push	{r3, r4, r5, r6, r7, r8, r9, lr}
  35              	.LCFI0:
  36              		.cfi_def_cfa_offset 32
  37              		.cfi_offset 3, -32
  38              		.cfi_offset 4, -28
  39              		.cfi_offset 5, -24
  40              		.cfi_offset 6, -20
  41              		.cfi_offset 7, -16
  42              		.cfi_offset 8, -12
  43              		.cfi_offset 9, -8
  44              		.cfi_offset 14, -4
 170:src-gen/Main/core/utils/pqueue.c ****     size_t child_node = LF_LEFT(i);
  45              		.loc 1 170 5 is_stmt 1 view .LVU2
  46              	.LVL1:
 171:src-gen/Main/core/utils/pqueue.c **** 
 172:src-gen/Main/core/utils/pqueue.c ****     if (child_node >= q->size)
  47              		.loc 1 172 5 view .LVU3
  48              		.loc 1 172 24 is_stmt 0 view .LVU4
  49 0004 0368     		ldr	r3, [r0]
  50              		.loc 1 172 8 view .LVU5
  51 0006 B3EB410F 		cmp	r3, r1, lsl #1
  52 000a 1AD9     		bls	.L3
  53 000c 0446     		mov	r4, r0
  54 000e 4D00     		lsls	r5, r1, #1
  55              	.LVL2:
 173:src-gen/Main/core/utils/pqueue.c ****         return 0;
 174:src-gen/Main/core/utils/pqueue.c **** 
ARM GAS  /var/folders/2h/lww79zv53b510qlyvytqnvq40000gn/T//cc1mYm3y.s 			page 5


 175:src-gen/Main/core/utils/pqueue.c ****     if ((child_node+1) < q->size &&
  56              		.loc 1 175 5 is_stmt 1 view .LVU6
  57              		.loc 1 175 20 is_stmt 0 view .LVU7
  58 0010 6E1C     		adds	r6, r5, #1
  59              		.loc 1 175 8 view .LVU8
  60 0012 B342     		cmp	r3, r6
  61 0014 16D9     		bls	.L1
 176:src-gen/Main/core/utils/pqueue.c ****         (q->cmppri(q->getpri(q->d[child_node]), q->getpri(q->d[child_node+1]))))
  62              		.loc 1 176 11 discriminator 1 view .LVU9
  63 0016 D0F80C90 		ldr	r9, [r0, #12]
  64              		.loc 1 176 21 discriminator 1 view .LVU10
  65 001a 0369     		ldr	r3, [r0, #16]
  66              		.loc 1 176 31 discriminator 1 view .LVU11
  67 001c 426A     		ldr	r2, [r0, #36]
  68              		.loc 1 176 10 discriminator 1 view .LVU12
  69 001e 52F82500 		ldr	r0, [r2, r5, lsl #2]
  70              	.LVL3:
  71              		.loc 1 176 10 discriminator 1 view .LVU13
  72 0022 9847     		blx	r3
  73              	.LVL4:
  74              		.loc 1 176 10 discriminator 1 view .LVU14
  75 0024 8046     		mov	r8, r0
  76 0026 0F46     		mov	r7, r1
  77              		.loc 1 176 50 discriminator 1 view .LVU15
  78 0028 2369     		ldr	r3, [r4, #16]
  79              		.loc 1 176 60 discriminator 1 view .LVU16
  80 002a 626A     		ldr	r2, [r4, #36]
  81              		.loc 1 176 10 discriminator 1 view .LVU17
  82 002c 52F82600 		ldr	r0, [r2, r6, lsl #2]
  83 0030 9847     		blx	r3
  84              	.LVL5:
  85 0032 0246     		mov	r2, r0
  86 0034 0B46     		mov	r3, r1
  87 0036 4046     		mov	r0, r8
  88 0038 3946     		mov	r1, r7
  89 003a C847     		blx	r9
  90              	.LVL6:
 175:src-gen/Main/core/utils/pqueue.c ****         (q->cmppri(q->getpri(q->d[child_node]), q->getpri(q->d[child_node+1]))))
  91              		.loc 1 175 34 discriminator 1 view .LVU18
  92 003c 10B1     		cbz	r0, .L1
 177:src-gen/Main/core/utils/pqueue.c ****         child_node++; /* use right child instead of left */
  93              		.loc 1 177 19 view .LVU19
  94 003e 3546     		mov	r5, r6
  95              	.LVL7:
  96              		.loc 1 177 19 view .LVU20
  97 0040 00E0     		b	.L1
  98              	.LVL8:
  99              	.L3:
 173:src-gen/Main/core/utils/pqueue.c **** 
 100              		.loc 1 173 16 view .LVU21
 101 0042 0025     		movs	r5, #0
 102              	.LVL9:
 103              	.L1:
 178:src-gen/Main/core/utils/pqueue.c **** 
 179:src-gen/Main/core/utils/pqueue.c ****     return child_node;
 180:src-gen/Main/core/utils/pqueue.c **** }
 104              		.loc 1 180 1 view .LVU22
ARM GAS  /var/folders/2h/lww79zv53b510qlyvytqnvq40000gn/T//cc1mYm3y.s 			page 6


 105 0044 2846     		mov	r0, r5
 106 0046 BDE8F883 		pop	{r3, r4, r5, r6, r7, r8, r9, pc}
 107              		.cfi_endproc
 108              	.LFE138:
 110              		.section	.text.bubble_up,"ax",%progbits
 111              		.align	1
 112              		.syntax unified
 113              		.thumb
 114              		.thumb_func
 116              	bubble_up:
 117              	.LVL10:
 118              	.LFB139:
 181:src-gen/Main/core/utils/pqueue.c **** 
 182:src-gen/Main/core/utils/pqueue.c **** static size_t bubble_up(pqueue_t *q, size_t i) {
 119              		.loc 1 182 48 is_stmt 1 view -0
 120              		.cfi_startproc
 121              		@ args = 0, pretend = 0, frame = 0
 122              		@ frame_needed = 0, uses_anonymous_args = 0
 123              		.loc 1 182 48 is_stmt 0 view .LVU24
 124 0000 2DE9F047 		push	{r4, r5, r6, r7, r8, r9, r10, lr}
 125              	.LCFI1:
 126              		.cfi_def_cfa_offset 32
 127              		.cfi_offset 4, -32
 128              		.cfi_offset 5, -28
 129              		.cfi_offset 6, -24
 130              		.cfi_offset 7, -20
 131              		.cfi_offset 8, -16
 132              		.cfi_offset 9, -12
 133              		.cfi_offset 10, -8
 134              		.cfi_offset 14, -4
 135 0004 0446     		mov	r4, r0
 136 0006 0D46     		mov	r5, r1
 183:src-gen/Main/core/utils/pqueue.c ****     size_t parent_node;
 137              		.loc 1 183 5 is_stmt 1 view .LVU25
 184:src-gen/Main/core/utils/pqueue.c ****     void *moving_node = q->d[i];
 138              		.loc 1 184 5 view .LVU26
 139              		.loc 1 184 26 is_stmt 0 view .LVU27
 140 0008 436A     		ldr	r3, [r0, #36]
 141              		.loc 1 184 11 view .LVU28
 142 000a 53F82190 		ldr	r9, [r3, r1, lsl #2]
 143              	.LVL11:
 185:src-gen/Main/core/utils/pqueue.c ****     pqueue_pri_t moving_pri = q->getpri(moving_node);
 144              		.loc 1 185 5 is_stmt 1 view .LVU29
 145              		.loc 1 185 32 is_stmt 0 view .LVU30
 146 000e 0369     		ldr	r3, [r0, #16]
 147              		.loc 1 185 31 view .LVU31
 148 0010 4846     		mov	r0, r9
 149              	.LVL12:
 150              		.loc 1 185 31 view .LVU32
 151 0012 9847     		blx	r3
 152              	.LVL13:
 153              		.loc 1 185 31 view .LVU33
 154 0014 8046     		mov	r8, r0
 155 0016 0F46     		mov	r7, r1
 156              	.LVL14:
 186:src-gen/Main/core/utils/pqueue.c **** 
 187:src-gen/Main/core/utils/pqueue.c ****     for (parent_node = LF_PARENT(i);
ARM GAS  /var/folders/2h/lww79zv53b510qlyvytqnvq40000gn/T//cc1mYm3y.s 			page 7


 157              		.loc 1 187 5 is_stmt 1 view .LVU34
 158              		.loc 1 187 22 is_stmt 0 view .LVU35
 159 0018 6E08     		lsrs	r6, r5, #1
 160              	.LVL15:
 161              		.loc 1 187 5 view .LVU36
 162 001a 0CE0     		b	.L7
 163              	.LVL16:
 164              	.L9:
 188:src-gen/Main/core/utils/pqueue.c ****          ((i > 1) && q->cmppri(q->getpri(q->d[parent_node]), moving_pri));
 189:src-gen/Main/core/utils/pqueue.c ****          i = parent_node, parent_node = LF_PARENT(i))
 190:src-gen/Main/core/utils/pqueue.c ****     {
 191:src-gen/Main/core/utils/pqueue.c ****         q->d[i] = q->d[parent_node];
 165              		.loc 1 191 9 is_stmt 1 view .LVU37
 166              		.loc 1 191 20 is_stmt 0 view .LVU38
 167 001c 636A     		ldr	r3, [r4, #36]
 168              		.loc 1 191 23 view .LVU39
 169 001e 53F82620 		ldr	r2, [r3, r6, lsl #2]
 170              		.loc 1 191 17 view .LVU40
 171 0022 43F82520 		str	r2, [r3, r5, lsl #2]
 192:src-gen/Main/core/utils/pqueue.c ****         q->setpos(q->d[i], i);
 172              		.loc 1 192 9 is_stmt 1 view .LVU41
 173              		.loc 1 192 10 is_stmt 0 view .LVU42
 174 0026 A369     		ldr	r3, [r4, #24]
 175              		.loc 1 192 20 view .LVU43
 176 0028 626A     		ldr	r2, [r4, #36]
 177              		.loc 1 192 9 view .LVU44
 178 002a 2946     		mov	r1, r5
 179 002c 52F82500 		ldr	r0, [r2, r5, lsl #2]
 180 0030 9847     		blx	r3
 181              	.LVL17:
 189:src-gen/Main/core/utils/pqueue.c ****     {
 182              		.loc 1 189 25 is_stmt 1 view .LVU45
 189:src-gen/Main/core/utils/pqueue.c ****     {
 183              		.loc 1 189 12 is_stmt 0 view .LVU46
 184 0032 3546     		mov	r5, r6
 189:src-gen/Main/core/utils/pqueue.c ****     {
 185              		.loc 1 189 39 view .LVU47
 186 0034 7608     		lsrs	r6, r6, #1
 187              	.LVL18:
 188              	.L7:
 188:src-gen/Main/core/utils/pqueue.c ****          ((i > 1) && q->cmppri(q->getpri(q->d[parent_node]), moving_pri));
 189              		.loc 1 188 19 is_stmt 1 view .LVU48
 190 0036 012D     		cmp	r5, #1
 191 0038 0BD9     		bls	.L8
 188:src-gen/Main/core/utils/pqueue.c ****          ((i > 1) && q->cmppri(q->getpri(q->d[parent_node]), moving_pri));
 192              		.loc 1 188 23 is_stmt 0 discriminator 1 view .LVU49
 193 003a D4F80CA0 		ldr	r10, [r4, #12]
 188:src-gen/Main/core/utils/pqueue.c ****          ((i > 1) && q->cmppri(q->getpri(q->d[parent_node]), moving_pri));
 194              		.loc 1 188 33 discriminator 1 view .LVU50
 195 003e 2369     		ldr	r3, [r4, #16]
 188:src-gen/Main/core/utils/pqueue.c ****          ((i > 1) && q->cmppri(q->getpri(q->d[parent_node]), moving_pri));
 196              		.loc 1 188 43 discriminator 1 view .LVU51
 197 0040 626A     		ldr	r2, [r4, #36]
 188:src-gen/Main/core/utils/pqueue.c ****          ((i > 1) && q->cmppri(q->getpri(q->d[parent_node]), moving_pri));
 198              		.loc 1 188 22 discriminator 1 view .LVU52
 199 0042 52F82600 		ldr	r0, [r2, r6, lsl #2]
 200 0046 9847     		blx	r3
ARM GAS  /var/folders/2h/lww79zv53b510qlyvytqnvq40000gn/T//cc1mYm3y.s 			page 8


 201              	.LVL19:
 202 0048 4246     		mov	r2, r8
 203 004a 3B46     		mov	r3, r7
 204 004c D047     		blx	r10
 205              	.LVL20:
 188:src-gen/Main/core/utils/pqueue.c ****          ((i > 1) && q->cmppri(q->getpri(q->d[parent_node]), moving_pri));
 206              		.loc 1 188 19 discriminator 1 view .LVU53
 207 004e 0028     		cmp	r0, #0
 208 0050 E4D1     		bne	.L9
 209              	.L8:
 193:src-gen/Main/core/utils/pqueue.c ****     }
 194:src-gen/Main/core/utils/pqueue.c **** 
 195:src-gen/Main/core/utils/pqueue.c ****     q->d[i] = moving_node;
 210              		.loc 1 195 5 is_stmt 1 view .LVU54
 211              		.loc 1 195 6 is_stmt 0 view .LVU55
 212 0052 636A     		ldr	r3, [r4, #36]
 213              		.loc 1 195 13 view .LVU56
 214 0054 43F82590 		str	r9, [r3, r5, lsl #2]
 196:src-gen/Main/core/utils/pqueue.c ****     q->setpos(moving_node, i);
 215              		.loc 1 196 5 is_stmt 1 view .LVU57
 216              		.loc 1 196 6 is_stmt 0 view .LVU58
 217 0058 A369     		ldr	r3, [r4, #24]
 218              		.loc 1 196 5 view .LVU59
 219 005a 2946     		mov	r1, r5
 220 005c 4846     		mov	r0, r9
 221 005e 9847     		blx	r3
 222              	.LVL21:
 197:src-gen/Main/core/utils/pqueue.c ****     return i;
 223              		.loc 1 197 5 is_stmt 1 view .LVU60
 198:src-gen/Main/core/utils/pqueue.c **** }
 224              		.loc 1 198 1 is_stmt 0 view .LVU61
 225 0060 2846     		mov	r0, r5
 226 0062 BDE8F087 		pop	{r4, r5, r6, r7, r8, r9, r10, pc}
 227              		.loc 1 198 1 view .LVU62
 228              		.cfi_endproc
 229              	.LFE139:
 231              		.section	.text.percolate_down,"ax",%progbits
 232              		.align	1
 233              		.syntax unified
 234              		.thumb
 235              		.thumb_func
 237              	percolate_down:
 238              	.LVL22:
 239              	.LFB140:
 199:src-gen/Main/core/utils/pqueue.c **** 
 200:src-gen/Main/core/utils/pqueue.c **** static void percolate_down(pqueue_t *q, size_t i) {
 240              		.loc 1 200 51 is_stmt 1 view -0
 241              		.cfi_startproc
 242              		@ args = 0, pretend = 0, frame = 0
 243              		@ frame_needed = 0, uses_anonymous_args = 0
 244              		.loc 1 200 51 is_stmt 0 view .LVU64
 245 0000 2DE9F047 		push	{r4, r5, r6, r7, r8, r9, r10, lr}
 246              	.LCFI2:
 247              		.cfi_def_cfa_offset 32
 248              		.cfi_offset 4, -32
 249              		.cfi_offset 5, -28
 250              		.cfi_offset 6, -24
ARM GAS  /var/folders/2h/lww79zv53b510qlyvytqnvq40000gn/T//cc1mYm3y.s 			page 9


 251              		.cfi_offset 7, -20
 252              		.cfi_offset 8, -16
 253              		.cfi_offset 9, -12
 254              		.cfi_offset 10, -8
 255              		.cfi_offset 14, -4
 256 0004 0446     		mov	r4, r0
 257 0006 0D46     		mov	r5, r1
 201:src-gen/Main/core/utils/pqueue.c ****     size_t child_node;
 258              		.loc 1 201 5 is_stmt 1 view .LVU65
 202:src-gen/Main/core/utils/pqueue.c ****     void *moving_node = q->d[i];
 259              		.loc 1 202 5 view .LVU66
 260              		.loc 1 202 26 is_stmt 0 view .LVU67
 261 0008 436A     		ldr	r3, [r0, #36]
 262              		.loc 1 202 11 view .LVU68
 263 000a 53F82190 		ldr	r9, [r3, r1, lsl #2]
 264              	.LVL23:
 203:src-gen/Main/core/utils/pqueue.c ****     pqueue_pri_t moving_pri = q->getpri(moving_node);
 265              		.loc 1 203 5 is_stmt 1 view .LVU69
 266              		.loc 1 203 32 is_stmt 0 view .LVU70
 267 000e 0369     		ldr	r3, [r0, #16]
 268              		.loc 1 203 31 view .LVU71
 269 0010 4846     		mov	r0, r9
 270              	.LVL24:
 271              		.loc 1 203 31 view .LVU72
 272 0012 9847     		blx	r3
 273              	.LVL25:
 274              		.loc 1 203 31 view .LVU73
 275 0014 8046     		mov	r8, r0
 276 0016 0F46     		mov	r7, r1
 277              	.LVL26:
 204:src-gen/Main/core/utils/pqueue.c **** 
 205:src-gen/Main/core/utils/pqueue.c ****     while ((child_node = maxchild(q, i)) &&
 278              		.loc 1 205 5 is_stmt 1 view .LVU74
 279              		.loc 1 205 11 is_stmt 0 view .LVU75
 280 0018 0BE0     		b	.L12
 281              	.LVL27:
 282              	.L14:
 206:src-gen/Main/core/utils/pqueue.c ****            q->cmppri(moving_pri, q->getpri(q->d[child_node])))
 207:src-gen/Main/core/utils/pqueue.c ****     {
 208:src-gen/Main/core/utils/pqueue.c ****         q->d[i] = q->d[child_node];
 283              		.loc 1 208 9 is_stmt 1 view .LVU76
 284              		.loc 1 208 20 is_stmt 0 view .LVU77
 285 001a 636A     		ldr	r3, [r4, #36]
 286              		.loc 1 208 23 view .LVU78
 287 001c 53F82620 		ldr	r2, [r3, r6, lsl #2]
 288              		.loc 1 208 17 view .LVU79
 289 0020 43F82520 		str	r2, [r3, r5, lsl #2]
 209:src-gen/Main/core/utils/pqueue.c ****         q->setpos(q->d[i], i);
 290              		.loc 1 209 9 is_stmt 1 view .LVU80
 291              		.loc 1 209 10 is_stmt 0 view .LVU81
 292 0024 A369     		ldr	r3, [r4, #24]
 293              		.loc 1 209 20 view .LVU82
 294 0026 626A     		ldr	r2, [r4, #36]
 295              		.loc 1 209 9 view .LVU83
 296 0028 2946     		mov	r1, r5
 297 002a 52F82500 		ldr	r0, [r2, r5, lsl #2]
 298 002e 9847     		blx	r3
ARM GAS  /var/folders/2h/lww79zv53b510qlyvytqnvq40000gn/T//cc1mYm3y.s 			page 10


 299              	.LVL28:
 210:src-gen/Main/core/utils/pqueue.c ****         i = child_node;
 300              		.loc 1 210 9 is_stmt 1 view .LVU84
 301              		.loc 1 210 11 is_stmt 0 view .LVU85
 302 0030 3546     		mov	r5, r6
 303              	.LVL29:
 304              	.L12:
 205:src-gen/Main/core/utils/pqueue.c ****            q->cmppri(moving_pri, q->getpri(q->d[child_node])))
 305              		.loc 1 205 42 is_stmt 1 view .LVU86
 205:src-gen/Main/core/utils/pqueue.c ****            q->cmppri(moving_pri, q->getpri(q->d[child_node])))
 306              		.loc 1 205 26 is_stmt 0 view .LVU87
 307 0032 2946     		mov	r1, r5
 308 0034 2046     		mov	r0, r4
 309 0036 FFF7FEFF 		bl	maxchild
 310              	.LVL30:
 205:src-gen/Main/core/utils/pqueue.c ****            q->cmppri(moving_pri, q->getpri(q->d[child_node])))
 311              		.loc 1 205 42 view .LVU88
 312 003a 0646     		mov	r6, r0
 313 003c 68B1     		cbz	r0, .L13
 206:src-gen/Main/core/utils/pqueue.c ****     {
 314              		.loc 1 206 13 discriminator 1 view .LVU89
 315 003e D4F80CA0 		ldr	r10, [r4, #12]
 206:src-gen/Main/core/utils/pqueue.c ****     {
 316              		.loc 1 206 35 discriminator 1 view .LVU90
 317 0042 2369     		ldr	r3, [r4, #16]
 206:src-gen/Main/core/utils/pqueue.c ****     {
 318              		.loc 1 206 45 discriminator 1 view .LVU91
 319 0044 626A     		ldr	r2, [r4, #36]
 206:src-gen/Main/core/utils/pqueue.c ****     {
 320              		.loc 1 206 12 discriminator 1 view .LVU92
 321 0046 52F82000 		ldr	r0, [r2, r0, lsl #2]
 322              	.LVL31:
 206:src-gen/Main/core/utils/pqueue.c ****     {
 323              		.loc 1 206 12 discriminator 1 view .LVU93
 324 004a 9847     		blx	r3
 325              	.LVL32:
 326 004c 0246     		mov	r2, r0
 327 004e 0B46     		mov	r3, r1
 328 0050 4046     		mov	r0, r8
 329 0052 3946     		mov	r1, r7
 330 0054 D047     		blx	r10
 331              	.LVL33:
 205:src-gen/Main/core/utils/pqueue.c ****            q->cmppri(moving_pri, q->getpri(q->d[child_node])))
 332              		.loc 1 205 42 discriminator 1 view .LVU94
 333 0056 0028     		cmp	r0, #0
 334 0058 DFD1     		bne	.L14
 335              	.L13:
 211:src-gen/Main/core/utils/pqueue.c ****     }
 212:src-gen/Main/core/utils/pqueue.c **** 
 213:src-gen/Main/core/utils/pqueue.c ****     q->d[i] = moving_node;
 336              		.loc 1 213 5 is_stmt 1 view .LVU95
 337              		.loc 1 213 6 is_stmt 0 view .LVU96
 338 005a 636A     		ldr	r3, [r4, #36]
 339              		.loc 1 213 13 view .LVU97
 340 005c 43F82590 		str	r9, [r3, r5, lsl #2]
 214:src-gen/Main/core/utils/pqueue.c ****     q->setpos(moving_node, i);
 341              		.loc 1 214 5 is_stmt 1 view .LVU98
ARM GAS  /var/folders/2h/lww79zv53b510qlyvytqnvq40000gn/T//cc1mYm3y.s 			page 11


 342              		.loc 1 214 6 is_stmt 0 view .LVU99
 343 0060 A369     		ldr	r3, [r4, #24]
 344              		.loc 1 214 5 view .LVU100
 345 0062 2946     		mov	r1, r5
 346 0064 4846     		mov	r0, r9
 347 0066 9847     		blx	r3
 348              	.LVL34:
 215:src-gen/Main/core/utils/pqueue.c **** }
 349              		.loc 1 215 1 view .LVU101
 350 0068 BDE8F087 		pop	{r4, r5, r6, r7, r8, r9, r10, pc}
 351              		.loc 1 215 1 view .LVU102
 352              		.cfi_endproc
 353              	.LFE140:
 355              		.section	.rodata.subtree_is_valid.str1.4,"aMS",%progbits,1
 356              		.align	2
 357              	.LC0:
 358 0000 73756274 		.ascii	"subtree_is_valid() called with a negative pos index"
 358      7265655F 
 358      69735F76 
 358      616C6964 
 358      28292063 
 359 0033 2E00     		.ascii	".\000"
 360 0035 000000   		.align	2
 361              	.LC1:
 362 0038 73756274 		.ascii	"subtree_is_valid(): index overflow detected.\000"
 362      7265655F 
 362      69735F76 
 362      616C6964 
 362      28293A20 
 363              		.section	.text.subtree_is_valid,"ax",%progbits
 364              		.align	1
 365              		.syntax unified
 366              		.thumb
 367              		.thumb_func
 369              	subtree_is_valid:
 370              	.LVL35:
 371              	.LFB150:
 216:src-gen/Main/core/utils/pqueue.c **** 
 217:src-gen/Main/core/utils/pqueue.c **** void* pqueue_find_equal_same_priority(pqueue_t *q, void *e) {
 218:src-gen/Main/core/utils/pqueue.c ****     return find_equal_same_priority(q, e, 1);
 219:src-gen/Main/core/utils/pqueue.c **** }
 220:src-gen/Main/core/utils/pqueue.c **** 
 221:src-gen/Main/core/utils/pqueue.c **** void* pqueue_find_equal(pqueue_t *q, void *e, pqueue_pri_t max) {
 222:src-gen/Main/core/utils/pqueue.c ****     return find_equal(q, e, 1, max);
 223:src-gen/Main/core/utils/pqueue.c **** }
 224:src-gen/Main/core/utils/pqueue.c **** 
 225:src-gen/Main/core/utils/pqueue.c **** int pqueue_insert(pqueue_t *q, void *d) {
 226:src-gen/Main/core/utils/pqueue.c ****     void **tmp;
 227:src-gen/Main/core/utils/pqueue.c ****     size_t i;
 228:src-gen/Main/core/utils/pqueue.c ****     size_t newsize;
 229:src-gen/Main/core/utils/pqueue.c **** 
 230:src-gen/Main/core/utils/pqueue.c ****     if (!q) return 1;
 231:src-gen/Main/core/utils/pqueue.c **** 
 232:src-gen/Main/core/utils/pqueue.c ****     /* allocate more memory if necessary */
 233:src-gen/Main/core/utils/pqueue.c ****     if (q->size >= q->avail) {
 234:src-gen/Main/core/utils/pqueue.c ****         newsize = q->size + q->step;
 235:src-gen/Main/core/utils/pqueue.c ****         if (!(tmp = (void**)realloc(q->d, sizeof(void *) * newsize)))
ARM GAS  /var/folders/2h/lww79zv53b510qlyvytqnvq40000gn/T//cc1mYm3y.s 			page 12


 236:src-gen/Main/core/utils/pqueue.c ****             return 1;
 237:src-gen/Main/core/utils/pqueue.c ****         q->d = tmp;
 238:src-gen/Main/core/utils/pqueue.c ****         q->avail = newsize;
 239:src-gen/Main/core/utils/pqueue.c ****     }
 240:src-gen/Main/core/utils/pqueue.c ****     /* insert item and organize the tree */
 241:src-gen/Main/core/utils/pqueue.c ****     i = q->size++;
 242:src-gen/Main/core/utils/pqueue.c ****     q->d[i] = d;
 243:src-gen/Main/core/utils/pqueue.c ****     bubble_up(q, i);
 244:src-gen/Main/core/utils/pqueue.c **** 
 245:src-gen/Main/core/utils/pqueue.c ****     return 0;
 246:src-gen/Main/core/utils/pqueue.c **** }
 247:src-gen/Main/core/utils/pqueue.c **** 
 248:src-gen/Main/core/utils/pqueue.c **** int pqueue_remove(pqueue_t *q, void *d) {
 249:src-gen/Main/core/utils/pqueue.c ****     if (q->size == 1) return 0; // Nothing to remove
 250:src-gen/Main/core/utils/pqueue.c ****     size_t posn = q->getpos(d);
 251:src-gen/Main/core/utils/pqueue.c ****     q->d[posn] = q->d[--q->size];
 252:src-gen/Main/core/utils/pqueue.c ****     if (q->cmppri(q->getpri(d), q->getpri(q->d[posn])))
 253:src-gen/Main/core/utils/pqueue.c ****         bubble_up(q, posn);
 254:src-gen/Main/core/utils/pqueue.c ****     else
 255:src-gen/Main/core/utils/pqueue.c ****         percolate_down(q, posn);
 256:src-gen/Main/core/utils/pqueue.c **** 
 257:src-gen/Main/core/utils/pqueue.c ****     return 0;
 258:src-gen/Main/core/utils/pqueue.c **** }
 259:src-gen/Main/core/utils/pqueue.c **** 
 260:src-gen/Main/core/utils/pqueue.c **** void* pqueue_pop(pqueue_t *q) {
 261:src-gen/Main/core/utils/pqueue.c ****     if (!q || q->size == 1)
 262:src-gen/Main/core/utils/pqueue.c ****         return NULL;
 263:src-gen/Main/core/utils/pqueue.c **** 
 264:src-gen/Main/core/utils/pqueue.c ****     void* head;
 265:src-gen/Main/core/utils/pqueue.c **** 
 266:src-gen/Main/core/utils/pqueue.c ****     head = q->d[1];
 267:src-gen/Main/core/utils/pqueue.c ****     q->d[1] = q->d[--q->size];
 268:src-gen/Main/core/utils/pqueue.c ****     percolate_down(q, 1);
 269:src-gen/Main/core/utils/pqueue.c **** 
 270:src-gen/Main/core/utils/pqueue.c ****     return head;
 271:src-gen/Main/core/utils/pqueue.c **** }
 272:src-gen/Main/core/utils/pqueue.c **** 
 273:src-gen/Main/core/utils/pqueue.c **** /**
 274:src-gen/Main/core/utils/pqueue.c ****  * @brief Empty 'src' into 'dest'.
 275:src-gen/Main/core/utils/pqueue.c ****  *
 276:src-gen/Main/core/utils/pqueue.c ****  * As an optimization, this function might swap 'src' and 'dest'.
 277:src-gen/Main/core/utils/pqueue.c ****  *
 278:src-gen/Main/core/utils/pqueue.c ****  * @param dest The queue to fill up
 279:src-gen/Main/core/utils/pqueue.c ****  * @param src  The queue to empty
 280:src-gen/Main/core/utils/pqueue.c ****  */
 281:src-gen/Main/core/utils/pqueue.c **** void pqueue_empty_into(pqueue_t** dest, pqueue_t** src) {
 282:src-gen/Main/core/utils/pqueue.c ****     assert(src);
 283:src-gen/Main/core/utils/pqueue.c ****     assert(dest);
 284:src-gen/Main/core/utils/pqueue.c ****     assert(*src);
 285:src-gen/Main/core/utils/pqueue.c ****     assert(*dest);
 286:src-gen/Main/core/utils/pqueue.c ****     void* item;
 287:src-gen/Main/core/utils/pqueue.c ****     if ((*dest)->size >= (*src)->size) {
 288:src-gen/Main/core/utils/pqueue.c ****         while ((item = pqueue_pop(*src))) {
 289:src-gen/Main/core/utils/pqueue.c ****             pqueue_insert(*dest, item);
 290:src-gen/Main/core/utils/pqueue.c ****         }
 291:src-gen/Main/core/utils/pqueue.c ****     } else {
 292:src-gen/Main/core/utils/pqueue.c ****         while ((item = pqueue_pop(*dest))) {
ARM GAS  /var/folders/2h/lww79zv53b510qlyvytqnvq40000gn/T//cc1mYm3y.s 			page 13


 293:src-gen/Main/core/utils/pqueue.c ****             pqueue_insert(*src, item);
 294:src-gen/Main/core/utils/pqueue.c ****         }
 295:src-gen/Main/core/utils/pqueue.c **** 
 296:src-gen/Main/core/utils/pqueue.c ****         pqueue_t* tmp = *dest;
 297:src-gen/Main/core/utils/pqueue.c ****         *dest = *src;
 298:src-gen/Main/core/utils/pqueue.c ****         *src = tmp;
 299:src-gen/Main/core/utils/pqueue.c ****     }
 300:src-gen/Main/core/utils/pqueue.c **** }
 301:src-gen/Main/core/utils/pqueue.c **** 
 302:src-gen/Main/core/utils/pqueue.c **** void* pqueue_peek(pqueue_t *q) {
 303:src-gen/Main/core/utils/pqueue.c ****     void *d;
 304:src-gen/Main/core/utils/pqueue.c ****     if (!q || q->size == 1)
 305:src-gen/Main/core/utils/pqueue.c ****         return NULL;
 306:src-gen/Main/core/utils/pqueue.c ****     d = q->d[1];
 307:src-gen/Main/core/utils/pqueue.c ****     return d;
 308:src-gen/Main/core/utils/pqueue.c **** }
 309:src-gen/Main/core/utils/pqueue.c **** 
 310:src-gen/Main/core/utils/pqueue.c **** void pqueue_dump(pqueue_t *q, pqueue_print_entry_f print) {
 311:src-gen/Main/core/utils/pqueue.c ****     size_t i;
 312:src-gen/Main/core/utils/pqueue.c **** 
 313:src-gen/Main/core/utils/pqueue.c ****     LF_PRINT_DEBUG("posn\tleft\tright\tparent\tmaxchild\t...");
 314:src-gen/Main/core/utils/pqueue.c ****     for (i = 1; i < q->size ;i++) {
 315:src-gen/Main/core/utils/pqueue.c ****         LF_PRINT_DEBUG("%zu\t%zu\t%zu\t%zu\t%ul\t",
 316:src-gen/Main/core/utils/pqueue.c ****                 i,
 317:src-gen/Main/core/utils/pqueue.c ****                 LF_LEFT(i), LF_RIGHT(i), LF_PARENT(i),
 318:src-gen/Main/core/utils/pqueue.c ****                 (unsigned int)maxchild(q, i));
 319:src-gen/Main/core/utils/pqueue.c ****         print(q->d[i]);
 320:src-gen/Main/core/utils/pqueue.c ****     }
 321:src-gen/Main/core/utils/pqueue.c **** }
 322:src-gen/Main/core/utils/pqueue.c **** 
 323:src-gen/Main/core/utils/pqueue.c **** void pqueue_print(pqueue_t *q, pqueue_print_entry_f print) {
 324:src-gen/Main/core/utils/pqueue.c ****     pqueue_t *dup;
 325:src-gen/Main/core/utils/pqueue.c ****     void *e;
 326:src-gen/Main/core/utils/pqueue.c **** 
 327:src-gen/Main/core/utils/pqueue.c ****     dup = pqueue_init(q->size,
 328:src-gen/Main/core/utils/pqueue.c ****                       q->cmppri, q->getpri,
 329:src-gen/Main/core/utils/pqueue.c ****                       q->getpos, q->setpos, q->eqelem, q->prt);
 330:src-gen/Main/core/utils/pqueue.c ****     dup->size = q->size;
 331:src-gen/Main/core/utils/pqueue.c ****     dup->avail = q->avail;
 332:src-gen/Main/core/utils/pqueue.c ****     dup->step = q->step;
 333:src-gen/Main/core/utils/pqueue.c **** 
 334:src-gen/Main/core/utils/pqueue.c ****     memcpy(dup->d, q->d, (q->size * sizeof(void *)));
 335:src-gen/Main/core/utils/pqueue.c **** 
 336:src-gen/Main/core/utils/pqueue.c ****     while ((e = pqueue_pop(dup)))
 337:src-gen/Main/core/utils/pqueue.c ****         print(e);
 338:src-gen/Main/core/utils/pqueue.c **** 
 339:src-gen/Main/core/utils/pqueue.c ****     pqueue_free(dup);
 340:src-gen/Main/core/utils/pqueue.c **** }
 341:src-gen/Main/core/utils/pqueue.c **** 
 342:src-gen/Main/core/utils/pqueue.c **** 
 343:src-gen/Main/core/utils/pqueue.c **** static int subtree_is_valid(pqueue_t *q, int pos) {
 372              		.loc 1 343 51 is_stmt 1 view -0
 373              		.cfi_startproc
 374              		@ args = 0, pretend = 0, frame = 0
 375              		@ frame_needed = 0, uses_anonymous_args = 0
 376              		.loc 1 343 51 is_stmt 0 view .LVU104
 377 0000 2DE9F843 		push	{r3, r4, r5, r6, r7, r8, r9, lr}
ARM GAS  /var/folders/2h/lww79zv53b510qlyvytqnvq40000gn/T//cc1mYm3y.s 			page 14


 378              	.LCFI3:
 379              		.cfi_def_cfa_offset 32
 380              		.cfi_offset 3, -32
 381              		.cfi_offset 4, -28
 382              		.cfi_offset 5, -24
 383              		.cfi_offset 6, -20
 384              		.cfi_offset 7, -16
 385              		.cfi_offset 8, -12
 386              		.cfi_offset 9, -8
 387              		.cfi_offset 14, -4
 388 0004 0446     		mov	r4, r0
 344:src-gen/Main/core/utils/pqueue.c ****     if (pos < 0) {
 389              		.loc 1 344 5 is_stmt 1 view .LVU105
 390              		.loc 1 344 8 is_stmt 0 view .LVU106
 391 0006 0D1E     		subs	r5, r1, #0
 392 0008 1ADB     		blt	.L26
 393              	.LVL36:
 394              	.L17:
 345:src-gen/Main/core/utils/pqueue.c ****         lf_print_error_and_exit("subtree_is_valid() called with a negative pos index.");
 346:src-gen/Main/core/utils/pqueue.c ****     }
 347:src-gen/Main/core/utils/pqueue.c **** 
 348:src-gen/Main/core/utils/pqueue.c ****     int left_pos = LF_LEFT(pos);
 395              		.loc 1 348 5 is_stmt 1 view .LVU107
 349:src-gen/Main/core/utils/pqueue.c ****     if (left_pos < 0) {
 396              		.loc 1 349 5 view .LVU108
 397              		.loc 1 349 8 is_stmt 0 view .LVU109
 398 000a 6E00     		lsls	r6, r5, #1
 399              	.LVL37:
 400              		.loc 1 349 8 view .LVU110
 401 000c 1CD4     		bmi	.L27
 402              	.L18:
 350:src-gen/Main/core/utils/pqueue.c ****         lf_print_error_and_exit("subtree_is_valid(): index overflow detected.");
 351:src-gen/Main/core/utils/pqueue.c ****     }
 352:src-gen/Main/core/utils/pqueue.c **** 
 353:src-gen/Main/core/utils/pqueue.c ****     if ((size_t)left_pos < q->size) {
 403              		.loc 1 353 5 is_stmt 1 view .LVU111
 404              		.loc 1 353 29 is_stmt 0 view .LVU112
 405 000e 2368     		ldr	r3, [r4]
 406              		.loc 1 353 8 view .LVU113
 407 0010 B342     		cmp	r3, r6
 408 0012 22D9     		bls	.L19
 354:src-gen/Main/core/utils/pqueue.c ****         /* has a left child */
 355:src-gen/Main/core/utils/pqueue.c ****         if (q->cmppri(q->getpri(q->d[pos]), q->getpri(q->d[LF_LEFT(pos)])))
 409              		.loc 1 355 9 is_stmt 1 view .LVU114
 410              		.loc 1 355 14 is_stmt 0 view .LVU115
 411 0014 D4F80C90 		ldr	r9, [r4, #12]
 412              		.loc 1 355 24 view .LVU116
 413 0018 2369     		ldr	r3, [r4, #16]
 414              		.loc 1 355 34 view .LVU117
 415 001a 626A     		ldr	r2, [r4, #36]
 416              		.loc 1 355 13 view .LVU118
 417 001c 52F82500 		ldr	r0, [r2, r5, lsl #2]
 418 0020 9847     		blx	r3
 419              	.LVL38:
 420 0022 8046     		mov	r8, r0
 421 0024 0F46     		mov	r7, r1
 422              		.loc 1 355 46 view .LVU119
ARM GAS  /var/folders/2h/lww79zv53b510qlyvytqnvq40000gn/T//cc1mYm3y.s 			page 15


 423 0026 2369     		ldr	r3, [r4, #16]
 424              		.loc 1 355 56 view .LVU120
 425 0028 626A     		ldr	r2, [r4, #36]
 426              		.loc 1 355 13 view .LVU121
 427 002a 52F82600 		ldr	r0, [r2, r6, lsl #2]
 428 002e 9847     		blx	r3
 429              	.LVL39:
 430 0030 0246     		mov	r2, r0
 431 0032 0B46     		mov	r3, r1
 432 0034 4046     		mov	r0, r8
 433 0036 3946     		mov	r1, r7
 434 0038 C847     		blx	r9
 435              	.LVL40:
 436              		.loc 1 355 12 view .LVU122
 437 003a 48B1     		cbz	r0, .L28
 356:src-gen/Main/core/utils/pqueue.c ****             return 0;
 438              		.loc 1 356 20 view .LVU123
 439 003c 0020     		movs	r0, #0
 440 003e 34E0     		b	.L16
 441              	.LVL41:
 442              	.L26:
 345:src-gen/Main/core/utils/pqueue.c ****     }
 443              		.loc 1 345 9 is_stmt 1 view .LVU124
 444 0040 1B48     		ldr	r0, .L31
 445              	.LVL42:
 345:src-gen/Main/core/utils/pqueue.c ****     }
 446              		.loc 1 345 9 is_stmt 0 view .LVU125
 447 0042 FFF7FEFF 		bl	lf_print_error_and_exit
 448              	.LVL43:
 345:src-gen/Main/core/utils/pqueue.c ****     }
 449              		.loc 1 345 9 view .LVU126
 450 0046 E0E7     		b	.L17
 451              	.LVL44:
 452              	.L27:
 350:src-gen/Main/core/utils/pqueue.c ****     }
 453              		.loc 1 350 9 is_stmt 1 view .LVU127
 454 0048 1A48     		ldr	r0, .L31+4
 455 004a FFF7FEFF 		bl	lf_print_error_and_exit
 456              	.LVL45:
 457 004e DEE7     		b	.L18
 458              	.L28:
 357:src-gen/Main/core/utils/pqueue.c ****         if (!subtree_is_valid(q, LF_LEFT(pos)))
 459              		.loc 1 357 9 view .LVU128
 460              		.loc 1 357 14 is_stmt 0 view .LVU129
 461 0050 3146     		mov	r1, r6
 462 0052 2046     		mov	r0, r4
 463 0054 FFF7D4FF 		bl	subtree_is_valid
 464              	.LVL46:
 465              		.loc 1 357 12 view .LVU130
 466 0058 38B3     		cbz	r0, .L16
 467              	.L19:
 358:src-gen/Main/core/utils/pqueue.c ****             return 0;
 359:src-gen/Main/core/utils/pqueue.c ****     }
 360:src-gen/Main/core/utils/pqueue.c **** 
 361:src-gen/Main/core/utils/pqueue.c ****     int right_pos = LF_RIGHT(pos);
 468              		.loc 1 361 5 is_stmt 1 view .LVU131
 469              	.LVL47:
ARM GAS  /var/folders/2h/lww79zv53b510qlyvytqnvq40000gn/T//cc1mYm3y.s 			page 16


 362:src-gen/Main/core/utils/pqueue.c ****     if (right_pos < 0) {
 470              		.loc 1 362 5 view .LVU132
 471              		.loc 1 362 8 is_stmt 0 view .LVU133
 472 005a 771C     		adds	r7, r6, #1
 473              	.LVL48:
 474              		.loc 1 362 8 view .LVU134
 475 005c 19D4     		bmi	.L29
 476              	.L21:
 363:src-gen/Main/core/utils/pqueue.c ****         lf_print_error_and_exit("subtree_is_valid(): index overflow detected.");
 364:src-gen/Main/core/utils/pqueue.c ****     }
 365:src-gen/Main/core/utils/pqueue.c ****     if ((size_t)right_pos < q->size) {
 477              		.loc 1 365 5 is_stmt 1 view .LVU135
 478              		.loc 1 365 30 is_stmt 0 view .LVU136
 479 005e 2368     		ldr	r3, [r4]
 480              		.loc 1 365 8 view .LVU137
 481 0060 BB42     		cmp	r3, r7
 482 0062 21D9     		bls	.L23
 366:src-gen/Main/core/utils/pqueue.c ****         /* has a right child */
 367:src-gen/Main/core/utils/pqueue.c ****         if (q->cmppri(q->getpri(q->d[pos]), q->getpri(q->d[LF_RIGHT(pos)])))
 483              		.loc 1 367 9 is_stmt 1 view .LVU138
 484              		.loc 1 367 14 is_stmt 0 view .LVU139
 485 0064 D4F80C90 		ldr	r9, [r4, #12]
 486              		.loc 1 367 24 view .LVU140
 487 0068 2369     		ldr	r3, [r4, #16]
 488              		.loc 1 367 34 view .LVU141
 489 006a 626A     		ldr	r2, [r4, #36]
 490              		.loc 1 367 13 view .LVU142
 491 006c 52F82500 		ldr	r0, [r2, r5, lsl #2]
 492 0070 9847     		blx	r3
 493              	.LVL49:
 494 0072 8046     		mov	r8, r0
 495 0074 0D46     		mov	r5, r1
 496              	.LVL50:
 497              		.loc 1 367 46 view .LVU143
 498 0076 2369     		ldr	r3, [r4, #16]
 499              		.loc 1 367 56 view .LVU144
 500 0078 626A     		ldr	r2, [r4, #36]
 501              		.loc 1 367 59 view .LVU145
 502 007a 0136     		adds	r6, r6, #1
 503              	.LVL51:
 504              		.loc 1 367 13 view .LVU146
 505 007c 52F82600 		ldr	r0, [r2, r6, lsl #2]
 506 0080 9847     		blx	r3
 507              	.LVL52:
 508 0082 0246     		mov	r2, r0
 509 0084 0B46     		mov	r3, r1
 510 0086 4046     		mov	r0, r8
 511 0088 2946     		mov	r1, r5
 512 008a C847     		blx	r9
 513              	.LVL53:
 514              		.loc 1 367 12 view .LVU147
 515 008c 28B1     		cbz	r0, .L30
 368:src-gen/Main/core/utils/pqueue.c ****             return 0;
 516              		.loc 1 368 20 view .LVU148
 517 008e 0020     		movs	r0, #0
 518 0090 0BE0     		b	.L16
 519              	.LVL54:
ARM GAS  /var/folders/2h/lww79zv53b510qlyvytqnvq40000gn/T//cc1mYm3y.s 			page 17


 520              	.L29:
 363:src-gen/Main/core/utils/pqueue.c ****         lf_print_error_and_exit("subtree_is_valid(): index overflow detected.");
 521              		.loc 1 363 9 is_stmt 1 view .LVU149
 522 0092 0848     		ldr	r0, .L31+4
 523 0094 FFF7FEFF 		bl	lf_print_error_and_exit
 524              	.LVL55:
 525 0098 E1E7     		b	.L21
 526              	.LVL56:
 527              	.L30:
 369:src-gen/Main/core/utils/pqueue.c ****         if (!subtree_is_valid(q, LF_RIGHT(pos)))
 528              		.loc 1 369 9 view .LVU150
 529              		.loc 1 369 14 is_stmt 0 view .LVU151
 530 009a 3946     		mov	r1, r7
 531 009c 2046     		mov	r0, r4
 532 009e FFF7AFFF 		bl	subtree_is_valid
 533              	.LVL57:
 534              		.loc 1 369 12 view .LVU152
 535 00a2 10B1     		cbz	r0, .L16
 370:src-gen/Main/core/utils/pqueue.c ****             return 0;
 371:src-gen/Main/core/utils/pqueue.c ****     }
 372:src-gen/Main/core/utils/pqueue.c ****     return 1;
 536              		.loc 1 372 12 view .LVU153
 537 00a4 0120     		movs	r0, #1
 538 00a6 00E0     		b	.L16
 539              	.LVL58:
 540              	.L23:
 541              		.loc 1 372 12 view .LVU154
 542 00a8 0120     		movs	r0, #1
 543              	.LVL59:
 544              	.L16:
 373:src-gen/Main/core/utils/pqueue.c **** }
 545              		.loc 1 373 1 view .LVU155
 546 00aa BDE8F883 		pop	{r3, r4, r5, r6, r7, r8, r9, pc}
 547              	.LVL60:
 548              	.L32:
 549              		.loc 1 373 1 view .LVU156
 550 00ae 00BF     		.align	2
 551              	.L31:
 552 00b0 00000000 		.word	.LC0
 553 00b4 38000000 		.word	.LC1
 554              		.cfi_endproc
 555              	.LFE150:
 557              		.section	.rodata.find_equal.str1.4,"aMS",%progbits,1
 558              		.align	2
 559              	.LC2:
 560 0000 66696E64 		.ascii	"find_equal() called with a negative pos index.\000"
 560      5F657175 
 560      616C2829 
 560      2063616C 
 560      6C656420 
 561              		.section	.text.find_equal,"ax",%progbits
 562              		.align	1
 563              		.global	find_equal
 564              		.syntax unified
 565              		.thumb
 566              		.thumb_func
 568              	find_equal:
ARM GAS  /var/folders/2h/lww79zv53b510qlyvytqnvq40000gn/T//cc1mYm3y.s 			page 18


 569              	.LVL61:
 570              	.LFB133:
  53:src-gen/Main/core/utils/pqueue.c ****     if (pos < 0) {
 571              		.loc 1 53 67 is_stmt 1 view -0
 572              		.cfi_startproc
 573              		@ args = 8, pretend = 0, frame = 0
 574              		@ frame_needed = 0, uses_anonymous_args = 0
  53:src-gen/Main/core/utils/pqueue.c ****     if (pos < 0) {
 575              		.loc 1 53 67 is_stmt 0 view .LVU158
 576 0000 2DE9F041 		push	{r4, r5, r6, r7, r8, lr}
 577              	.LCFI4:
 578              		.cfi_def_cfa_offset 24
 579              		.cfi_offset 4, -24
 580              		.cfi_offset 5, -20
 581              		.cfi_offset 6, -16
 582              		.cfi_offset 7, -12
 583              		.cfi_offset 8, -8
 584              		.cfi_offset 14, -4
 585 0004 82B0     		sub	sp, sp, #8
 586              	.LCFI5:
 587              		.cfi_def_cfa_offset 32
 588 0006 0446     		mov	r4, r0
 589 0008 0F46     		mov	r7, r1
  54:src-gen/Main/core/utils/pqueue.c ****         lf_print_error_and_exit("find_equal() called with a negative pos index.");
 590              		.loc 1 54 5 is_stmt 1 view .LVU159
  54:src-gen/Main/core/utils/pqueue.c ****         lf_print_error_and_exit("find_equal() called with a negative pos index.");
 591              		.loc 1 54 8 is_stmt 0 view .LVU160
 592 000a 161E     		subs	r6, r2, #0
 593 000c 1ADB     		blt	.L41
 594              	.LVL62:
 595              	.L34:
  61:src-gen/Main/core/utils/pqueue.c ****         return NULL;
 596              		.loc 1 61 5 is_stmt 1 view .LVU161
  61:src-gen/Main/core/utils/pqueue.c ****         return NULL;
 597              		.loc 1 61 8 is_stmt 0 view .LVU162
 598 000e 002C     		cmp	r4, #0
 599 0010 36D0     		beq	.L38
  61:src-gen/Main/core/utils/pqueue.c ****         return NULL;
 600              		.loc 1 61 31 discriminator 1 view .LVU163
 601 0012 2368     		ldr	r3, [r4]
  61:src-gen/Main/core/utils/pqueue.c ****         return NULL;
 602              		.loc 1 61 12 discriminator 1 view .LVU164
 603 0014 B342     		cmp	r3, r6
 604 0016 35D9     		bls	.L39
  65:src-gen/Main/core/utils/pqueue.c ****     void* curr = q->d[pos];
 605              		.loc 1 65 5 is_stmt 1 view .LVU165
  66:src-gen/Main/core/utils/pqueue.c **** 
 606              		.loc 1 66 5 view .LVU166
  66:src-gen/Main/core/utils/pqueue.c **** 
 607              		.loc 1 66 19 is_stmt 0 view .LVU167
 608 0018 636A     		ldr	r3, [r4, #36]
  66:src-gen/Main/core/utils/pqueue.c **** 
 609              		.loc 1 66 11 view .LVU168
 610 001a 53F82650 		ldr	r5, [r3, r6, lsl #2]
 611              	.LVL63:
  69:src-gen/Main/core/utils/pqueue.c ****         return NULL;
 612              		.loc 1 69 5 is_stmt 1 view .LVU169
ARM GAS  /var/folders/2h/lww79zv53b510qlyvytqnvq40000gn/T//cc1mYm3y.s 			page 19


  69:src-gen/Main/core/utils/pqueue.c ****         return NULL;
 613              		.loc 1 69 8 is_stmt 0 view .LVU170
 614 001e ADB1     		cbz	r5, .L36
  69:src-gen/Main/core/utils/pqueue.c ****         return NULL;
 615              		.loc 1 69 19 discriminator 1 view .LVU171
 616 0020 D4F80C80 		ldr	r8, [r4, #12]
  69:src-gen/Main/core/utils/pqueue.c ****         return NULL;
 617              		.loc 1 69 29 discriminator 1 view .LVU172
 618 0024 2369     		ldr	r3, [r4, #16]
  69:src-gen/Main/core/utils/pqueue.c ****         return NULL;
 619              		.loc 1 69 18 discriminator 1 view .LVU173
 620 0026 2846     		mov	r0, r5
 621 0028 9847     		blx	r3
 622              	.LVL64:
 623 002a DDE90823 		ldrd	r2, [sp, #32]
 624 002e C047     		blx	r8
 625              	.LVL65:
  69:src-gen/Main/core/utils/pqueue.c ****         return NULL;
 626              		.loc 1 69 15 discriminator 1 view .LVU174
 627 0030 60B9     		cbnz	r0, .L36
  73:src-gen/Main/core/utils/pqueue.c ****         return curr;
 628              		.loc 1 73 5 is_stmt 1 view .LVU175
  73:src-gen/Main/core/utils/pqueue.c ****         return curr;
 629              		.loc 1 73 10 is_stmt 0 view .LVU176
 630 0032 E369     		ldr	r3, [r4, #28]
  73:src-gen/Main/core/utils/pqueue.c ****         return curr;
 631              		.loc 1 73 9 view .LVU177
 632 0034 3946     		mov	r1, r7
 633 0036 2846     		mov	r0, r5
 634 0038 9847     		blx	r3
 635              	.LVL66:
  73:src-gen/Main/core/utils/pqueue.c ****         return curr;
 636              		.loc 1 73 8 view .LVU178
 637 003a 48B1     		cbz	r0, .L42
 638              	.LVL67:
 639              	.L33:
  83:src-gen/Main/core/utils/pqueue.c **** 
 640              		.loc 1 83 1 view .LVU179
 641 003c 2846     		mov	r0, r5
 642 003e 02B0     		add	sp, sp, #8
 643              	.LCFI6:
 644              		.cfi_remember_state
 645              		.cfi_def_cfa_offset 24
 646              		@ sp needed
 647 0040 BDE8F081 		pop	{r4, r5, r6, r7, r8, pc}
 648              	.LVL68:
 649              	.L41:
 650              	.LCFI7:
 651              		.cfi_restore_state
  55:src-gen/Main/core/utils/pqueue.c ****     }
 652              		.loc 1 55 9 is_stmt 1 view .LVU180
 653 0044 1048     		ldr	r0, .L43
 654              	.LVL69:
  55:src-gen/Main/core/utils/pqueue.c ****     }
 655              		.loc 1 55 9 is_stmt 0 view .LVU181
 656 0046 FFF7FEFF 		bl	lf_print_error_and_exit
 657              	.LVL70:
ARM GAS  /var/folders/2h/lww79zv53b510qlyvytqnvq40000gn/T//cc1mYm3y.s 			page 20


  55:src-gen/Main/core/utils/pqueue.c ****     }
 658              		.loc 1 55 9 view .LVU182
 659 004a E0E7     		b	.L34
 660              	.LVL71:
 661              	.L36:
  70:src-gen/Main/core/utils/pqueue.c ****     }
 662              		.loc 1 70 9 is_stmt 1 view .LVU183
  70:src-gen/Main/core/utils/pqueue.c ****     }
 663              		.loc 1 70 16 is_stmt 0 view .LVU184
 664 004c 0025     		movs	r5, #0
 665              	.LVL72:
  70:src-gen/Main/core/utils/pqueue.c ****     }
 666              		.loc 1 70 16 view .LVU185
 667 004e F5E7     		b	.L33
 668              	.LVL73:
 669              	.L42:
  76:src-gen/Main/core/utils/pqueue.c ****         if (rval)
 670              		.loc 1 76 9 is_stmt 1 view .LVU186
  76:src-gen/Main/core/utils/pqueue.c ****         if (rval)
 671              		.loc 1 76 16 is_stmt 0 view .LVU187
 672 0050 7600     		lsls	r6, r6, #1
 673              	.LVL74:
  76:src-gen/Main/core/utils/pqueue.c ****         if (rval)
 674              		.loc 1 76 16 view .LVU188
 675 0052 DDE90823 		ldrd	r2, [sp, #32]
 676 0056 CDE90023 		strd	r2, [sp]
 677 005a 3246     		mov	r2, r6
 678 005c 3946     		mov	r1, r7
 679 005e 2046     		mov	r0, r4
 680 0060 FFF7FEFF 		bl	find_equal
 681              	.LVL75:
  77:src-gen/Main/core/utils/pqueue.c ****             return rval;
 682              		.loc 1 77 9 is_stmt 1 view .LVU189
  77:src-gen/Main/core/utils/pqueue.c ****             return rval;
 683              		.loc 1 77 12 is_stmt 0 view .LVU190
 684 0064 0546     		mov	r5, r0
 685              	.LVL76:
  77:src-gen/Main/core/utils/pqueue.c ****             return rval;
 686              		.loc 1 77 12 view .LVU191
 687 0066 0028     		cmp	r0, #0
 688 0068 E8D1     		bne	.L33
  80:src-gen/Main/core/utils/pqueue.c ****     }
 689              		.loc 1 80 13 is_stmt 1 view .LVU192
  80:src-gen/Main/core/utils/pqueue.c ****     }
 690              		.loc 1 80 20 is_stmt 0 view .LVU193
 691 006a DDE90823 		ldrd	r2, [sp, #32]
 692 006e CDE90023 		strd	r2, [sp]
 693 0072 721C     		adds	r2, r6, #1
 694 0074 3946     		mov	r1, r7
 695 0076 2046     		mov	r0, r4
 696              	.LVL77:
  80:src-gen/Main/core/utils/pqueue.c ****     }
 697              		.loc 1 80 20 view .LVU194
 698 0078 FFF7FEFF 		bl	find_equal
 699              	.LVL78:
 700 007c 0546     		mov	r5, r0
 701              	.LVL79:
ARM GAS  /var/folders/2h/lww79zv53b510qlyvytqnvq40000gn/T//cc1mYm3y.s 			page 21


  80:src-gen/Main/core/utils/pqueue.c ****     }
 702              		.loc 1 80 20 view .LVU195
 703 007e DDE7     		b	.L33
 704              	.LVL80:
 705              	.L38:
  62:src-gen/Main/core/utils/pqueue.c ****     }
 706              		.loc 1 62 16 view .LVU196
 707 0080 2546     		mov	r5, r4
 708 0082 DBE7     		b	.L33
 709              	.L39:
  62:src-gen/Main/core/utils/pqueue.c ****     }
 710              		.loc 1 62 16 view .LVU197
 711 0084 0025     		movs	r5, #0
 712 0086 D9E7     		b	.L33
 713              	.L44:
 714              		.align	2
 715              	.L43:
 716 0088 00000000 		.word	.LC2
 717              		.cfi_endproc
 718              	.LFE133:
 720              		.section	.rodata.find_equal_same_priority.str1.4,"aMS",%progbits,1
 721              		.align	2
 722              	.LC3:
 723 0000 66696E64 		.ascii	"find_equal_same_priority() called with a negative p"
 723      5F657175 
 723      616C5F73 
 723      616D655F 
 723      7072696F 
 724 0033 6F732069 		.ascii	"os index.\000"
 724      6E646578 
 724      2E00
 725              		.section	.text.find_equal_same_priority,"ax",%progbits
 726              		.align	1
 727              		.global	find_equal_same_priority
 728              		.syntax unified
 729              		.thumb
 730              		.thumb_func
 732              	find_equal_same_priority:
 733              	.LVL81:
 734              	.LFB134:
  90:src-gen/Main/core/utils/pqueue.c ****     if (pos < 0) {
 735              		.loc 1 90 63 is_stmt 1 view -0
 736              		.cfi_startproc
 737              		@ args = 0, pretend = 0, frame = 0
 738              		@ frame_needed = 0, uses_anonymous_args = 0
  90:src-gen/Main/core/utils/pqueue.c ****     if (pos < 0) {
 739              		.loc 1 90 63 is_stmt 0 view .LVU199
 740 0000 2DE9F047 		push	{r4, r5, r6, r7, r8, r9, r10, lr}
 741              	.LCFI8:
 742              		.cfi_def_cfa_offset 32
 743              		.cfi_offset 4, -32
 744              		.cfi_offset 5, -28
 745              		.cfi_offset 6, -24
 746              		.cfi_offset 7, -20
 747              		.cfi_offset 8, -16
 748              		.cfi_offset 9, -12
 749              		.cfi_offset 10, -8
ARM GAS  /var/folders/2h/lww79zv53b510qlyvytqnvq40000gn/T//cc1mYm3y.s 			page 22


 750              		.cfi_offset 14, -4
 751 0004 0446     		mov	r4, r0
 752 0006 0F46     		mov	r7, r1
  91:src-gen/Main/core/utils/pqueue.c ****         lf_print_error_and_exit("find_equal_same_priority() called with a negative pos index.");
 753              		.loc 1 91 5 is_stmt 1 view .LVU200
  91:src-gen/Main/core/utils/pqueue.c ****         lf_print_error_and_exit("find_equal_same_priority() called with a negative pos index.");
 754              		.loc 1 91 8 is_stmt 0 view .LVU201
 755 0008 151E     		subs	r5, r2, #0
 756 000a 34DB     		blt	.L54
 757              	.LVL82:
 758              	.L46:
  98:src-gen/Main/core/utils/pqueue.c ****         return NULL;
 759              		.loc 1 98 5 is_stmt 1 view .LVU202
  98:src-gen/Main/core/utils/pqueue.c ****         return NULL;
 760              		.loc 1 98 8 is_stmt 0 view .LVU203
 761 000c 002C     		cmp	r4, #0
 762 000e 3FD0     		beq	.L51
  98:src-gen/Main/core/utils/pqueue.c ****         return NULL;
 763              		.loc 1 98 31 discriminator 1 view .LVU204
 764 0010 2368     		ldr	r3, [r4]
  98:src-gen/Main/core/utils/pqueue.c ****         return NULL;
 765              		.loc 1 98 12 discriminator 1 view .LVU205
 766 0012 AB42     		cmp	r3, r5
 767 0014 3ED9     		bls	.L52
 102:src-gen/Main/core/utils/pqueue.c ****     void* curr = q->d[pos];
 768              		.loc 1 102 5 is_stmt 1 view .LVU206
 103:src-gen/Main/core/utils/pqueue.c **** 
 769              		.loc 1 103 5 view .LVU207
 103:src-gen/Main/core/utils/pqueue.c **** 
 770              		.loc 1 103 19 is_stmt 0 view .LVU208
 771 0016 636A     		ldr	r3, [r4, #36]
 103:src-gen/Main/core/utils/pqueue.c **** 
 772              		.loc 1 103 11 view .LVU209
 773 0018 53F82560 		ldr	r6, [r3, r5, lsl #2]
 774              	.LVL83:
 107:src-gen/Main/core/utils/pqueue.c ****         return NULL;
 775              		.loc 1 107 5 is_stmt 1 view .LVU210
 107:src-gen/Main/core/utils/pqueue.c ****         return NULL;
 776              		.loc 1 107 8 is_stmt 0 view .LVU211
 777 001c 7EB3     		cbz	r6, .L48
 107:src-gen/Main/core/utils/pqueue.c ****         return NULL;
 778              		.loc 1 107 19 discriminator 1 view .LVU212
 779 001e D4F80CA0 		ldr	r10, [r4, #12]
 107:src-gen/Main/core/utils/pqueue.c ****         return NULL;
 780              		.loc 1 107 29 discriminator 1 view .LVU213
 781 0022 2369     		ldr	r3, [r4, #16]
 107:src-gen/Main/core/utils/pqueue.c ****         return NULL;
 782              		.loc 1 107 18 discriminator 1 view .LVU214
 783 0024 3046     		mov	r0, r6
 784 0026 9847     		blx	r3
 785              	.LVL84:
 786 0028 8146     		mov	r9, r0
 787 002a 8846     		mov	r8, r1
 107:src-gen/Main/core/utils/pqueue.c ****         return NULL;
 788              		.loc 1 107 46 discriminator 1 view .LVU215
 789 002c 2369     		ldr	r3, [r4, #16]
 107:src-gen/Main/core/utils/pqueue.c ****         return NULL;
ARM GAS  /var/folders/2h/lww79zv53b510qlyvytqnvq40000gn/T//cc1mYm3y.s 			page 23


 790              		.loc 1 107 18 discriminator 1 view .LVU216
 791 002e 3846     		mov	r0, r7
 792 0030 9847     		blx	r3
 793              	.LVL85:
 794 0032 0246     		mov	r2, r0
 795 0034 0B46     		mov	r3, r1
 796 0036 4846     		mov	r0, r9
 797 0038 4146     		mov	r1, r8
 798 003a D047     		blx	r10
 799              	.LVL86:
 107:src-gen/Main/core/utils/pqueue.c ****         return NULL;
 800              		.loc 1 107 15 discriminator 1 view .LVU217
 801 003c F8B9     		cbnz	r0, .L48
 111:src-gen/Main/core/utils/pqueue.c ****         return curr;
 802              		.loc 1 111 5 is_stmt 1 view .LVU218
 111:src-gen/Main/core/utils/pqueue.c ****         return curr;
 803              		.loc 1 111 10 is_stmt 0 view .LVU219
 804 003e 2369     		ldr	r3, [r4, #16]
 111:src-gen/Main/core/utils/pqueue.c ****         return curr;
 805              		.loc 1 111 9 view .LVU220
 806 0040 3046     		mov	r0, r6
 807 0042 9847     		blx	r3
 808              	.LVL87:
 809 0044 8146     		mov	r9, r0
 810 0046 8846     		mov	r8, r1
 111:src-gen/Main/core/utils/pqueue.c ****         return curr;
 811              		.loc 1 111 29 view .LVU221
 812 0048 2369     		ldr	r3, [r4, #16]
 111:src-gen/Main/core/utils/pqueue.c ****         return curr;
 813              		.loc 1 111 28 view .LVU222
 814 004a 3846     		mov	r0, r7
 815 004c 9847     		blx	r3
 816              	.LVL88:
 111:src-gen/Main/core/utils/pqueue.c ****         return curr;
 817              		.loc 1 111 8 view .LVU223
 818 004e 8845     		cmp	r8, r1
 819 0050 08BF     		it	eq
 820 0052 8145     		cmpeq	r9, r0
 821 0054 04D1     		bne	.L50
 111:src-gen/Main/core/utils/pqueue.c ****         return curr;
 822              		.loc 1 111 45 discriminator 1 view .LVU224
 823 0056 E369     		ldr	r3, [r4, #28]
 111:src-gen/Main/core/utils/pqueue.c ****         return curr;
 824              		.loc 1 111 44 discriminator 1 view .LVU225
 825 0058 3946     		mov	r1, r7
 826 005a 3046     		mov	r0, r6
 827 005c 9847     		blx	r3
 828              	.LVL89:
 111:src-gen/Main/core/utils/pqueue.c ****         return curr;
 829              		.loc 1 111 41 discriminator 1 view .LVU226
 830 005e 38B9     		cbnz	r0, .L45
 831              	.L50:
 114:src-gen/Main/core/utils/pqueue.c ****         if (rval)
 832              		.loc 1 114 9 is_stmt 1 view .LVU227
 114:src-gen/Main/core/utils/pqueue.c ****         if (rval)
 833              		.loc 1 114 16 is_stmt 0 view .LVU228
 834 0060 6D00     		lsls	r5, r5, #1
ARM GAS  /var/folders/2h/lww79zv53b510qlyvytqnvq40000gn/T//cc1mYm3y.s 			page 24


 835              	.LVL90:
 114:src-gen/Main/core/utils/pqueue.c ****         if (rval)
 836              		.loc 1 114 16 view .LVU229
 837 0062 2A46     		mov	r2, r5
 838 0064 3946     		mov	r1, r7
 839 0066 2046     		mov	r0, r4
 840 0068 FFF7FEFF 		bl	find_equal_same_priority
 841              	.LVL91:
 115:src-gen/Main/core/utils/pqueue.c ****             return rval;
 842              		.loc 1 115 9 is_stmt 1 view .LVU230
 115:src-gen/Main/core/utils/pqueue.c ****             return rval;
 843              		.loc 1 115 12 is_stmt 0 view .LVU231
 844 006c 0646     		mov	r6, r0
 845              	.LVL92:
 115:src-gen/Main/core/utils/pqueue.c ****             return rval;
 846              		.loc 1 115 12 view .LVU232
 847 006e 40B1     		cbz	r0, .L55
 848              	.LVL93:
 849              	.L45:
 127:src-gen/Main/core/utils/pqueue.c **** 
 850              		.loc 1 127 1 view .LVU233
 851 0070 3046     		mov	r0, r6
 852 0072 BDE8F087 		pop	{r4, r5, r6, r7, r8, r9, r10, pc}
 853              	.LVL94:
 854              	.L54:
  92:src-gen/Main/core/utils/pqueue.c ****     }
 855              		.loc 1 92 9 is_stmt 1 view .LVU234
 856 0076 0848     		ldr	r0, .L56
 857              	.LVL95:
  92:src-gen/Main/core/utils/pqueue.c ****     }
 858              		.loc 1 92 9 is_stmt 0 view .LVU235
 859 0078 FFF7FEFF 		bl	lf_print_error_and_exit
 860              	.LVL96:
  92:src-gen/Main/core/utils/pqueue.c ****     }
 861              		.loc 1 92 9 view .LVU236
 862 007c C6E7     		b	.L46
 863              	.LVL97:
 864              	.L48:
 108:src-gen/Main/core/utils/pqueue.c ****     }
 865              		.loc 1 108 9 is_stmt 1 view .LVU237
 108:src-gen/Main/core/utils/pqueue.c ****     }
 866              		.loc 1 108 16 is_stmt 0 view .LVU238
 867 007e 0026     		movs	r6, #0
 868              	.LVL98:
 108:src-gen/Main/core/utils/pqueue.c ****     }
 869              		.loc 1 108 16 view .LVU239
 870 0080 F6E7     		b	.L45
 871              	.LVL99:
 872              	.L55:
 118:src-gen/Main/core/utils/pqueue.c ****     }
 873              		.loc 1 118 13 is_stmt 1 view .LVU240
 118:src-gen/Main/core/utils/pqueue.c ****     }
 874              		.loc 1 118 20 is_stmt 0 view .LVU241
 875 0082 6A1C     		adds	r2, r5, #1
 876 0084 3946     		mov	r1, r7
 877 0086 2046     		mov	r0, r4
 878              	.LVL100:
ARM GAS  /var/folders/2h/lww79zv53b510qlyvytqnvq40000gn/T//cc1mYm3y.s 			page 25


 118:src-gen/Main/core/utils/pqueue.c ****     }
 879              		.loc 1 118 20 view .LVU242
 880 0088 FFF7FEFF 		bl	find_equal_same_priority
 881              	.LVL101:
 882 008c 0646     		mov	r6, r0
 883              	.LVL102:
 118:src-gen/Main/core/utils/pqueue.c ****     }
 884              		.loc 1 118 20 view .LVU243
 885 008e EFE7     		b	.L45
 886              	.LVL103:
 887              	.L51:
  99:src-gen/Main/core/utils/pqueue.c ****     }
 888              		.loc 1 99 16 view .LVU244
 889 0090 2646     		mov	r6, r4
 890 0092 EDE7     		b	.L45
 891              	.L52:
  99:src-gen/Main/core/utils/pqueue.c ****     }
 892              		.loc 1 99 16 view .LVU245
 893 0094 0026     		movs	r6, #0
 894 0096 EBE7     		b	.L45
 895              	.L57:
 896              		.align	2
 897              	.L56:
 898 0098 00000000 		.word	.LC3
 899              		.cfi_endproc
 900              	.LFE134:
 902              		.section	.text.pqueue_init,"ax",%progbits
 903              		.align	1
 904              		.global	pqueue_init
 905              		.syntax unified
 906              		.thumb
 907              		.thumb_func
 909              	pqueue_init:
 910              	.LVL104:
 911              	.LFB135:
 135:src-gen/Main/core/utils/pqueue.c ****     pqueue_t *q;
 912              		.loc 1 135 50 is_stmt 1 view -0
 913              		.cfi_startproc
 914              		@ args = 12, pretend = 0, frame = 0
 915              		@ frame_needed = 0, uses_anonymous_args = 0
 135:src-gen/Main/core/utils/pqueue.c ****     pqueue_t *q;
 916              		.loc 1 135 50 is_stmt 0 view .LVU247
 917 0000 2DE9F843 		push	{r3, r4, r5, r6, r7, r8, r9, lr}
 918              	.LCFI9:
 919              		.cfi_def_cfa_offset 32
 920              		.cfi_offset 3, -32
 921              		.cfi_offset 4, -28
 922              		.cfi_offset 5, -24
 923              		.cfi_offset 6, -20
 924              		.cfi_offset 7, -16
 925              		.cfi_offset 8, -12
 926              		.cfi_offset 9, -8
 927              		.cfi_offset 14, -4
 928 0004 0546     		mov	r5, r0
 929 0006 8946     		mov	r9, r1
 930 0008 9046     		mov	r8, r2
 931 000a 1F46     		mov	r7, r3
ARM GAS  /var/folders/2h/lww79zv53b510qlyvytqnvq40000gn/T//cc1mYm3y.s 			page 26


 136:src-gen/Main/core/utils/pqueue.c **** 
 932              		.loc 1 136 5 is_stmt 1 view .LVU248
 138:src-gen/Main/core/utils/pqueue.c ****         return NULL;
 933              		.loc 1 138 5 view .LVU249
 138:src-gen/Main/core/utils/pqueue.c ****         return NULL;
 934              		.loc 1 138 26 is_stmt 0 view .LVU250
 935 000c 2820     		movs	r0, #40
 936              	.LVL105:
 138:src-gen/Main/core/utils/pqueue.c ****         return NULL;
 937              		.loc 1 138 26 view .LVU251
 938 000e FFF7FEFF 		bl	malloc
 939              	.LVL106:
 138:src-gen/Main/core/utils/pqueue.c ****         return NULL;
 940              		.loc 1 138 8 view .LVU252
 941 0012 0446     		mov	r4, r0
 942 0014 A8B1     		cbz	r0, .L58
 142:src-gen/Main/core/utils/pqueue.c ****         free(q);
 943              		.loc 1 142 5 is_stmt 1 view .LVU253
 142:src-gen/Main/core/utils/pqueue.c ****         free(q);
 944              		.loc 1 142 36 is_stmt 0 view .LVU254
 945 0016 0135     		adds	r5, r5, #1
 946              	.LVL107:
 142:src-gen/Main/core/utils/pqueue.c ****         free(q);
 947              		.loc 1 142 26 view .LVU255
 948 0018 A800     		lsls	r0, r5, #2
 949              	.LVL108:
 142:src-gen/Main/core/utils/pqueue.c ****         free(q);
 950              		.loc 1 142 26 view .LVU256
 951 001a FFF7FEFF 		bl	malloc
 952              	.LVL109:
 953 001e 0646     		mov	r6, r0
 142:src-gen/Main/core/utils/pqueue.c ****         free(q);
 954              		.loc 1 142 16 view .LVU257
 955 0020 6062     		str	r0, [r4, #36]
 142:src-gen/Main/core/utils/pqueue.c ****         free(q);
 956              		.loc 1 142 8 view .LVU258
 957 0022 88B1     		cbz	r0, .L62
 147:src-gen/Main/core/utils/pqueue.c ****     q->avail = q->step = (n+1);  /* see comment above about n+1 */
 958              		.loc 1 147 5 is_stmt 1 view .LVU259
 147:src-gen/Main/core/utils/pqueue.c ****     q->avail = q->step = (n+1);  /* see comment above about n+1 */
 959              		.loc 1 147 13 is_stmt 0 view .LVU260
 960 0024 0123     		movs	r3, #1
 961 0026 2360     		str	r3, [r4]
 148:src-gen/Main/core/utils/pqueue.c ****     q->cmppri = cmppri;
 962              		.loc 1 148 5 is_stmt 1 view .LVU261
 148:src-gen/Main/core/utils/pqueue.c ****     q->cmppri = cmppri;
 963              		.loc 1 148 24 is_stmt 0 view .LVU262
 964 0028 A560     		str	r5, [r4, #8]
 148:src-gen/Main/core/utils/pqueue.c ****     q->cmppri = cmppri;
 965              		.loc 1 148 14 view .LVU263
 966 002a 6560     		str	r5, [r4, #4]
 149:src-gen/Main/core/utils/pqueue.c ****     q->getpri = getpri;
 967              		.loc 1 149 5 is_stmt 1 view .LVU264
 149:src-gen/Main/core/utils/pqueue.c ****     q->getpri = getpri;
 968              		.loc 1 149 15 is_stmt 0 view .LVU265
 969 002c C4F80C90 		str	r9, [r4, #12]
 150:src-gen/Main/core/utils/pqueue.c ****     q->getpos = getpos;
ARM GAS  /var/folders/2h/lww79zv53b510qlyvytqnvq40000gn/T//cc1mYm3y.s 			page 27


 970              		.loc 1 150 5 is_stmt 1 view .LVU266
 150:src-gen/Main/core/utils/pqueue.c ****     q->getpos = getpos;
 971              		.loc 1 150 15 is_stmt 0 view .LVU267
 972 0030 C4F81080 		str	r8, [r4, #16]
 151:src-gen/Main/core/utils/pqueue.c ****     q->setpos = setpos;
 973              		.loc 1 151 5 is_stmt 1 view .LVU268
 151:src-gen/Main/core/utils/pqueue.c ****     q->setpos = setpos;
 974              		.loc 1 151 15 is_stmt 0 view .LVU269
 975 0034 6761     		str	r7, [r4, #20]
 152:src-gen/Main/core/utils/pqueue.c ****     q->eqelem = eqelem;
 976              		.loc 1 152 5 is_stmt 1 view .LVU270
 152:src-gen/Main/core/utils/pqueue.c ****     q->eqelem = eqelem;
 977              		.loc 1 152 15 is_stmt 0 view .LVU271
 978 0036 089B     		ldr	r3, [sp, #32]
 979 0038 A361     		str	r3, [r4, #24]
 153:src-gen/Main/core/utils/pqueue.c ****     q->prt = prt;
 980              		.loc 1 153 5 is_stmt 1 view .LVU272
 153:src-gen/Main/core/utils/pqueue.c ****     q->prt = prt;
 981              		.loc 1 153 15 is_stmt 0 view .LVU273
 982 003a 099B     		ldr	r3, [sp, #36]
 983 003c E361     		str	r3, [r4, #28]
 154:src-gen/Main/core/utils/pqueue.c ****     return q;
 984              		.loc 1 154 5 is_stmt 1 view .LVU274
 154:src-gen/Main/core/utils/pqueue.c ****     return q;
 985              		.loc 1 154 12 is_stmt 0 view .LVU275
 986 003e 0A9B     		ldr	r3, [sp, #40]
 987 0040 2362     		str	r3, [r4, #32]
 155:src-gen/Main/core/utils/pqueue.c **** }
 988              		.loc 1 155 5 is_stmt 1 view .LVU276
 989              	.LVL110:
 990              	.L58:
 156:src-gen/Main/core/utils/pqueue.c **** 
 991              		.loc 1 156 1 is_stmt 0 view .LVU277
 992 0042 2046     		mov	r0, r4
 993 0044 BDE8F883 		pop	{r3, r4, r5, r6, r7, r8, r9, pc}
 994              	.LVL111:
 995              	.L62:
 143:src-gen/Main/core/utils/pqueue.c ****         return NULL;
 996              		.loc 1 143 9 is_stmt 1 view .LVU278
 997 0048 2046     		mov	r0, r4
 998 004a FFF7FEFF 		bl	free
 999              	.LVL112:
 144:src-gen/Main/core/utils/pqueue.c ****     }
 1000              		.loc 1 144 9 view .LVU279
 144:src-gen/Main/core/utils/pqueue.c ****     }
 1001              		.loc 1 144 16 is_stmt 0 view .LVU280
 1002 004e 3446     		mov	r4, r6
 1003              	.LVL113:
 144:src-gen/Main/core/utils/pqueue.c ****     }
 1004              		.loc 1 144 16 view .LVU281
 1005 0050 F7E7     		b	.L58
 1006              		.cfi_endproc
 1007              	.LFE135:
 1009              		.section	.text.pqueue_free,"ax",%progbits
 1010              		.align	1
 1011              		.global	pqueue_free
 1012              		.syntax unified
ARM GAS  /var/folders/2h/lww79zv53b510qlyvytqnvq40000gn/T//cc1mYm3y.s 			page 28


 1013              		.thumb
 1014              		.thumb_func
 1016              	pqueue_free:
 1017              	.LVL114:
 1018              	.LFB136:
 158:src-gen/Main/core/utils/pqueue.c ****     free(q->d);
 1019              		.loc 1 158 31 is_stmt 1 view -0
 1020              		.cfi_startproc
 1021              		@ args = 0, pretend = 0, frame = 0
 1022              		@ frame_needed = 0, uses_anonymous_args = 0
 158:src-gen/Main/core/utils/pqueue.c ****     free(q->d);
 1023              		.loc 1 158 31 is_stmt 0 view .LVU283
 1024 0000 10B5     		push	{r4, lr}
 1025              	.LCFI10:
 1026              		.cfi_def_cfa_offset 8
 1027              		.cfi_offset 4, -8
 1028              		.cfi_offset 14, -4
 1029 0002 0446     		mov	r4, r0
 159:src-gen/Main/core/utils/pqueue.c ****     free(q);
 1030              		.loc 1 159 5 is_stmt 1 view .LVU284
 1031 0004 406A     		ldr	r0, [r0, #36]
 1032              	.LVL115:
 159:src-gen/Main/core/utils/pqueue.c ****     free(q);
 1033              		.loc 1 159 5 is_stmt 0 view .LVU285
 1034 0006 FFF7FEFF 		bl	free
 1035              	.LVL116:
 160:src-gen/Main/core/utils/pqueue.c **** }
 1036              		.loc 1 160 5 is_stmt 1 view .LVU286
 1037 000a 2046     		mov	r0, r4
 1038 000c FFF7FEFF 		bl	free
 1039              	.LVL117:
 161:src-gen/Main/core/utils/pqueue.c **** 
 1040              		.loc 1 161 1 is_stmt 0 view .LVU287
 1041 0010 10BD     		pop	{r4, pc}
 161:src-gen/Main/core/utils/pqueue.c **** 
 1042              		.loc 1 161 1 view .LVU288
 1043              		.cfi_endproc
 1044              	.LFE136:
 1046              		.section	.text.pqueue_size,"ax",%progbits
 1047              		.align	1
 1048              		.global	pqueue_size
 1049              		.syntax unified
 1050              		.thumb
 1051              		.thumb_func
 1053              	pqueue_size:
 1054              	.LVL118:
 1055              	.LFB137:
 163:src-gen/Main/core/utils/pqueue.c ****     if (!q) return 0;
 1056              		.loc 1 163 33 is_stmt 1 view -0
 1057              		.cfi_startproc
 1058              		@ args = 0, pretend = 0, frame = 0
 1059              		@ frame_needed = 0, uses_anonymous_args = 0
 1060              		@ link register save eliminated.
 164:src-gen/Main/core/utils/pqueue.c ****     // Queue element 0 exists but doesn't count since it isn't used.
 1061              		.loc 1 164 5 view .LVU290
 164:src-gen/Main/core/utils/pqueue.c ****     // Queue element 0 exists but doesn't count since it isn't used.
 1062              		.loc 1 164 8 is_stmt 0 view .LVU291
ARM GAS  /var/folders/2h/lww79zv53b510qlyvytqnvq40000gn/T//cc1mYm3y.s 			page 29


 1063 0000 10B1     		cbz	r0, .L67
 166:src-gen/Main/core/utils/pqueue.c **** }
 1064              		.loc 1 166 5 is_stmt 1 view .LVU292
 166:src-gen/Main/core/utils/pqueue.c **** }
 1065              		.loc 1 166 14 is_stmt 0 view .LVU293
 1066 0002 0068     		ldr	r0, [r0]
 1067              	.LVL119:
 166:src-gen/Main/core/utils/pqueue.c **** }
 1068              		.loc 1 166 21 view .LVU294
 1069 0004 0138     		subs	r0, r0, #1
 1070 0006 7047     		bx	lr
 1071              	.LVL120:
 1072              	.L67:
 164:src-gen/Main/core/utils/pqueue.c ****     // Queue element 0 exists but doesn't count since it isn't used.
 1073              		.loc 1 164 20 view .LVU295
 1074 0008 0020     		movs	r0, #0
 1075              	.LVL121:
 167:src-gen/Main/core/utils/pqueue.c **** 
 1076              		.loc 1 167 1 view .LVU296
 1077 000a 7047     		bx	lr
 1078              		.cfi_endproc
 1079              	.LFE137:
 1081              		.section	.text.pqueue_find_equal_same_priority,"ax",%progbits
 1082              		.align	1
 1083              		.global	pqueue_find_equal_same_priority
 1084              		.syntax unified
 1085              		.thumb
 1086              		.thumb_func
 1088              	pqueue_find_equal_same_priority:
 1089              	.LVL122:
 1090              	.LFB141:
 217:src-gen/Main/core/utils/pqueue.c ****     return find_equal_same_priority(q, e, 1);
 1091              		.loc 1 217 61 is_stmt 1 view -0
 1092              		.cfi_startproc
 1093              		@ args = 0, pretend = 0, frame = 0
 1094              		@ frame_needed = 0, uses_anonymous_args = 0
 217:src-gen/Main/core/utils/pqueue.c ****     return find_equal_same_priority(q, e, 1);
 1095              		.loc 1 217 61 is_stmt 0 view .LVU298
 1096 0000 08B5     		push	{r3, lr}
 1097              	.LCFI11:
 1098              		.cfi_def_cfa_offset 8
 1099              		.cfi_offset 3, -8
 1100              		.cfi_offset 14, -4
 218:src-gen/Main/core/utils/pqueue.c **** }
 1101              		.loc 1 218 5 is_stmt 1 view .LVU299
 218:src-gen/Main/core/utils/pqueue.c **** }
 1102              		.loc 1 218 12 is_stmt 0 view .LVU300
 1103 0002 0122     		movs	r2, #1
 1104 0004 FFF7FEFF 		bl	find_equal_same_priority
 1105              	.LVL123:
 219:src-gen/Main/core/utils/pqueue.c **** 
 1106              		.loc 1 219 1 view .LVU301
 1107 0008 08BD     		pop	{r3, pc}
 1108              		.cfi_endproc
 1109              	.LFE141:
 1111              		.section	.text.pqueue_find_equal,"ax",%progbits
 1112              		.align	1
ARM GAS  /var/folders/2h/lww79zv53b510qlyvytqnvq40000gn/T//cc1mYm3y.s 			page 30


 1113              		.global	pqueue_find_equal
 1114              		.syntax unified
 1115              		.thumb
 1116              		.thumb_func
 1118              	pqueue_find_equal:
 1119              	.LVL124:
 1120              	.LFB142:
 221:src-gen/Main/core/utils/pqueue.c ****     return find_equal(q, e, 1, max);
 1121              		.loc 1 221 65 is_stmt 1 view -0
 1122              		.cfi_startproc
 1123              		@ args = 0, pretend = 0, frame = 0
 1124              		@ frame_needed = 0, uses_anonymous_args = 0
 221:src-gen/Main/core/utils/pqueue.c ****     return find_equal(q, e, 1, max);
 1125              		.loc 1 221 65 is_stmt 0 view .LVU303
 1126 0000 00B5     		push	{lr}
 1127              	.LCFI12:
 1128              		.cfi_def_cfa_offset 4
 1129              		.cfi_offset 14, -4
 1130 0002 83B0     		sub	sp, sp, #12
 1131              	.LCFI13:
 1132              		.cfi_def_cfa_offset 16
 222:src-gen/Main/core/utils/pqueue.c **** }
 1133              		.loc 1 222 5 is_stmt 1 view .LVU304
 222:src-gen/Main/core/utils/pqueue.c **** }
 1134              		.loc 1 222 12 is_stmt 0 view .LVU305
 1135 0004 CDE90023 		strd	r2, [sp]
 1136 0008 0122     		movs	r2, #1
 1137              	.LVL125:
 222:src-gen/Main/core/utils/pqueue.c **** }
 1138              		.loc 1 222 12 view .LVU306
 1139 000a FFF7FEFF 		bl	find_equal
 1140              	.LVL126:
 223:src-gen/Main/core/utils/pqueue.c **** 
 1141              		.loc 1 223 1 view .LVU307
 1142 000e 03B0     		add	sp, sp, #12
 1143              	.LCFI14:
 1144              		.cfi_def_cfa_offset 4
 1145              		@ sp needed
 1146 0010 5DF804FB 		ldr	pc, [sp], #4
 1147              		.cfi_endproc
 1148              	.LFE142:
 1150              		.section	.text.pqueue_insert,"ax",%progbits
 1151              		.align	1
 1152              		.global	pqueue_insert
 1153              		.syntax unified
 1154              		.thumb
 1155              		.thumb_func
 1157              	pqueue_insert:
 1158              	.LVL127:
 1159              	.LFB143:
 225:src-gen/Main/core/utils/pqueue.c ****     void **tmp;
 1160              		.loc 1 225 41 is_stmt 1 view -0
 1161              		.cfi_startproc
 1162              		@ args = 0, pretend = 0, frame = 0
 1163              		@ frame_needed = 0, uses_anonymous_args = 0
 226:src-gen/Main/core/utils/pqueue.c ****     size_t i;
 1164              		.loc 1 226 5 view .LVU309
ARM GAS  /var/folders/2h/lww79zv53b510qlyvytqnvq40000gn/T//cc1mYm3y.s 			page 31


 227:src-gen/Main/core/utils/pqueue.c ****     size_t newsize;
 1165              		.loc 1 227 5 view .LVU310
 228:src-gen/Main/core/utils/pqueue.c **** 
 1166              		.loc 1 228 5 view .LVU311
 230:src-gen/Main/core/utils/pqueue.c **** 
 1167              		.loc 1 230 5 view .LVU312
 230:src-gen/Main/core/utils/pqueue.c **** 
 1168              		.loc 1 230 8 is_stmt 0 view .LVU313
 1169 0000 D0B1     		cbz	r0, .L75
 225:src-gen/Main/core/utils/pqueue.c ****     void **tmp;
 1170              		.loc 1 225 41 view .LVU314
 1171 0002 70B5     		push	{r4, r5, r6, lr}
 1172              	.LCFI15:
 1173              		.cfi_def_cfa_offset 16
 1174              		.cfi_offset 4, -16
 1175              		.cfi_offset 5, -12
 1176              		.cfi_offset 6, -8
 1177              		.cfi_offset 14, -4
 1178 0004 0E46     		mov	r6, r1
 1179 0006 0446     		mov	r4, r0
 233:src-gen/Main/core/utils/pqueue.c ****         newsize = q->size + q->step;
 1180              		.loc 1 233 5 is_stmt 1 view .LVU315
 233:src-gen/Main/core/utils/pqueue.c ****         newsize = q->size + q->step;
 1181              		.loc 1 233 10 is_stmt 0 view .LVU316
 1182 0008 0568     		ldr	r5, [r0]
 233:src-gen/Main/core/utils/pqueue.c ****         newsize = q->size + q->step;
 1183              		.loc 1 233 21 view .LVU317
 1184 000a 4268     		ldr	r2, [r0, #4]
 233:src-gen/Main/core/utils/pqueue.c ****         newsize = q->size + q->step;
 1185              		.loc 1 233 8 view .LVU318
 1186 000c 9542     		cmp	r5, r2
 1187 000e 08D3     		bcc	.L74
 234:src-gen/Main/core/utils/pqueue.c ****         if (!(tmp = (void**)realloc(q->d, sizeof(void *) * newsize)))
 1188              		.loc 1 234 9 is_stmt 1 view .LVU319
 234:src-gen/Main/core/utils/pqueue.c ****         if (!(tmp = (void**)realloc(q->d, sizeof(void *) * newsize)))
 1189              		.loc 1 234 30 is_stmt 0 view .LVU320
 1190 0010 8268     		ldr	r2, [r0, #8]
 234:src-gen/Main/core/utils/pqueue.c ****         if (!(tmp = (void**)realloc(q->d, sizeof(void *) * newsize)))
 1191              		.loc 1 234 17 view .LVU321
 1192 0012 1544     		add	r5, r5, r2
 1193              	.LVL128:
 235:src-gen/Main/core/utils/pqueue.c ****             return 1;
 1194              		.loc 1 235 9 is_stmt 1 view .LVU322
 235:src-gen/Main/core/utils/pqueue.c ****             return 1;
 1195              		.loc 1 235 29 is_stmt 0 view .LVU323
 1196 0014 A900     		lsls	r1, r5, #2
 1197              	.LVL129:
 235:src-gen/Main/core/utils/pqueue.c ****             return 1;
 1198              		.loc 1 235 29 view .LVU324
 1199 0016 406A     		ldr	r0, [r0, #36]
 1200              	.LVL130:
 235:src-gen/Main/core/utils/pqueue.c ****             return 1;
 1201              		.loc 1 235 29 view .LVU325
 1202 0018 FFF7FEFF 		bl	realloc
 1203              	.LVL131:
 235:src-gen/Main/core/utils/pqueue.c ****             return 1;
 1204              		.loc 1 235 12 view .LVU326
ARM GAS  /var/folders/2h/lww79zv53b510qlyvytqnvq40000gn/T//cc1mYm3y.s 			page 32


 1205 001c 70B1     		cbz	r0, .L76
 237:src-gen/Main/core/utils/pqueue.c ****         q->avail = newsize;
 1206              		.loc 1 237 9 is_stmt 1 view .LVU327
 237:src-gen/Main/core/utils/pqueue.c ****         q->avail = newsize;
 1207              		.loc 1 237 14 is_stmt 0 view .LVU328
 1208 001e 6062     		str	r0, [r4, #36]
 238:src-gen/Main/core/utils/pqueue.c ****     }
 1209              		.loc 1 238 9 is_stmt 1 view .LVU329
 238:src-gen/Main/core/utils/pqueue.c ****     }
 1210              		.loc 1 238 18 is_stmt 0 view .LVU330
 1211 0020 6560     		str	r5, [r4, #4]
 1212              	.LVL132:
 1213              	.L74:
 241:src-gen/Main/core/utils/pqueue.c ****     q->d[i] = d;
 1214              		.loc 1 241 5 is_stmt 1 view .LVU331
 241:src-gen/Main/core/utils/pqueue.c ****     q->d[i] = d;
 1215              		.loc 1 241 10 is_stmt 0 view .LVU332
 1216 0022 2168     		ldr	r1, [r4]
 241:src-gen/Main/core/utils/pqueue.c ****     q->d[i] = d;
 1217              		.loc 1 241 16 view .LVU333
 1218 0024 4B1C     		adds	r3, r1, #1
 1219 0026 2360     		str	r3, [r4]
 1220              	.LVL133:
 242:src-gen/Main/core/utils/pqueue.c ****     bubble_up(q, i);
 1221              		.loc 1 242 5 is_stmt 1 view .LVU334
 242:src-gen/Main/core/utils/pqueue.c ****     bubble_up(q, i);
 1222              		.loc 1 242 6 is_stmt 0 view .LVU335
 1223 0028 636A     		ldr	r3, [r4, #36]
 242:src-gen/Main/core/utils/pqueue.c ****     bubble_up(q, i);
 1224              		.loc 1 242 13 view .LVU336
 1225 002a 43F82160 		str	r6, [r3, r1, lsl #2]
 243:src-gen/Main/core/utils/pqueue.c **** 
 1226              		.loc 1 243 5 is_stmt 1 view .LVU337
 1227 002e 2046     		mov	r0, r4
 1228 0030 FFF7FEFF 		bl	bubble_up
 1229              	.LVL134:
 245:src-gen/Main/core/utils/pqueue.c **** }
 1230              		.loc 1 245 5 view .LVU338
 245:src-gen/Main/core/utils/pqueue.c **** }
 1231              		.loc 1 245 12 is_stmt 0 view .LVU339
 1232 0034 0020     		movs	r0, #0
 1233              	.LVL135:
 1234              	.L72:
 246:src-gen/Main/core/utils/pqueue.c **** 
 1235              		.loc 1 246 1 view .LVU340
 1236 0036 70BD     		pop	{r4, r5, r6, pc}
 1237              	.LVL136:
 1238              	.L75:
 1239              	.LCFI16:
 1240              		.cfi_def_cfa_offset 0
 1241              		.cfi_restore 4
 1242              		.cfi_restore 5
 1243              		.cfi_restore 6
 1244              		.cfi_restore 14
 230:src-gen/Main/core/utils/pqueue.c **** 
 1245              		.loc 1 230 20 view .LVU341
 1246 0038 0120     		movs	r0, #1
ARM GAS  /var/folders/2h/lww79zv53b510qlyvytqnvq40000gn/T//cc1mYm3y.s 			page 33


 1247              	.LVL137:
 246:src-gen/Main/core/utils/pqueue.c **** 
 1248              		.loc 1 246 1 view .LVU342
 1249 003a 7047     		bx	lr
 1250              	.LVL138:
 1251              	.L76:
 1252              	.LCFI17:
 1253              		.cfi_def_cfa_offset 16
 1254              		.cfi_offset 4, -16
 1255              		.cfi_offset 5, -12
 1256              		.cfi_offset 6, -8
 1257              		.cfi_offset 14, -4
 236:src-gen/Main/core/utils/pqueue.c ****         q->d = tmp;
 1258              		.loc 1 236 20 view .LVU343
 1259 003c 0120     		movs	r0, #1
 1260              	.LVL139:
 236:src-gen/Main/core/utils/pqueue.c ****         q->d = tmp;
 1261              		.loc 1 236 20 view .LVU344
 1262 003e FAE7     		b	.L72
 1263              		.cfi_endproc
 1264              	.LFE143:
 1266              		.section	.text.pqueue_remove,"ax",%progbits
 1267              		.align	1
 1268              		.global	pqueue_remove
 1269              		.syntax unified
 1270              		.thumb
 1271              		.thumb_func
 1273              	pqueue_remove:
 1274              	.LVL140:
 1275              	.LFB144:
 248:src-gen/Main/core/utils/pqueue.c ****     if (q->size == 1) return 0; // Nothing to remove
 1276              		.loc 1 248 41 is_stmt 1 view -0
 1277              		.cfi_startproc
 1278              		@ args = 0, pretend = 0, frame = 0
 1279              		@ frame_needed = 0, uses_anonymous_args = 0
 249:src-gen/Main/core/utils/pqueue.c ****     size_t posn = q->getpos(d);
 1280              		.loc 1 249 5 view .LVU346
 249:src-gen/Main/core/utils/pqueue.c ****     size_t posn = q->getpos(d);
 1281              		.loc 1 249 10 is_stmt 0 view .LVU347
 1282 0000 0368     		ldr	r3, [r0]
 249:src-gen/Main/core/utils/pqueue.c ****     size_t posn = q->getpos(d);
 1283              		.loc 1 249 8 view .LVU348
 1284 0002 012B     		cmp	r3, #1
 1285 0004 2DD0     		beq	.L85
 248:src-gen/Main/core/utils/pqueue.c ****     if (q->size == 1) return 0; // Nothing to remove
 1286              		.loc 1 248 41 view .LVU349
 1287 0006 2DE9F041 		push	{r4, r5, r6, r7, r8, lr}
 1288              	.LCFI18:
 1289              		.cfi_def_cfa_offset 24
 1290              		.cfi_offset 4, -24
 1291              		.cfi_offset 5, -20
 1292              		.cfi_offset 6, -16
 1293              		.cfi_offset 7, -12
 1294              		.cfi_offset 8, -8
 1295              		.cfi_offset 14, -4
 1296 000a 0446     		mov	r4, r0
 1297 000c 0E46     		mov	r6, r1
ARM GAS  /var/folders/2h/lww79zv53b510qlyvytqnvq40000gn/T//cc1mYm3y.s 			page 34


 250:src-gen/Main/core/utils/pqueue.c ****     q->d[posn] = q->d[--q->size];
 1298              		.loc 1 250 5 is_stmt 1 view .LVU350
 250:src-gen/Main/core/utils/pqueue.c ****     q->d[posn] = q->d[--q->size];
 1299              		.loc 1 250 20 is_stmt 0 view .LVU351
 1300 000e 4369     		ldr	r3, [r0, #20]
 250:src-gen/Main/core/utils/pqueue.c ****     q->d[posn] = q->d[--q->size];
 1301              		.loc 1 250 19 view .LVU352
 1302 0010 0846     		mov	r0, r1
 1303              	.LVL141:
 250:src-gen/Main/core/utils/pqueue.c ****     q->d[posn] = q->d[--q->size];
 1304              		.loc 1 250 19 view .LVU353
 1305 0012 9847     		blx	r3
 1306              	.LVL142:
 250:src-gen/Main/core/utils/pqueue.c ****     q->d[posn] = q->d[--q->size];
 1307              		.loc 1 250 19 view .LVU354
 1308 0014 0546     		mov	r5, r0
 1309              	.LVL143:
 251:src-gen/Main/core/utils/pqueue.c ****     if (q->cmppri(q->getpri(d), q->getpri(q->d[posn])))
 1310              		.loc 1 251 5 is_stmt 1 view .LVU355
 251:src-gen/Main/core/utils/pqueue.c ****     if (q->cmppri(q->getpri(d), q->getpri(q->d[posn])))
 1311              		.loc 1 251 19 is_stmt 0 view .LVU356
 1312 0016 626A     		ldr	r2, [r4, #36]
 251:src-gen/Main/core/utils/pqueue.c ****     if (q->cmppri(q->getpri(d), q->getpri(q->d[posn])))
 1313              		.loc 1 251 26 view .LVU357
 1314 0018 2368     		ldr	r3, [r4]
 251:src-gen/Main/core/utils/pqueue.c ****     if (q->cmppri(q->getpri(d), q->getpri(q->d[posn])))
 1315              		.loc 1 251 23 view .LVU358
 1316 001a 013B     		subs	r3, r3, #1
 251:src-gen/Main/core/utils/pqueue.c ****     if (q->cmppri(q->getpri(d), q->getpri(q->d[posn])))
 1317              		.loc 1 251 16 view .LVU359
 1318 001c 2360     		str	r3, [r4]
 251:src-gen/Main/core/utils/pqueue.c ****     if (q->cmppri(q->getpri(d), q->getpri(q->d[posn])))
 1319              		.loc 1 251 22 view .LVU360
 1320 001e 52F82330 		ldr	r3, [r2, r3, lsl #2]
 251:src-gen/Main/core/utils/pqueue.c ****     if (q->cmppri(q->getpri(d), q->getpri(q->d[posn])))
 1321              		.loc 1 251 16 view .LVU361
 1322 0022 42F82030 		str	r3, [r2, r0, lsl #2]
 252:src-gen/Main/core/utils/pqueue.c ****         bubble_up(q, posn);
 1323              		.loc 1 252 5 is_stmt 1 view .LVU362
 252:src-gen/Main/core/utils/pqueue.c ****         bubble_up(q, posn);
 1324              		.loc 1 252 10 is_stmt 0 view .LVU363
 1325 0026 D4F80C80 		ldr	r8, [r4, #12]
 252:src-gen/Main/core/utils/pqueue.c ****         bubble_up(q, posn);
 1326              		.loc 1 252 20 view .LVU364
 1327 002a 2369     		ldr	r3, [r4, #16]
 252:src-gen/Main/core/utils/pqueue.c ****         bubble_up(q, posn);
 1328              		.loc 1 252 9 view .LVU365
 1329 002c 3046     		mov	r0, r6
 1330              	.LVL144:
 252:src-gen/Main/core/utils/pqueue.c ****         bubble_up(q, posn);
 1331              		.loc 1 252 9 view .LVU366
 1332 002e 9847     		blx	r3
 1333              	.LVL145:
 1334 0030 0746     		mov	r7, r0
 1335 0032 0E46     		mov	r6, r1
 1336              	.LVL146:
 252:src-gen/Main/core/utils/pqueue.c ****         bubble_up(q, posn);
ARM GAS  /var/folders/2h/lww79zv53b510qlyvytqnvq40000gn/T//cc1mYm3y.s 			page 35


 1337              		.loc 1 252 34 view .LVU367
 1338 0034 2369     		ldr	r3, [r4, #16]
 252:src-gen/Main/core/utils/pqueue.c ****         bubble_up(q, posn);
 1339              		.loc 1 252 44 view .LVU368
 1340 0036 626A     		ldr	r2, [r4, #36]
 252:src-gen/Main/core/utils/pqueue.c ****         bubble_up(q, posn);
 1341              		.loc 1 252 9 view .LVU369
 1342 0038 52F82500 		ldr	r0, [r2, r5, lsl #2]
 1343 003c 9847     		blx	r3
 1344              	.LVL147:
 1345 003e 0246     		mov	r2, r0
 1346 0040 0B46     		mov	r3, r1
 1347 0042 3846     		mov	r0, r7
 1348 0044 3146     		mov	r1, r6
 1349 0046 C047     		blx	r8
 1350              	.LVL148:
 252:src-gen/Main/core/utils/pqueue.c ****         bubble_up(q, posn);
 1351              		.loc 1 252 8 view .LVU370
 1352 0048 30B1     		cbz	r0, .L83
 253:src-gen/Main/core/utils/pqueue.c ****     else
 1353              		.loc 1 253 9 is_stmt 1 view .LVU371
 1354 004a 2946     		mov	r1, r5
 1355 004c 2046     		mov	r0, r4
 1356 004e FFF7FEFF 		bl	bubble_up
 1357              	.LVL149:
 1358              	.L82:
 258:src-gen/Main/core/utils/pqueue.c **** 
 1359              		.loc 1 258 1 is_stmt 0 view .LVU372
 1360 0052 0020     		movs	r0, #0
 1361 0054 BDE8F081 		pop	{r4, r5, r6, r7, r8, pc}
 1362              	.LVL150:
 1363              	.L83:
 255:src-gen/Main/core/utils/pqueue.c **** 
 1364              		.loc 1 255 9 is_stmt 1 view .LVU373
 1365 0058 2946     		mov	r1, r5
 1366 005a 2046     		mov	r0, r4
 1367 005c FFF7FEFF 		bl	percolate_down
 1368              	.LVL151:
 1369 0060 F7E7     		b	.L82
 1370              	.LVL152:
 1371              	.L85:
 1372              	.LCFI19:
 1373              		.cfi_def_cfa_offset 0
 1374              		.cfi_restore 4
 1375              		.cfi_restore 5
 1376              		.cfi_restore 6
 1377              		.cfi_restore 7
 1378              		.cfi_restore 8
 1379              		.cfi_restore 14
 258:src-gen/Main/core/utils/pqueue.c **** 
 1380              		.loc 1 258 1 is_stmt 0 view .LVU374
 1381 0062 0020     		movs	r0, #0
 1382              	.LVL153:
 258:src-gen/Main/core/utils/pqueue.c **** 
 1383              		.loc 1 258 1 view .LVU375
 1384 0064 7047     		bx	lr
 1385              		.cfi_endproc
ARM GAS  /var/folders/2h/lww79zv53b510qlyvytqnvq40000gn/T//cc1mYm3y.s 			page 36


 1386              	.LFE144:
 1388              		.section	.text.pqueue_pop,"ax",%progbits
 1389              		.align	1
 1390              		.global	pqueue_pop
 1391              		.syntax unified
 1392              		.thumb
 1393              		.thumb_func
 1395              	pqueue_pop:
 1396              	.LVL154:
 1397              	.LFB145:
 260:src-gen/Main/core/utils/pqueue.c ****     if (!q || q->size == 1)
 1398              		.loc 1 260 31 is_stmt 1 view -0
 1399              		.cfi_startproc
 1400              		@ args = 0, pretend = 0, frame = 0
 1401              		@ frame_needed = 0, uses_anonymous_args = 0
 260:src-gen/Main/core/utils/pqueue.c ****     if (!q || q->size == 1)
 1402              		.loc 1 260 31 is_stmt 0 view .LVU377
 1403 0000 10B5     		push	{r4, lr}
 1404              	.LCFI20:
 1405              		.cfi_def_cfa_offset 8
 1406              		.cfi_offset 4, -8
 1407              		.cfi_offset 14, -4
 261:src-gen/Main/core/utils/pqueue.c ****         return NULL;
 1408              		.loc 1 261 5 is_stmt 1 view .LVU378
 261:src-gen/Main/core/utils/pqueue.c ****         return NULL;
 1409              		.loc 1 261 8 is_stmt 0 view .LVU379
 1410 0002 70B1     		cbz	r0, .L90
 261:src-gen/Main/core/utils/pqueue.c ****         return NULL;
 1411              		.loc 1 261 16 discriminator 1 view .LVU380
 1412 0004 0368     		ldr	r3, [r0]
 261:src-gen/Main/core/utils/pqueue.c ****         return NULL;
 1413              		.loc 1 261 12 discriminator 1 view .LVU381
 1414 0006 012B     		cmp	r3, #1
 1415 0008 0DD0     		beq	.L91
 264:src-gen/Main/core/utils/pqueue.c **** 
 1416              		.loc 1 264 5 is_stmt 1 view .LVU382
 266:src-gen/Main/core/utils/pqueue.c ****     q->d[1] = q->d[--q->size];
 1417              		.loc 1 266 5 view .LVU383
 266:src-gen/Main/core/utils/pqueue.c ****     q->d[1] = q->d[--q->size];
 1418              		.loc 1 266 13 is_stmt 0 view .LVU384
 1419 000a 416A     		ldr	r1, [r0, #36]
 266:src-gen/Main/core/utils/pqueue.c ****     q->d[1] = q->d[--q->size];
 1420              		.loc 1 266 10 view .LVU385
 1421 000c 4C68     		ldr	r4, [r1, #4]
 1422              	.LVL155:
 267:src-gen/Main/core/utils/pqueue.c ****     percolate_down(q, 1);
 1423              		.loc 1 267 5 is_stmt 1 view .LVU386
 267:src-gen/Main/core/utils/pqueue.c ****     percolate_down(q, 1);
 1424              		.loc 1 267 20 is_stmt 0 view .LVU387
 1425 000e 013B     		subs	r3, r3, #1
 267:src-gen/Main/core/utils/pqueue.c ****     percolate_down(q, 1);
 1426              		.loc 1 267 13 view .LVU388
 1427 0010 0360     		str	r3, [r0]
 267:src-gen/Main/core/utils/pqueue.c ****     percolate_down(q, 1);
 1428              		.loc 1 267 19 view .LVU389
 1429 0012 51F82330 		ldr	r3, [r1, r3, lsl #2]
 267:src-gen/Main/core/utils/pqueue.c ****     percolate_down(q, 1);
ARM GAS  /var/folders/2h/lww79zv53b510qlyvytqnvq40000gn/T//cc1mYm3y.s 			page 37


 1430              		.loc 1 267 13 view .LVU390
 1431 0016 4B60     		str	r3, [r1, #4]
 268:src-gen/Main/core/utils/pqueue.c **** 
 1432              		.loc 1 268 5 is_stmt 1 view .LVU391
 1433 0018 0121     		movs	r1, #1
 1434 001a FFF7FEFF 		bl	percolate_down
 1435              	.LVL156:
 270:src-gen/Main/core/utils/pqueue.c **** }
 1436              		.loc 1 270 5 view .LVU392
 1437              	.L88:
 271:src-gen/Main/core/utils/pqueue.c **** 
 1438              		.loc 1 271 1 is_stmt 0 view .LVU393
 1439 001e 2046     		mov	r0, r4
 1440 0020 10BD     		pop	{r4, pc}
 1441              	.LVL157:
 1442              	.L90:
 262:src-gen/Main/core/utils/pqueue.c **** 
 1443              		.loc 1 262 16 view .LVU394
 1444 0022 0446     		mov	r4, r0
 1445 0024 FBE7     		b	.L88
 1446              	.L91:
 262:src-gen/Main/core/utils/pqueue.c **** 
 1447              		.loc 1 262 16 view .LVU395
 1448 0026 0024     		movs	r4, #0
 1449 0028 F9E7     		b	.L88
 1450              		.cfi_endproc
 1451              	.LFE145:
 1453              		.section	.rodata.pqueue_empty_into.str1.4,"aMS",%progbits,1
 1454              		.align	2
 1455              	.LC4:
 1456 0000 73726300 		.ascii	"src\000"
 1457              		.align	2
 1458              	.LC5:
 1459 0004 7372632D 		.ascii	"src-gen/Main/core/utils/pqueue.c\000"
 1459      67656E2F 
 1459      4D61696E 
 1459      2F636F72 
 1459      652F7574 
 1460 0025 000000   		.align	2
 1461              	.LC6:
 1462 0028 64657374 		.ascii	"dest\000"
 1462      00
 1463 002d 000000   		.align	2
 1464              	.LC7:
 1465 0030 2A737263 		.ascii	"*src\000"
 1465      00
 1466 0035 000000   		.align	2
 1467              	.LC8:
 1468 0038 2A646573 		.ascii	"*dest\000"
 1468      7400
 1469              		.section	.text.pqueue_empty_into,"ax",%progbits
 1470              		.align	1
 1471              		.global	pqueue_empty_into
 1472              		.syntax unified
 1473              		.thumb
 1474              		.thumb_func
 1476              	pqueue_empty_into:
ARM GAS  /var/folders/2h/lww79zv53b510qlyvytqnvq40000gn/T//cc1mYm3y.s 			page 38


 1477              	.LVL158:
 1478              	.LFB146:
 281:src-gen/Main/core/utils/pqueue.c ****     assert(src);
 1479              		.loc 1 281 57 is_stmt 1 view -0
 1480              		.cfi_startproc
 1481              		@ args = 0, pretend = 0, frame = 0
 1482              		@ frame_needed = 0, uses_anonymous_args = 0
 281:src-gen/Main/core/utils/pqueue.c ****     assert(src);
 1483              		.loc 1 281 57 is_stmt 0 view .LVU397
 1484 0000 38B5     		push	{r3, r4, r5, lr}
 1485              	.LCFI21:
 1486              		.cfi_def_cfa_offset 16
 1487              		.cfi_offset 3, -16
 1488              		.cfi_offset 4, -12
 1489              		.cfi_offset 5, -8
 1490              		.cfi_offset 14, -4
 282:src-gen/Main/core/utils/pqueue.c ****     assert(dest);
 1491              		.loc 1 282 5 is_stmt 1 view .LVU398
 1492 0002 59B1     		cbz	r1, .L104
 1493 0004 0446     		mov	r4, r0
 1494 0006 0D46     		mov	r5, r1
 283:src-gen/Main/core/utils/pqueue.c ****     assert(*src);
 1495              		.loc 1 283 5 view .LVU399
 1496 0008 78B1     		cbz	r0, .L105
 284:src-gen/Main/core/utils/pqueue.c ****     assert(*dest);
 1497              		.loc 1 284 5 view .LVU400
 1498 000a 0B68     		ldr	r3, [r1]
 1499 000c A3B1     		cbz	r3, .L106
 285:src-gen/Main/core/utils/pqueue.c ****     void* item;
 1500              		.loc 1 285 5 view .LVU401
 1501 000e 0268     		ldr	r2, [r0]
 1502 0010 CAB1     		cbz	r2, .L107
 286:src-gen/Main/core/utils/pqueue.c ****     if ((*dest)->size >= (*src)->size) {
 1503              		.loc 1 286 5 view .LVU402
 287:src-gen/Main/core/utils/pqueue.c ****         while ((item = pqueue_pop(*src))) {
 1504              		.loc 1 287 5 view .LVU403
 287:src-gen/Main/core/utils/pqueue.c ****         while ((item = pqueue_pop(*src))) {
 1505              		.loc 1 287 16 is_stmt 0 view .LVU404
 1506 0012 1268     		ldr	r2, [r2]
 287:src-gen/Main/core/utils/pqueue.c ****         while ((item = pqueue_pop(*src))) {
 1507              		.loc 1 287 32 view .LVU405
 1508 0014 1B68     		ldr	r3, [r3]
 287:src-gen/Main/core/utils/pqueue.c ****         while ((item = pqueue_pop(*src))) {
 1509              		.loc 1 287 8 view .LVU406
 1510 0016 9A42     		cmp	r2, r3
 1511 0018 1FD2     		bcs	.L98
 1512 001a 28E0     		b	.L99
 1513              	.L104:
 282:src-gen/Main/core/utils/pqueue.c ****     assert(dest);
 1514              		.loc 1 282 5 discriminator 1 view .LVU407
 1515 001c 194B     		ldr	r3, .L108
 1516 001e 1A4A     		ldr	r2, .L108+4
 1517 0020 4FF48D71 		mov	r1, #282
 1518              	.LVL159:
 282:src-gen/Main/core/utils/pqueue.c ****     assert(dest);
 1519              		.loc 1 282 5 discriminator 1 view .LVU408
 1520 0024 1948     		ldr	r0, .L108+8
ARM GAS  /var/folders/2h/lww79zv53b510qlyvytqnvq40000gn/T//cc1mYm3y.s 			page 39


 1521              	.LVL160:
 282:src-gen/Main/core/utils/pqueue.c ****     assert(dest);
 1522              		.loc 1 282 5 discriminator 1 view .LVU409
 1523 0026 FFF7FEFF 		bl	__assert_func
 1524              	.LVL161:
 1525              	.L105:
 283:src-gen/Main/core/utils/pqueue.c ****     assert(*src);
 1526              		.loc 1 283 5 discriminator 1 view .LVU410
 1527 002a 194B     		ldr	r3, .L108+12
 1528 002c 164A     		ldr	r2, .L108+4
 1529 002e 40F21B11 		movw	r1, #283
 1530              	.LVL162:
 283:src-gen/Main/core/utils/pqueue.c ****     assert(*src);
 1531              		.loc 1 283 5 discriminator 1 view .LVU411
 1532 0032 1648     		ldr	r0, .L108+8
 1533              	.LVL163:
 283:src-gen/Main/core/utils/pqueue.c ****     assert(*src);
 1534              		.loc 1 283 5 discriminator 1 view .LVU412
 1535 0034 FFF7FEFF 		bl	__assert_func
 1536              	.LVL164:
 1537              	.L106:
 284:src-gen/Main/core/utils/pqueue.c ****     assert(*dest);
 1538              		.loc 1 284 5 discriminator 1 view .LVU413
 1539 0038 164B     		ldr	r3, .L108+16
 1540 003a 134A     		ldr	r2, .L108+4
 1541 003c 4FF48E71 		mov	r1, #284
 1542              	.LVL165:
 284:src-gen/Main/core/utils/pqueue.c ****     assert(*dest);
 1543              		.loc 1 284 5 discriminator 1 view .LVU414
 1544 0040 1248     		ldr	r0, .L108+8
 1545              	.LVL166:
 284:src-gen/Main/core/utils/pqueue.c ****     assert(*dest);
 1546              		.loc 1 284 5 discriminator 1 view .LVU415
 1547 0042 FFF7FEFF 		bl	__assert_func
 1548              	.LVL167:
 1549              	.L107:
 285:src-gen/Main/core/utils/pqueue.c ****     void* item;
 1550              		.loc 1 285 5 discriminator 1 view .LVU416
 1551 0046 144B     		ldr	r3, .L108+20
 1552 0048 0F4A     		ldr	r2, .L108+4
 1553 004a 40F21D11 		movw	r1, #285
 1554              	.LVL168:
 285:src-gen/Main/core/utils/pqueue.c ****     void* item;
 1555              		.loc 1 285 5 discriminator 1 view .LVU417
 1556 004e 0F48     		ldr	r0, .L108+8
 1557              	.LVL169:
 285:src-gen/Main/core/utils/pqueue.c ****     void* item;
 1558              		.loc 1 285 5 discriminator 1 view .LVU418
 1559 0050 FFF7FEFF 		bl	__assert_func
 1560              	.LVL170:
 1561              	.L100:
 289:src-gen/Main/core/utils/pqueue.c ****         }
 1562              		.loc 1 289 13 is_stmt 1 view .LVU419
 1563 0054 2068     		ldr	r0, [r4]
 1564              	.LVL171:
 289:src-gen/Main/core/utils/pqueue.c ****         }
 1565              		.loc 1 289 13 is_stmt 0 view .LVU420
ARM GAS  /var/folders/2h/lww79zv53b510qlyvytqnvq40000gn/T//cc1mYm3y.s 			page 40


 1566 0056 FFF7FEFF 		bl	pqueue_insert
 1567              	.LVL172:
 1568              	.L98:
 288:src-gen/Main/core/utils/pqueue.c ****             pqueue_insert(*dest, item);
 1569              		.loc 1 288 16 is_stmt 1 view .LVU421
 288:src-gen/Main/core/utils/pqueue.c ****             pqueue_insert(*dest, item);
 1570              		.loc 1 288 24 is_stmt 0 view .LVU422
 1571 005a 2868     		ldr	r0, [r5]
 1572 005c FFF7FEFF 		bl	pqueue_pop
 1573              	.LVL173:
 288:src-gen/Main/core/utils/pqueue.c ****             pqueue_insert(*dest, item);
 1574              		.loc 1 288 16 view .LVU423
 1575 0060 0146     		mov	r1, r0
 1576 0062 0028     		cmp	r0, #0
 1577 0064 F6D1     		bne	.L100
 1578              	.L93:
 300:src-gen/Main/core/utils/pqueue.c **** 
 1579              		.loc 1 300 1 view .LVU424
 1580 0066 38BD     		pop	{r3, r4, r5, pc}
 1581              	.LVL174:
 1582              	.L102:
 1583              	.LBB2:
 293:src-gen/Main/core/utils/pqueue.c ****         }
 1584              		.loc 1 293 13 is_stmt 1 view .LVU425
 1585 0068 2868     		ldr	r0, [r5]
 1586              	.LVL175:
 293:src-gen/Main/core/utils/pqueue.c ****         }
 1587              		.loc 1 293 13 is_stmt 0 view .LVU426
 1588 006a FFF7FEFF 		bl	pqueue_insert
 1589              	.LVL176:
 1590              	.L99:
 292:src-gen/Main/core/utils/pqueue.c ****             pqueue_insert(*src, item);
 1591              		.loc 1 292 16 is_stmt 1 view .LVU427
 292:src-gen/Main/core/utils/pqueue.c ****             pqueue_insert(*src, item);
 1592              		.loc 1 292 24 is_stmt 0 view .LVU428
 1593 006e 2068     		ldr	r0, [r4]
 1594 0070 FFF7FEFF 		bl	pqueue_pop
 1595              	.LVL177:
 292:src-gen/Main/core/utils/pqueue.c ****             pqueue_insert(*src, item);
 1596              		.loc 1 292 16 view .LVU429
 1597 0074 0146     		mov	r1, r0
 1598 0076 0028     		cmp	r0, #0
 1599 0078 F6D1     		bne	.L102
 296:src-gen/Main/core/utils/pqueue.c ****         *dest = *src;
 1600              		.loc 1 296 9 is_stmt 1 view .LVU430
 296:src-gen/Main/core/utils/pqueue.c ****         *dest = *src;
 1601              		.loc 1 296 19 is_stmt 0 view .LVU431
 1602 007a 2368     		ldr	r3, [r4]
 1603              	.LVL178:
 297:src-gen/Main/core/utils/pqueue.c ****         *src = tmp;
 1604              		.loc 1 297 9 is_stmt 1 view .LVU432
 297:src-gen/Main/core/utils/pqueue.c ****         *src = tmp;
 1605              		.loc 1 297 17 is_stmt 0 view .LVU433
 1606 007c 2A68     		ldr	r2, [r5]
 297:src-gen/Main/core/utils/pqueue.c ****         *src = tmp;
 1607              		.loc 1 297 15 view .LVU434
 1608 007e 2260     		str	r2, [r4]
ARM GAS  /var/folders/2h/lww79zv53b510qlyvytqnvq40000gn/T//cc1mYm3y.s 			page 41


 298:src-gen/Main/core/utils/pqueue.c ****     }
 1609              		.loc 1 298 9 is_stmt 1 view .LVU435
 298:src-gen/Main/core/utils/pqueue.c ****     }
 1610              		.loc 1 298 14 is_stmt 0 view .LVU436
 1611 0080 2B60     		str	r3, [r5]
 1612              	.LBE2:
 300:src-gen/Main/core/utils/pqueue.c **** 
 1613              		.loc 1 300 1 view .LVU437
 1614 0082 F0E7     		b	.L93
 1615              	.L109:
 1616              		.align	2
 1617              	.L108:
 1618 0084 00000000 		.word	.LC4
 1619 0088 00000000 		.word	__func__.0
 1620 008c 04000000 		.word	.LC5
 1621 0090 28000000 		.word	.LC6
 1622 0094 30000000 		.word	.LC7
 1623 0098 38000000 		.word	.LC8
 1624              		.cfi_endproc
 1625              	.LFE146:
 1627              		.section	.text.pqueue_peek,"ax",%progbits
 1628              		.align	1
 1629              		.global	pqueue_peek
 1630              		.syntax unified
 1631              		.thumb
 1632              		.thumb_func
 1634              	pqueue_peek:
 1635              	.LVL179:
 1636              	.LFB147:
 302:src-gen/Main/core/utils/pqueue.c ****     void *d;
 1637              		.loc 1 302 32 is_stmt 1 view -0
 1638              		.cfi_startproc
 1639              		@ args = 0, pretend = 0, frame = 0
 1640              		@ frame_needed = 0, uses_anonymous_args = 0
 1641              		@ link register save eliminated.
 303:src-gen/Main/core/utils/pqueue.c ****     if (!q || q->size == 1)
 1642              		.loc 1 303 5 view .LVU439
 304:src-gen/Main/core/utils/pqueue.c ****         return NULL;
 1643              		.loc 1 304 5 view .LVU440
 304:src-gen/Main/core/utils/pqueue.c ****         return NULL;
 1644              		.loc 1 304 8 is_stmt 0 view .LVU441
 1645 0000 28B1     		cbz	r0, .L112
 304:src-gen/Main/core/utils/pqueue.c ****         return NULL;
 1646              		.loc 1 304 16 discriminator 1 view .LVU442
 1647 0002 0268     		ldr	r2, [r0]
 304:src-gen/Main/core/utils/pqueue.c ****         return NULL;
 1648              		.loc 1 304 12 discriminator 1 view .LVU443
 1649 0004 012A     		cmp	r2, #1
 1650 0006 03D0     		beq	.L113
 306:src-gen/Main/core/utils/pqueue.c ****     return d;
 1651              		.loc 1 306 5 is_stmt 1 view .LVU444
 306:src-gen/Main/core/utils/pqueue.c ****     return d;
 1652              		.loc 1 306 10 is_stmt 0 view .LVU445
 1653 0008 436A     		ldr	r3, [r0, #36]
 306:src-gen/Main/core/utils/pqueue.c ****     return d;
 1654              		.loc 1 306 7 view .LVU446
 1655 000a 5868     		ldr	r0, [r3, #4]
ARM GAS  /var/folders/2h/lww79zv53b510qlyvytqnvq40000gn/T//cc1mYm3y.s 			page 42


 1656              	.LVL180:
 307:src-gen/Main/core/utils/pqueue.c **** }
 1657              		.loc 1 307 5 is_stmt 1 view .LVU447
 307:src-gen/Main/core/utils/pqueue.c **** }
 1658              		.loc 1 307 12 is_stmt 0 view .LVU448
 1659 000c 7047     		bx	lr
 1660              	.LVL181:
 1661              	.L112:
 307:src-gen/Main/core/utils/pqueue.c **** }
 1662              		.loc 1 307 12 view .LVU449
 1663 000e 7047     		bx	lr
 1664              	.L113:
 305:src-gen/Main/core/utils/pqueue.c ****     d = q->d[1];
 1665              		.loc 1 305 16 view .LVU450
 1666 0010 0020     		movs	r0, #0
 1667              	.LVL182:
 308:src-gen/Main/core/utils/pqueue.c **** 
 1668              		.loc 1 308 1 view .LVU451
 1669 0012 7047     		bx	lr
 1670              		.cfi_endproc
 1671              	.LFE147:
 1673              		.section	.text.pqueue_dump,"ax",%progbits
 1674              		.align	1
 1675              		.global	pqueue_dump
 1676              		.syntax unified
 1677              		.thumb
 1678              		.thumb_func
 1680              	pqueue_dump:
 1681              	.LVL183:
 1682              	.LFB148:
 310:src-gen/Main/core/utils/pqueue.c ****     size_t i;
 1683              		.loc 1 310 59 is_stmt 1 view -0
 1684              		.cfi_startproc
 1685              		@ args = 0, pretend = 0, frame = 0
 1686              		@ frame_needed = 0, uses_anonymous_args = 0
 310:src-gen/Main/core/utils/pqueue.c ****     size_t i;
 1687              		.loc 1 310 59 is_stmt 0 view .LVU453
 1688 0000 70B5     		push	{r4, r5, r6, lr}
 1689              	.LCFI22:
 1690              		.cfi_def_cfa_offset 16
 1691              		.cfi_offset 4, -16
 1692              		.cfi_offset 5, -12
 1693              		.cfi_offset 6, -8
 1694              		.cfi_offset 14, -4
 1695 0002 0546     		mov	r5, r0
 1696 0004 0E46     		mov	r6, r1
 311:src-gen/Main/core/utils/pqueue.c **** 
 1697              		.loc 1 311 5 is_stmt 1 view .LVU454
 313:src-gen/Main/core/utils/pqueue.c ****     for (i = 1; i < q->size ;i++) {
 1698              		.loc 1 313 5 view .LVU455
 313:src-gen/Main/core/utils/pqueue.c ****     for (i = 1; i < q->size ;i++) {
 1699              		.loc 1 313 5 view .LVU456
 313:src-gen/Main/core/utils/pqueue.c ****     for (i = 1; i < q->size ;i++) {
 1700              		.loc 1 313 5 view .LVU457
 314:src-gen/Main/core/utils/pqueue.c ****         LF_PRINT_DEBUG("%zu\t%zu\t%zu\t%zu\t%ul\t",
 1701              		.loc 1 314 5 view .LVU458
 1702              	.LVL184:
ARM GAS  /var/folders/2h/lww79zv53b510qlyvytqnvq40000gn/T//cc1mYm3y.s 			page 43


 314:src-gen/Main/core/utils/pqueue.c ****         LF_PRINT_DEBUG("%zu\t%zu\t%zu\t%zu\t%ul\t",
 1703              		.loc 1 314 12 is_stmt 0 view .LVU459
 1704 0006 0124     		movs	r4, #1
 314:src-gen/Main/core/utils/pqueue.c ****         LF_PRINT_DEBUG("%zu\t%zu\t%zu\t%zu\t%ul\t",
 1705              		.loc 1 314 5 view .LVU460
 1706 0008 04E0     		b	.L115
 1707              	.LVL185:
 1708              	.L116:
 315:src-gen/Main/core/utils/pqueue.c ****                 i,
 1709              		.loc 1 315 9 is_stmt 1 discriminator 3 view .LVU461
 315:src-gen/Main/core/utils/pqueue.c ****                 i,
 1710              		.loc 1 315 9 discriminator 3 view .LVU462
 315:src-gen/Main/core/utils/pqueue.c ****                 i,
 1711              		.loc 1 315 9 discriminator 3 view .LVU463
 319:src-gen/Main/core/utils/pqueue.c ****     }
 1712              		.loc 1 319 9 discriminator 3 view .LVU464
 319:src-gen/Main/core/utils/pqueue.c ****     }
 1713              		.loc 1 319 16 is_stmt 0 discriminator 3 view .LVU465
 1714 000a 6B6A     		ldr	r3, [r5, #36]
 319:src-gen/Main/core/utils/pqueue.c ****     }
 1715              		.loc 1 319 9 discriminator 3 view .LVU466
 1716 000c 53F82400 		ldr	r0, [r3, r4, lsl #2]
 1717 0010 B047     		blx	r6
 1718              	.LVL186:
 314:src-gen/Main/core/utils/pqueue.c ****         LF_PRINT_DEBUG("%zu\t%zu\t%zu\t%zu\t%ul\t",
 1719              		.loc 1 314 31 is_stmt 1 discriminator 3 view .LVU467
 1720 0012 0134     		adds	r4, r4, #1
 1721              	.LVL187:
 1722              	.L115:
 314:src-gen/Main/core/utils/pqueue.c ****         LF_PRINT_DEBUG("%zu\t%zu\t%zu\t%zu\t%ul\t",
 1723              		.loc 1 314 19 discriminator 2 view .LVU468
 314:src-gen/Main/core/utils/pqueue.c ****         LF_PRINT_DEBUG("%zu\t%zu\t%zu\t%zu\t%ul\t",
 1724              		.loc 1 314 22 is_stmt 0 discriminator 2 view .LVU469
 1725 0014 2B68     		ldr	r3, [r5]
 314:src-gen/Main/core/utils/pqueue.c ****         LF_PRINT_DEBUG("%zu\t%zu\t%zu\t%zu\t%ul\t",
 1726              		.loc 1 314 19 discriminator 2 view .LVU470
 1727 0016 9C42     		cmp	r4, r3
 1728 0018 F7D3     		bcc	.L116
 321:src-gen/Main/core/utils/pqueue.c **** 
 1729              		.loc 1 321 1 view .LVU471
 1730 001a 70BD     		pop	{r4, r5, r6, pc}
 321:src-gen/Main/core/utils/pqueue.c **** 
 1731              		.loc 1 321 1 view .LVU472
 1732              		.cfi_endproc
 1733              	.LFE148:
 1735              		.section	.text.pqueue_print,"ax",%progbits
 1736              		.align	1
 1737              		.global	pqueue_print
 1738              		.syntax unified
 1739              		.thumb
 1740              		.thumb_func
 1742              	pqueue_print:
 1743              	.LVL188:
 1744              	.LFB149:
 323:src-gen/Main/core/utils/pqueue.c ****     pqueue_t *dup;
 1745              		.loc 1 323 60 is_stmt 1 view -0
 1746              		.cfi_startproc
ARM GAS  /var/folders/2h/lww79zv53b510qlyvytqnvq40000gn/T//cc1mYm3y.s 			page 44


 1747              		@ args = 0, pretend = 0, frame = 0
 1748              		@ frame_needed = 0, uses_anonymous_args = 0
 323:src-gen/Main/core/utils/pqueue.c ****     pqueue_t *dup;
 1749              		.loc 1 323 60 is_stmt 0 view .LVU474
 1750 0000 70B5     		push	{r4, r5, r6, lr}
 1751              	.LCFI23:
 1752              		.cfi_def_cfa_offset 16
 1753              		.cfi_offset 4, -16
 1754              		.cfi_offset 5, -12
 1755              		.cfi_offset 6, -8
 1756              		.cfi_offset 14, -4
 1757 0002 84B0     		sub	sp, sp, #16
 1758              	.LCFI24:
 1759              		.cfi_def_cfa_offset 32
 1760 0004 0546     		mov	r5, r0
 1761 0006 0E46     		mov	r6, r1
 324:src-gen/Main/core/utils/pqueue.c ****     void *e;
 1762              		.loc 1 324 5 is_stmt 1 view .LVU475
 325:src-gen/Main/core/utils/pqueue.c **** 
 1763              		.loc 1 325 5 view .LVU476
 327:src-gen/Main/core/utils/pqueue.c ****                       q->cmppri, q->getpri,
 1764              		.loc 1 327 5 view .LVU477
 327:src-gen/Main/core/utils/pqueue.c ****                       q->cmppri, q->getpri,
 1765              		.loc 1 327 11 is_stmt 0 view .LVU478
 1766 0008 036A     		ldr	r3, [r0, #32]
 1767 000a 0293     		str	r3, [sp, #8]
 1768 000c C369     		ldr	r3, [r0, #28]
 1769 000e 0193     		str	r3, [sp, #4]
 1770 0010 8369     		ldr	r3, [r0, #24]
 1771 0012 0093     		str	r3, [sp]
 1772 0014 4369     		ldr	r3, [r0, #20]
 1773 0016 0269     		ldr	r2, [r0, #16]
 1774 0018 C168     		ldr	r1, [r0, #12]
 1775              	.LVL189:
 327:src-gen/Main/core/utils/pqueue.c ****                       q->cmppri, q->getpri,
 1776              		.loc 1 327 11 view .LVU479
 1777 001a 0068     		ldr	r0, [r0]
 1778              	.LVL190:
 327:src-gen/Main/core/utils/pqueue.c ****                       q->cmppri, q->getpri,
 1779              		.loc 1 327 11 view .LVU480
 1780 001c FFF7FEFF 		bl	pqueue_init
 1781              	.LVL191:
 1782 0020 0446     		mov	r4, r0
 1783              	.LVL192:
 330:src-gen/Main/core/utils/pqueue.c ****     dup->avail = q->avail;
 1784              		.loc 1 330 5 is_stmt 1 view .LVU481
 330:src-gen/Main/core/utils/pqueue.c ****     dup->avail = q->avail;
 1785              		.loc 1 330 18 is_stmt 0 view .LVU482
 1786 0022 2B68     		ldr	r3, [r5]
 330:src-gen/Main/core/utils/pqueue.c ****     dup->avail = q->avail;
 1787              		.loc 1 330 15 view .LVU483
 1788 0024 0360     		str	r3, [r0]
 331:src-gen/Main/core/utils/pqueue.c ****     dup->step = q->step;
 1789              		.loc 1 331 5 is_stmt 1 view .LVU484
 331:src-gen/Main/core/utils/pqueue.c ****     dup->step = q->step;
 1790              		.loc 1 331 19 is_stmt 0 view .LVU485
 1791 0026 6B68     		ldr	r3, [r5, #4]
ARM GAS  /var/folders/2h/lww79zv53b510qlyvytqnvq40000gn/T//cc1mYm3y.s 			page 45


 331:src-gen/Main/core/utils/pqueue.c ****     dup->step = q->step;
 1792              		.loc 1 331 16 view .LVU486
 1793 0028 4360     		str	r3, [r0, #4]
 332:src-gen/Main/core/utils/pqueue.c **** 
 1794              		.loc 1 332 5 is_stmt 1 view .LVU487
 332:src-gen/Main/core/utils/pqueue.c **** 
 1795              		.loc 1 332 18 is_stmt 0 view .LVU488
 1796 002a AB68     		ldr	r3, [r5, #8]
 332:src-gen/Main/core/utils/pqueue.c **** 
 1797              		.loc 1 332 15 view .LVU489
 1798 002c 8360     		str	r3, [r0, #8]
 334:src-gen/Main/core/utils/pqueue.c **** 
 1799              		.loc 1 334 5 is_stmt 1 view .LVU490
 334:src-gen/Main/core/utils/pqueue.c **** 
 1800              		.loc 1 334 28 is_stmt 0 view .LVU491
 1801 002e 2A68     		ldr	r2, [r5]
 334:src-gen/Main/core/utils/pqueue.c **** 
 1802              		.loc 1 334 5 view .LVU492
 1803 0030 9200     		lsls	r2, r2, #2
 1804 0032 696A     		ldr	r1, [r5, #36]
 1805 0034 406A     		ldr	r0, [r0, #36]
 1806              	.LVL193:
 334:src-gen/Main/core/utils/pqueue.c **** 
 1807              		.loc 1 334 5 view .LVU493
 1808 0036 FFF7FEFF 		bl	memcpy
 1809              	.LVL194:
 336:src-gen/Main/core/utils/pqueue.c ****         print(e);
 1810              		.loc 1 336 5 is_stmt 1 view .LVU494
 336:src-gen/Main/core/utils/pqueue.c ****         print(e);
 1811              		.loc 1 336 11 is_stmt 0 view .LVU495
 1812 003a 01E0     		b	.L119
 1813              	.LVL195:
 1814              	.L120:
 337:src-gen/Main/core/utils/pqueue.c **** 
 1815              		.loc 1 337 9 is_stmt 1 view .LVU496
 1816 003c 1846     		mov	r0, r3
 1817              	.LVL196:
 337:src-gen/Main/core/utils/pqueue.c **** 
 1818              		.loc 1 337 9 is_stmt 0 view .LVU497
 1819 003e B047     		blx	r6
 1820              	.LVL197:
 1821              	.L119:
 336:src-gen/Main/core/utils/pqueue.c ****         print(e);
 1822              		.loc 1 336 12 is_stmt 1 view .LVU498
 336:src-gen/Main/core/utils/pqueue.c ****         print(e);
 1823              		.loc 1 336 17 is_stmt 0 view .LVU499
 1824 0040 2046     		mov	r0, r4
 1825 0042 FFF7FEFF 		bl	pqueue_pop
 1826              	.LVL198:
 336:src-gen/Main/core/utils/pqueue.c ****         print(e);
 1827              		.loc 1 336 12 view .LVU500
 1828 0046 0346     		mov	r3, r0
 1829 0048 0028     		cmp	r0, #0
 1830 004a F7D1     		bne	.L120
 339:src-gen/Main/core/utils/pqueue.c **** }
 1831              		.loc 1 339 5 is_stmt 1 view .LVU501
 1832 004c 2046     		mov	r0, r4
ARM GAS  /var/folders/2h/lww79zv53b510qlyvytqnvq40000gn/T//cc1mYm3y.s 			page 46


 1833              	.LVL199:
 339:src-gen/Main/core/utils/pqueue.c **** }
 1834              		.loc 1 339 5 is_stmt 0 view .LVU502
 1835 004e FFF7FEFF 		bl	pqueue_free
 1836              	.LVL200:
 340:src-gen/Main/core/utils/pqueue.c **** 
 1837              		.loc 1 340 1 view .LVU503
 1838 0052 04B0     		add	sp, sp, #16
 1839              	.LCFI25:
 1840              		.cfi_def_cfa_offset 16
 1841              		@ sp needed
 1842 0054 70BD     		pop	{r4, r5, r6, pc}
 340:src-gen/Main/core/utils/pqueue.c **** 
 1843              		.loc 1 340 1 view .LVU504
 1844              		.cfi_endproc
 1845              	.LFE149:
 1847              		.section	.text.pqueue_is_valid,"ax",%progbits
 1848              		.align	1
 1849              		.global	pqueue_is_valid
 1850              		.syntax unified
 1851              		.thumb
 1852              		.thumb_func
 1854              	pqueue_is_valid:
 1855              	.LVL201:
 1856              	.LFB151:
 374:src-gen/Main/core/utils/pqueue.c **** 
 375:src-gen/Main/core/utils/pqueue.c **** int pqueue_is_valid(pqueue_t *q) {
 1857              		.loc 1 375 34 is_stmt 1 view -0
 1858              		.cfi_startproc
 1859              		@ args = 0, pretend = 0, frame = 0
 1860              		@ frame_needed = 0, uses_anonymous_args = 0
 1861              		.loc 1 375 34 is_stmt 0 view .LVU506
 1862 0000 08B5     		push	{r3, lr}
 1863              	.LCFI26:
 1864              		.cfi_def_cfa_offset 8
 1865              		.cfi_offset 3, -8
 1866              		.cfi_offset 14, -4
 376:src-gen/Main/core/utils/pqueue.c ****     return subtree_is_valid(q, 1);
 1867              		.loc 1 376 5 is_stmt 1 view .LVU507
 1868              		.loc 1 376 12 is_stmt 0 view .LVU508
 1869 0002 0121     		movs	r1, #1
 1870 0004 FFF7FEFF 		bl	subtree_is_valid
 1871              	.LVL202:
 377:src-gen/Main/core/utils/pqueue.c **** }
 1872              		.loc 1 377 1 view .LVU509
 1873 0008 08BD     		pop	{r3, pc}
 1874              		.cfi_endproc
 1875              	.LFE151:
 1877              		.section	.text.in_reverse_order,"ax",%progbits
 1878              		.align	1
 1879              		.global	in_reverse_order
 1880              		.syntax unified
 1881              		.thumb
 1882              		.thumb_func
 1884              	in_reverse_order:
 1885              	.LVL203:
 1886              	.LFB152:
ARM GAS  /var/folders/2h/lww79zv53b510qlyvytqnvq40000gn/T//cc1mYm3y.s 			page 47


 378:src-gen/Main/core/utils/pqueue.c **** 
 379:src-gen/Main/core/utils/pqueue.c **** // ********** Priority Queue Support Start
 380:src-gen/Main/core/utils/pqueue.c **** 
 381:src-gen/Main/core/utils/pqueue.c **** /**
 382:src-gen/Main/core/utils/pqueue.c ****  * Return whether the first and second argument are given in reverse order.
 383:src-gen/Main/core/utils/pqueue.c ****  */
 384:src-gen/Main/core/utils/pqueue.c **** int in_reverse_order(pqueue_pri_t thiz, pqueue_pri_t that) {
 1887              		.loc 1 384 60 is_stmt 1 view -0
 1888              		.cfi_startproc
 1889              		@ args = 0, pretend = 0, frame = 0
 1890              		@ frame_needed = 0, uses_anonymous_args = 0
 1891              		@ link register save eliminated.
 385:src-gen/Main/core/utils/pqueue.c ****     return (thiz > that);
 1892              		.loc 1 385 5 view .LVU511
 1893              		.loc 1 385 18 is_stmt 0 view .LVU512
 1894 0000 8242     		cmp	r2, r0
 1895 0002 8B41     		sbcs	r3, r3, r1
 386:src-gen/Main/core/utils/pqueue.c **** }
 1896              		.loc 1 386 1 view .LVU513
 1897 0004 34BF     		ite	cc
 1898 0006 0120     		movcc	r0, #1
 1899              	.LVL204:
 1900              		.loc 1 386 1 view .LVU514
 1901 0008 0020     		movcs	r0, #0
 1902 000a 7047     		bx	lr
 1903              		.cfi_endproc
 1904              	.LFE152:
 1906              		.section	.text.in_no_particular_order,"ax",%progbits
 1907              		.align	1
 1908              		.global	in_no_particular_order
 1909              		.syntax unified
 1910              		.thumb
 1911              		.thumb_func
 1913              	in_no_particular_order:
 1914              	.LVL205:
 1915              	.LFB153:
 387:src-gen/Main/core/utils/pqueue.c **** 
 388:src-gen/Main/core/utils/pqueue.c **** /**
 389:src-gen/Main/core/utils/pqueue.c ****  * Return false (0) regardless of reaction order.
 390:src-gen/Main/core/utils/pqueue.c ****  */
 391:src-gen/Main/core/utils/pqueue.c **** int in_no_particular_order(pqueue_pri_t thiz, pqueue_pri_t that) {
 1916              		.loc 1 391 66 is_stmt 1 view -0
 1917              		.cfi_startproc
 1918              		@ args = 0, pretend = 0, frame = 0
 1919              		@ frame_needed = 0, uses_anonymous_args = 0
 1920              		@ link register save eliminated.
 392:src-gen/Main/core/utils/pqueue.c ****     return false;
 1921              		.loc 1 392 5 view .LVU516
 393:src-gen/Main/core/utils/pqueue.c **** }
 1922              		.loc 1 393 1 is_stmt 0 view .LVU517
 1923 0000 0020     		movs	r0, #0
 1924              	.LVL206:
 1925              		.loc 1 393 1 view .LVU518
 1926 0002 7047     		bx	lr
 1927              		.cfi_endproc
 1928              	.LFE153:
 1930              		.section	.text.event_matches,"ax",%progbits
ARM GAS  /var/folders/2h/lww79zv53b510qlyvytqnvq40000gn/T//cc1mYm3y.s 			page 48


 1931              		.align	1
 1932              		.global	event_matches
 1933              		.syntax unified
 1934              		.thumb
 1935              		.thumb_func
 1937              	event_matches:
 1938              	.LVL207:
 1939              	.LFB154:
 394:src-gen/Main/core/utils/pqueue.c **** 
 395:src-gen/Main/core/utils/pqueue.c **** /**
 396:src-gen/Main/core/utils/pqueue.c ****  * Return whether or not the given events have matching triggers.
 397:src-gen/Main/core/utils/pqueue.c ****  */
 398:src-gen/Main/core/utils/pqueue.c **** int event_matches(void* next, void* curr) {
 1940              		.loc 1 398 43 is_stmt 1 view -0
 1941              		.cfi_startproc
 1942              		@ args = 0, pretend = 0, frame = 0
 1943              		@ frame_needed = 0, uses_anonymous_args = 0
 1944              		@ link register save eliminated.
 399:src-gen/Main/core/utils/pqueue.c ****     return (((event_t*)next)->trigger == ((event_t*)curr)->trigger);
 1945              		.loc 1 399 5 view .LVU520
 1946              		.loc 1 399 29 is_stmt 0 view .LVU521
 1947 0000 8068     		ldr	r0, [r0, #8]
 1948              	.LVL208:
 1949              		.loc 1 399 58 view .LVU522
 1950 0002 8B68     		ldr	r3, [r1, #8]
 400:src-gen/Main/core/utils/pqueue.c **** }
 1951              		.loc 1 400 1 view .LVU523
 1952 0004 9842     		cmp	r0, r3
 1953 0006 14BF     		ite	ne
 1954 0008 0020     		movne	r0, #0
 1955 000a 0120     		moveq	r0, #1
 1956 000c 7047     		bx	lr
 1957              		.cfi_endproc
 1958              	.LFE154:
 1960              		.section	.text.reaction_matches,"ax",%progbits
 1961              		.align	1
 1962              		.global	reaction_matches
 1963              		.syntax unified
 1964              		.thumb
 1965              		.thumb_func
 1967              	reaction_matches:
 1968              	.LVL209:
 1969              	.LFB155:
 401:src-gen/Main/core/utils/pqueue.c **** 
 402:src-gen/Main/core/utils/pqueue.c **** /**
 403:src-gen/Main/core/utils/pqueue.c ****  * Return whether or not the given reaction_t pointers
 404:src-gen/Main/core/utils/pqueue.c ****  * point to the same struct.
 405:src-gen/Main/core/utils/pqueue.c ****  */
 406:src-gen/Main/core/utils/pqueue.c **** int reaction_matches(void* next, void* curr) {
 1970              		.loc 1 406 46 is_stmt 1 view -0
 1971              		.cfi_startproc
 1972              		@ args = 0, pretend = 0, frame = 0
 1973              		@ frame_needed = 0, uses_anonymous_args = 0
 1974              		@ link register save eliminated.
 407:src-gen/Main/core/utils/pqueue.c ****     return (next == curr);
 1975              		.loc 1 407 5 view .LVU525
 408:src-gen/Main/core/utils/pqueue.c **** }
ARM GAS  /var/folders/2h/lww79zv53b510qlyvytqnvq40000gn/T//cc1mYm3y.s 			page 49


 1976              		.loc 1 408 1 is_stmt 0 view .LVU526
 1977 0000 8142     		cmp	r1, r0
 1978 0002 14BF     		ite	ne
 1979 0004 0020     		movne	r0, #0
 1980              	.LVL210:
 1981              		.loc 1 408 1 view .LVU527
 1982 0006 0120     		moveq	r0, #1
 1983 0008 7047     		bx	lr
 1984              		.cfi_endproc
 1985              	.LFE155:
 1987              		.section	.text.get_event_time,"ax",%progbits
 1988              		.align	1
 1989              		.global	get_event_time
 1990              		.syntax unified
 1991              		.thumb
 1992              		.thumb_func
 1994              	get_event_time:
 1995              	.LVL211:
 1996              	.LFB156:
 409:src-gen/Main/core/utils/pqueue.c **** 
 410:src-gen/Main/core/utils/pqueue.c **** /**
 411:src-gen/Main/core/utils/pqueue.c ****  * Report a priority equal to the time of the given event.
 412:src-gen/Main/core/utils/pqueue.c ****  * Used for sorting pointers to event_t structs in the event queue.
 413:src-gen/Main/core/utils/pqueue.c ****  */
 414:src-gen/Main/core/utils/pqueue.c **** pqueue_pri_t get_event_time(void *a) {
 1997              		.loc 1 414 38 is_stmt 1 view -0
 1998              		.cfi_startproc
 1999              		@ args = 0, pretend = 0, frame = 0
 2000              		@ frame_needed = 0, uses_anonymous_args = 0
 2001              		@ link register save eliminated.
 415:src-gen/Main/core/utils/pqueue.c ****     return (pqueue_pri_t)(((event_t*) a)->time);
 2002              		.loc 1 415 5 view .LVU529
 416:src-gen/Main/core/utils/pqueue.c **** }
 2003              		.loc 1 416 1 is_stmt 0 view .LVU530
 2004 0000 D0E90001 		ldrd	r0, [r0]
 2005              	.LVL212:
 2006              		.loc 1 416 1 view .LVU531
 2007 0004 7047     		bx	lr
 2008              		.cfi_endproc
 2009              	.LFE156:
 2011              		.section	.text.get_reaction_index,"ax",%progbits
 2012              		.align	1
 2013              		.global	get_reaction_index
 2014              		.syntax unified
 2015              		.thumb
 2016              		.thumb_func
 2018              	get_reaction_index:
 2019              	.LVL213:
 2020              	.LFB157:
 417:src-gen/Main/core/utils/pqueue.c **** 
 418:src-gen/Main/core/utils/pqueue.c **** /**
 419:src-gen/Main/core/utils/pqueue.c ****  * Report a priority equal to the index of the given reaction.
 420:src-gen/Main/core/utils/pqueue.c ****  * Used for sorting pointers to reaction_t structs in the
 421:src-gen/Main/core/utils/pqueue.c ****  * blocked and executing queues.
 422:src-gen/Main/core/utils/pqueue.c ****  */
 423:src-gen/Main/core/utils/pqueue.c **** pqueue_pri_t get_reaction_index(void *a) {
 2021              		.loc 1 423 42 is_stmt 1 view -0
ARM GAS  /var/folders/2h/lww79zv53b510qlyvytqnvq40000gn/T//cc1mYm3y.s 			page 50


 2022              		.cfi_startproc
 2023              		@ args = 0, pretend = 0, frame = 0
 2024              		@ frame_needed = 0, uses_anonymous_args = 0
 2025              		@ link register save eliminated.
 424:src-gen/Main/core/utils/pqueue.c ****     return ((reaction_t*) a)->index;
 2026              		.loc 1 424 5 view .LVU533
 425:src-gen/Main/core/utils/pqueue.c **** }
 2027              		.loc 1 425 1 is_stmt 0 view .LVU534
 2028 0000 D0E90401 		ldrd	r0, [r0, #16]
 2029              	.LVL214:
 2030              		.loc 1 425 1 view .LVU535
 2031 0004 7047     		bx	lr
 2032              		.cfi_endproc
 2033              	.LFE157:
 2035              		.section	.text.get_event_position,"ax",%progbits
 2036              		.align	1
 2037              		.global	get_event_position
 2038              		.syntax unified
 2039              		.thumb
 2040              		.thumb_func
 2042              	get_event_position:
 2043              	.LVL215:
 2044              	.LFB158:
 426:src-gen/Main/core/utils/pqueue.c **** 
 427:src-gen/Main/core/utils/pqueue.c **** /**
 428:src-gen/Main/core/utils/pqueue.c ****  * Return the given event's position in the queue.
 429:src-gen/Main/core/utils/pqueue.c ****  */
 430:src-gen/Main/core/utils/pqueue.c **** size_t get_event_position(void *a) {
 2045              		.loc 1 430 36 is_stmt 1 view -0
 2046              		.cfi_startproc
 2047              		@ args = 0, pretend = 0, frame = 0
 2048              		@ frame_needed = 0, uses_anonymous_args = 0
 2049              		@ link register save eliminated.
 431:src-gen/Main/core/utils/pqueue.c ****     return ((event_t*) a)->pos;
 2050              		.loc 1 431 5 view .LVU537
 432:src-gen/Main/core/utils/pqueue.c **** }
 2051              		.loc 1 432 1 is_stmt 0 view .LVU538
 2052 0000 C068     		ldr	r0, [r0, #12]
 2053              	.LVL216:
 2054              		.loc 1 432 1 view .LVU539
 2055 0002 7047     		bx	lr
 2056              		.cfi_endproc
 2057              	.LFE158:
 2059              		.section	.text.get_reaction_position,"ax",%progbits
 2060              		.align	1
 2061              		.global	get_reaction_position
 2062              		.syntax unified
 2063              		.thumb
 2064              		.thumb_func
 2066              	get_reaction_position:
 2067              	.LVL217:
 2068              	.LFB159:
 433:src-gen/Main/core/utils/pqueue.c **** 
 434:src-gen/Main/core/utils/pqueue.c **** /**
 435:src-gen/Main/core/utils/pqueue.c ****  * Return the given reaction's position in the queue.
 436:src-gen/Main/core/utils/pqueue.c ****  */
 437:src-gen/Main/core/utils/pqueue.c **** size_t get_reaction_position(void *a) {
ARM GAS  /var/folders/2h/lww79zv53b510qlyvytqnvq40000gn/T//cc1mYm3y.s 			page 51


 2069              		.loc 1 437 39 is_stmt 1 view -0
 2070              		.cfi_startproc
 2071              		@ args = 0, pretend = 0, frame = 0
 2072              		@ frame_needed = 0, uses_anonymous_args = 0
 2073              		@ link register save eliminated.
 438:src-gen/Main/core/utils/pqueue.c ****     return ((reaction_t*) a)->pos;
 2074              		.loc 1 438 5 view .LVU541
 439:src-gen/Main/core/utils/pqueue.c **** }
 2075              		.loc 1 439 1 is_stmt 0 view .LVU542
 2076 0000 006A     		ldr	r0, [r0, #32]
 2077              	.LVL218:
 2078              		.loc 1 439 1 view .LVU543
 2079 0002 7047     		bx	lr
 2080              		.cfi_endproc
 2081              	.LFE159:
 2083              		.section	.text.set_event_position,"ax",%progbits
 2084              		.align	1
 2085              		.global	set_event_position
 2086              		.syntax unified
 2087              		.thumb
 2088              		.thumb_func
 2090              	set_event_position:
 2091              	.LVL219:
 2092              	.LFB160:
 440:src-gen/Main/core/utils/pqueue.c **** 
 441:src-gen/Main/core/utils/pqueue.c **** /**
 442:src-gen/Main/core/utils/pqueue.c ****  * Set the given event's position in the queue.
 443:src-gen/Main/core/utils/pqueue.c ****  */
 444:src-gen/Main/core/utils/pqueue.c **** void set_event_position(void *a, size_t pos) {
 2093              		.loc 1 444 46 is_stmt 1 view -0
 2094              		.cfi_startproc
 2095              		@ args = 0, pretend = 0, frame = 0
 2096              		@ frame_needed = 0, uses_anonymous_args = 0
 2097              		@ link register save eliminated.
 445:src-gen/Main/core/utils/pqueue.c ****     ((event_t*) a)->pos = pos;
 2098              		.loc 1 445 5 view .LVU545
 2099              		.loc 1 445 25 is_stmt 0 view .LVU546
 2100 0000 C160     		str	r1, [r0, #12]
 446:src-gen/Main/core/utils/pqueue.c **** }
 2101              		.loc 1 446 1 view .LVU547
 2102 0002 7047     		bx	lr
 2103              		.cfi_endproc
 2104              	.LFE160:
 2106              		.section	.text.set_reaction_position,"ax",%progbits
 2107              		.align	1
 2108              		.global	set_reaction_position
 2109              		.syntax unified
 2110              		.thumb
 2111              		.thumb_func
 2113              	set_reaction_position:
 2114              	.LVL220:
 2115              	.LFB161:
 447:src-gen/Main/core/utils/pqueue.c **** 
 448:src-gen/Main/core/utils/pqueue.c **** /**
 449:src-gen/Main/core/utils/pqueue.c ****  * Return the given reaction's position in the queue.
 450:src-gen/Main/core/utils/pqueue.c ****  */
 451:src-gen/Main/core/utils/pqueue.c **** void set_reaction_position(void *a, size_t pos) {
ARM GAS  /var/folders/2h/lww79zv53b510qlyvytqnvq40000gn/T//cc1mYm3y.s 			page 52


 2116              		.loc 1 451 49 is_stmt 1 view -0
 2117              		.cfi_startproc
 2118              		@ args = 0, pretend = 0, frame = 0
 2119              		@ frame_needed = 0, uses_anonymous_args = 0
 2120              		@ link register save eliminated.
 452:src-gen/Main/core/utils/pqueue.c ****     ((reaction_t*) a)->pos = pos;
 2121              		.loc 1 452 5 view .LVU549
 2122              		.loc 1 452 28 is_stmt 0 view .LVU550
 2123 0000 0162     		str	r1, [r0, #32]
 453:src-gen/Main/core/utils/pqueue.c **** }
 2124              		.loc 1 453 1 view .LVU551
 2125 0002 7047     		bx	lr
 2126              		.cfi_endproc
 2127              	.LFE161:
 2129              		.section	.text.print_reaction,"ax",%progbits
 2130              		.align	1
 2131              		.global	print_reaction
 2132              		.syntax unified
 2133              		.thumb
 2134              		.thumb_func
 2136              	print_reaction:
 2137              	.LVL221:
 2138              	.LFB162:
 454:src-gen/Main/core/utils/pqueue.c **** 
 455:src-gen/Main/core/utils/pqueue.c **** /**
 456:src-gen/Main/core/utils/pqueue.c ****  * Print some information about the given reaction.
 457:src-gen/Main/core/utils/pqueue.c ****  *
 458:src-gen/Main/core/utils/pqueue.c ****  * DEBUG function only.
 459:src-gen/Main/core/utils/pqueue.c ****  */
 460:src-gen/Main/core/utils/pqueue.c **** void print_reaction(void *reaction) {
 2139              		.loc 1 460 37 is_stmt 1 view -0
 2140              		.cfi_startproc
 2141              		@ args = 0, pretend = 0, frame = 0
 2142              		@ frame_needed = 0, uses_anonymous_args = 0
 2143              		@ link register save eliminated.
 461:src-gen/Main/core/utils/pqueue.c ****     reaction_t *r = (reaction_t*)reaction;
 2144              		.loc 1 461 5 view .LVU553
 462:src-gen/Main/core/utils/pqueue.c ****     LF_PRINT_DEBUG("%s: chain_id:%llu, index: %llx, reaction: %p",
 2145              		.loc 1 462 5 view .LVU554
 2146              		.loc 1 462 5 view .LVU555
 2147              		.loc 1 462 5 view .LVU556
 463:src-gen/Main/core/utils/pqueue.c ****             r->name, r->chain_id, r->index, r);
 464:src-gen/Main/core/utils/pqueue.c **** }
 2148              		.loc 1 464 1 is_stmt 0 view .LVU557
 2149 0000 7047     		bx	lr
 2150              		.cfi_endproc
 2151              	.LFE162:
 2153              		.section	.text.print_event,"ax",%progbits
 2154              		.align	1
 2155              		.global	print_event
 2156              		.syntax unified
 2157              		.thumb
 2158              		.thumb_func
 2160              	print_event:
 2161              	.LVL222:
 2162              	.LFB163:
 465:src-gen/Main/core/utils/pqueue.c **** 
ARM GAS  /var/folders/2h/lww79zv53b510qlyvytqnvq40000gn/T//cc1mYm3y.s 			page 53


 466:src-gen/Main/core/utils/pqueue.c **** /**
 467:src-gen/Main/core/utils/pqueue.c ****  * Print some information about the given event.
 468:src-gen/Main/core/utils/pqueue.c ****  *
 469:src-gen/Main/core/utils/pqueue.c ****  * DEBUG function only.
 470:src-gen/Main/core/utils/pqueue.c ****  */
 471:src-gen/Main/core/utils/pqueue.c **** void print_event(void *event) {
 2163              		.loc 1 471 31 is_stmt 1 view -0
 2164              		.cfi_startproc
 2165              		@ args = 0, pretend = 0, frame = 0
 2166              		@ frame_needed = 0, uses_anonymous_args = 0
 2167              		@ link register save eliminated.
 472:src-gen/Main/core/utils/pqueue.c ****     event_t *e = (event_t*)event;
 2168              		.loc 1 472 5 view .LVU559
 473:src-gen/Main/core/utils/pqueue.c ****     LF_PRINT_DEBUG("time: " PRINTF_TIME ", trigger: %p, token: %p",
 2169              		.loc 1 473 5 view .LVU560
 2170              		.loc 1 473 5 view .LVU561
 2171              		.loc 1 473 5 view .LVU562
 474:src-gen/Main/core/utils/pqueue.c ****             e->time, e->trigger, e->token);
 475:src-gen/Main/core/utils/pqueue.c **** }
 2172              		.loc 1 475 1 is_stmt 0 view .LVU563
 2173 0000 7047     		bx	lr
 2174              		.cfi_endproc
 2175              	.LFE163:
 2177              		.section	.rodata.__func__.0,"a"
 2178              		.align	2
 2181              	__func__.0:
 2182 0000 70717565 		.ascii	"pqueue_empty_into\000"
 2182      75655F65 
 2182      6D707479 
 2182      5F696E74 
 2182      6F00
 2183              		.text
 2184              	.Letext0:
 2185              		.file 2 "/Applications/ArmGNUToolchain/12.3.rel1/arm-none-eabi/lib/gcc/arm-none-eabi/12.3.1/includ
 2186              		.file 3 "/Applications/ArmGNUToolchain/12.3.rel1/arm-none-eabi/arm-none-eabi/include/machine/_defa
 2187              		.file 4 "/Applications/ArmGNUToolchain/12.3.rel1/arm-none-eabi/arm-none-eabi/include/sys/_stdint.h
 2188              		.file 5 "src-gen/Main/include/core/tag.h"
 2189              		.file 6 "src-gen/Main/include/core/utils/pqueue.h"
 2190              		.file 7 "src-gen/Main/include/core/lf_token.h"
 2191              		.file 8 "src-gen/Main/include/core/lf_types.h"
 2192              		.file 9 "/Applications/ArmGNUToolchain/12.3.rel1/arm-none-eabi/arm-none-eabi/include/string.h"
 2193              		.file 10 "/Applications/ArmGNUToolchain/12.3.rel1/arm-none-eabi/arm-none-eabi/include/assert.h"
 2194              		.file 11 "/Applications/ArmGNUToolchain/12.3.rel1/arm-none-eabi/arm-none-eabi/include/stdlib.h"
 2195              		.file 12 "src-gen/Main/include/core/utils/util.h"
 2196              		.file 13 "src-gen/Main/include/core/modal_models/modes.h"
 2197              		.file 14 "<built-in>"
ARM GAS  /var/folders/2h/lww79zv53b510qlyvytqnvq40000gn/T//cc1mYm3y.s 			page 54

