ARM GAS  /var/folders/2h/lww79zv53b510qlyvytqnvq40000gn/T//ccDbZlJP.s 			page 1


   1              		.cpu cortex-m4
   2              		.arch armv7e-m
   3              		.fpu fpv4-sp-d16
   4              		.eabi_attribute 27, 1
   5              		.eabi_attribute 28, 1
   6              		.eabi_attribute 20, 1
   7              		.eabi_attribute 21, 1
   8              		.eabi_attribute 23, 3
   9              		.eabi_attribute 24, 1
  10              		.eabi_attribute 25, 1
  11              		.eabi_attribute 26, 1
  12              		.eabi_attribute 30, 1
  13              		.eabi_attribute 34, 1
  14              		.eabi_attribute 18, 4
  15              		.file	"reactor_common.c"
  16              		.text
  17              	.Ltext0:
  18              		.cfi_sections	.debug_frame
  19              		.file 1 "src-gen/Main/core/reactor_common.c"
  20              		.section	.rodata._lf_get_new_event.str1.4,"aMS",%progbits,1
  21              		.align	2
  22              	.LC0:
  23 0000 656E7620 		.ascii	"env != GLOBAL_ENVIRONMENT\000"
  23      213D2047 
  23      4C4F4241 
  23      4C5F454E 
  23      5649524F 
  24 001a 0000     		.align	2
  25              	.LC1:
  26 001c 7372632D 		.ascii	"src-gen/Main/core/reactor_common.c\000"
  26      67656E2F 
  26      4D61696E 
  26      2F636F72 
  26      652F7265 
  27 003f 00       		.align	2
  28              	.LC2:
  29 0040 4F757420 		.ascii	"Out of memory!\000"
  29      6F66206D 
  29      656D6F72 
  29      792100
  30              		.section	.text._lf_get_new_event,"ax",%progbits
  31              		.align	1
  32              		.syntax unified
  33              		.thumb
  34              		.thumb_func
  36              	_lf_get_new_event:
  37              	.LVL0:
  38              	.LFB144:
   1:src-gen/Main/core/reactor_common.c **** /* Runtime infrastructure for the C target of Lingua Franca. */
   2:src-gen/Main/core/reactor_common.c **** 
   3:src-gen/Main/core/reactor_common.c **** /*************
   4:src-gen/Main/core/reactor_common.c **** Copyright (c) 2019, The University of California at Berkeley.
   5:src-gen/Main/core/reactor_common.c **** 
   6:src-gen/Main/core/reactor_common.c **** Redistribution and use in source and binary forms, with or without modification,
   7:src-gen/Main/core/reactor_common.c **** are permitted provided that the following conditions are met:
   8:src-gen/Main/core/reactor_common.c **** 
   9:src-gen/Main/core/reactor_common.c **** 1. Redistributions of source code must retain the above copyright notice,
ARM GAS  /var/folders/2h/lww79zv53b510qlyvytqnvq40000gn/T//ccDbZlJP.s 			page 2


  10:src-gen/Main/core/reactor_common.c ****    this list of conditions and the following disclaimer.
  11:src-gen/Main/core/reactor_common.c **** 
  12:src-gen/Main/core/reactor_common.c **** 2. Redistributions in binary form must reproduce the above copyright notice,
  13:src-gen/Main/core/reactor_common.c ****    this list of conditions and the following disclaimer in the documentation
  14:src-gen/Main/core/reactor_common.c ****    and/or other materials provided with the distribution.
  15:src-gen/Main/core/reactor_common.c **** 
  16:src-gen/Main/core/reactor_common.c **** THIS SOFTWARE IS PROVIDED BY THE COPYRIGHT HOLDERS AND CONTRIBUTORS "AS IS" AND ANY
  17:src-gen/Main/core/reactor_common.c **** EXPRESS OR IMPLIED WARRANTIES, INCLUDING, BUT NOT LIMITED TO, THE IMPLIED WARRANTIES OF
  18:src-gen/Main/core/reactor_common.c **** MERCHANTABILITY AND FITNESS FOR A PARTICULAR PURPOSE ARE DISCLAIMED. IN NO EVENT SHALL
  19:src-gen/Main/core/reactor_common.c **** THE COPYRIGHT HOLDER OR CONTRIBUTORS BE LIABLE FOR ANY DIRECT, INDIRECT, INCIDENTAL,
  20:src-gen/Main/core/reactor_common.c **** SPECIAL, EXEMPLARY, OR CONSEQUENTIAL DAMAGES (INCLUDING, BUT NOT LIMITED TO,
  21:src-gen/Main/core/reactor_common.c **** PROCUREMENT OF SUBSTITUTE GOODS OR SERVICES; LOSS OF USE, DATA, OR PROFITS; OR BUSINESS
  22:src-gen/Main/core/reactor_common.c **** INTERRUPTION) HOWEVER CAUSED AND ON ANY THEORY OF LIABILITY, WHETHER IN CONTRACT,
  23:src-gen/Main/core/reactor_common.c **** STRICT LIABILITY, OR TORT (INCLUDING NEGLIGENCE OR OTHERWISE) ARISING IN ANY WAY OUT OF
  24:src-gen/Main/core/reactor_common.c **** THE USE OF THIS SOFTWARE, EVEN IF ADVISED OF THE POSSIBILITY OF SUCH DAMAGE.
  25:src-gen/Main/core/reactor_common.c **** ***************/
  26:src-gen/Main/core/reactor_common.c **** 
  27:src-gen/Main/core/reactor_common.c **** /**
  28:src-gen/Main/core/reactor_common.c ****  * Runtime infrastructure for the C target of Lingua Franca.
  29:src-gen/Main/core/reactor_common.c ****  * This file contains resources that are shared by the threaded and
  30:src-gen/Main/core/reactor_common.c ****  * non-threaded versions of the C runtime.
  31:src-gen/Main/core/reactor_common.c ****  *
  32:src-gen/Main/core/reactor_common.c ****  *  @author{Edward A. Lee <eal@berkeley.edu>}
  33:src-gen/Main/core/reactor_common.c ****  *  @author{Marten Lohstroh <marten@berkeley.edu>}
  34:src-gen/Main/core/reactor_common.c ****  *  @author{Mehrdad Niknami <mniknami@berkeley.edu>}
  35:src-gen/Main/core/reactor_common.c ****  *  @author{Soroush Bateni <soroush@utdallas.edu}
  36:src-gen/Main/core/reactor_common.c ****  *  @author{Alexander Schulz-Rosengarten <als@informatik.uni-kiel.de>}
  37:src-gen/Main/core/reactor_common.c ****  *  @author{Erling Rennemo Jellum <erling.r.jellum0@ntnu.no>}
  38:src-gen/Main/core/reactor_common.c ****  */
  39:src-gen/Main/core/reactor_common.c **** #include <assert.h>
  40:src-gen/Main/core/reactor_common.c **** #include <stdio.h>
  41:src-gen/Main/core/reactor_common.c **** #include <string.h>
  42:src-gen/Main/core/reactor_common.c **** #include <time.h>
  43:src-gen/Main/core/reactor_common.c **** 
  44:src-gen/Main/core/reactor_common.c **** #include "platform.h"
  45:src-gen/Main/core/reactor_common.c **** #include "lf_types.h"
  46:src-gen/Main/core/reactor_common.c **** #ifdef MODAL_REACTORS
  47:src-gen/Main/core/reactor_common.c **** #include "modes.h"
  48:src-gen/Main/core/reactor_common.c **** #endif
  49:src-gen/Main/core/reactor_common.c **** #ifdef FEDERATED
  50:src-gen/Main/core/reactor_common.c **** #include "federate.h"
  51:src-gen/Main/core/reactor_common.c **** #endif
  52:src-gen/Main/core/reactor_common.c **** #include "port.h"
  53:src-gen/Main/core/reactor_common.c **** #include "pqueue.h"
  54:src-gen/Main/core/reactor_common.c **** #include "reactor.h"
  55:src-gen/Main/core/reactor_common.c **** #include "reactor_common.h"
  56:src-gen/Main/core/reactor_common.c **** #include "tag.h"
  57:src-gen/Main/core/reactor_common.c **** #include "trace.h"
  58:src-gen/Main/core/reactor_common.c **** #include "util.h"
  59:src-gen/Main/core/reactor_common.c **** #include "vector.h"
  60:src-gen/Main/core/reactor_common.c **** #include "hashset/hashset.h"
  61:src-gen/Main/core/reactor_common.c **** #include "hashset/hashset_itr.h"
  62:src-gen/Main/core/reactor_common.c **** #include "environment.h"
  63:src-gen/Main/core/reactor_common.c **** 
  64:src-gen/Main/core/reactor_common.c **** #ifdef LF_THREADED
  65:src-gen/Main/core/reactor_common.c **** #include "watchdog.h"
  66:src-gen/Main/core/reactor_common.c **** 
ARM GAS  /var/folders/2h/lww79zv53b510qlyvytqnvq40000gn/T//ccDbZlJP.s 			page 3


  67:src-gen/Main/core/reactor_common.c **** // Code generated global variables.
  68:src-gen/Main/core/reactor_common.c **** extern int _lf_watchdog_count;
  69:src-gen/Main/core/reactor_common.c **** extern watchdog_t* _lf_watchdogs;
  70:src-gen/Main/core/reactor_common.c **** #endif
  71:src-gen/Main/core/reactor_common.c **** 
  72:src-gen/Main/core/reactor_common.c **** // Global variable defined in tag.c:
  73:src-gen/Main/core/reactor_common.c **** extern instant_t start_time;
  74:src-gen/Main/core/reactor_common.c **** 
  75:src-gen/Main/core/reactor_common.c **** // Global variable defined in lf_token.c:
  76:src-gen/Main/core/reactor_common.c **** extern int _lf_count_payload_allocations;
  77:src-gen/Main/core/reactor_common.c **** 
  78:src-gen/Main/core/reactor_common.c **** /**
  79:src-gen/Main/core/reactor_common.c ****  * Indicator of whether to wait for physical time to match logical time.
  80:src-gen/Main/core/reactor_common.c ****  * By default, execution will wait. The command-line argument -fast will
  81:src-gen/Main/core/reactor_common.c ****  * eliminate the wait and allow logical time to exceed physical time.
  82:src-gen/Main/core/reactor_common.c ****  */
  83:src-gen/Main/core/reactor_common.c **** bool fast = false;
  84:src-gen/Main/core/reactor_common.c **** 
  85:src-gen/Main/core/reactor_common.c **** /**
  86:src-gen/Main/core/reactor_common.c ****  * The number of worker threads for threaded execution.
  87:src-gen/Main/core/reactor_common.c ****  * By default, execution is not threaded and this variable will have value 0.
  88:src-gen/Main/core/reactor_common.c ****  *
  89:src-gen/Main/core/reactor_common.c ****  * If the execution is threaded, a value of 0 indicates that the runtime should
  90:src-gen/Main/core/reactor_common.c ****  * decide on the number of workers (which will be decided based on the number of
  91:src-gen/Main/core/reactor_common.c ****  * available cores on the host machine).
  92:src-gen/Main/core/reactor_common.c ****  */
  93:src-gen/Main/core/reactor_common.c **** unsigned int _lf_number_of_workers = 0u;
  94:src-gen/Main/core/reactor_common.c **** 
  95:src-gen/Main/core/reactor_common.c **** /**
  96:src-gen/Main/core/reactor_common.c ****  * The logical time to elapse during execution, or -1 if no timeout time has
  97:src-gen/Main/core/reactor_common.c ****  * been given. When the logical equal to start_time + duration has been
  98:src-gen/Main/core/reactor_common.c ****  * reached, execution will terminate.
  99:src-gen/Main/core/reactor_common.c ****  */
 100:src-gen/Main/core/reactor_common.c **** instant_t duration = -1LL;
 101:src-gen/Main/core/reactor_common.c **** 
 102:src-gen/Main/core/reactor_common.c **** /**
 103:src-gen/Main/core/reactor_common.c ****  * Indicates whether or not the execution
 104:src-gen/Main/core/reactor_common.c ****  * has started.
 105:src-gen/Main/core/reactor_common.c ****  */
 106:src-gen/Main/core/reactor_common.c **** bool _lf_execution_started = false;
 107:src-gen/Main/core/reactor_common.c **** 
 108:src-gen/Main/core/reactor_common.c **** /** Indicator of whether the keepalive command-line option was given. */
 109:src-gen/Main/core/reactor_common.c **** bool keepalive_specified = false;
 110:src-gen/Main/core/reactor_common.c **** 
 111:src-gen/Main/core/reactor_common.c **** /**
 112:src-gen/Main/core/reactor_common.c ****  * Global STP offset uniformly applied to advancement of each
 113:src-gen/Main/core/reactor_common.c ****  * time step in federated execution. This can be retrieved in
 114:src-gen/Main/core/reactor_common.c ****  * user code by calling lf_get_stp_offset() and adjusted by
 115:src-gen/Main/core/reactor_common.c ****  * calling lf_set_stp_offset(interval_t offset).
 116:src-gen/Main/core/reactor_common.c ****  */
 117:src-gen/Main/core/reactor_common.c **** interval_t _lf_fed_STA_offset = 0LL;
 118:src-gen/Main/core/reactor_common.c **** 
 119:src-gen/Main/core/reactor_common.c **** /**
 120:src-gen/Main/core/reactor_common.c ****  * Allocate memory using calloc (so the allocated memory is zeroed out)
 121:src-gen/Main/core/reactor_common.c ****  * and record the allocated memory on the specified self struct so that
 122:src-gen/Main/core/reactor_common.c ****  * it will be freed when calling {@link free_reactor(self_base_t)}.
 123:src-gen/Main/core/reactor_common.c ****  * @param count The number of items of size 'size' to accomodate.
ARM GAS  /var/folders/2h/lww79zv53b510qlyvytqnvq40000gn/T//ccDbZlJP.s 			page 4


 124:src-gen/Main/core/reactor_common.c ****  * @param size The size of each item.
 125:src-gen/Main/core/reactor_common.c ****  * @param head Pointer to the head of a list on which to record
 126:src-gen/Main/core/reactor_common.c ****  *  the allocation, or NULL to not record it.
 127:src-gen/Main/core/reactor_common.c ****  * @return A pointer to the allocated memory.
 128:src-gen/Main/core/reactor_common.c ****  */
 129:src-gen/Main/core/reactor_common.c **** void* _lf_allocate(
 130:src-gen/Main/core/reactor_common.c ****         size_t count, size_t size, struct allocation_record_t** head) {
 131:src-gen/Main/core/reactor_common.c ****     void *mem = calloc(count, size);
 132:src-gen/Main/core/reactor_common.c ****     if (mem == NULL) lf_print_error_and_exit("Out of memory!");
 133:src-gen/Main/core/reactor_common.c ****     if (head != NULL) {
 134:src-gen/Main/core/reactor_common.c ****         struct allocation_record_t* record
 135:src-gen/Main/core/reactor_common.c ****                 = (allocation_record_t*)calloc(1, sizeof(allocation_record_t));
 136:src-gen/Main/core/reactor_common.c ****         if (record == NULL) lf_print_error_and_exit("Out of memory!");
 137:src-gen/Main/core/reactor_common.c ****         record->allocated = mem;
 138:src-gen/Main/core/reactor_common.c ****         allocation_record_t* tmp = *head; // Previous head of the list or NULL.
 139:src-gen/Main/core/reactor_common.c ****         *head = record;                   // New head of the list.
 140:src-gen/Main/core/reactor_common.c ****         record->next = tmp;
 141:src-gen/Main/core/reactor_common.c ****     }
 142:src-gen/Main/core/reactor_common.c ****     return mem;
 143:src-gen/Main/core/reactor_common.c **** }
 144:src-gen/Main/core/reactor_common.c **** 
 145:src-gen/Main/core/reactor_common.c **** /**
 146:src-gen/Main/core/reactor_common.c ****  * Head of a list of pointers to dynamically generated reactor
 147:src-gen/Main/core/reactor_common.c ****  * self structs to be freed in terminate().
 148:src-gen/Main/core/reactor_common.c ****  */
 149:src-gen/Main/core/reactor_common.c **** struct allocation_record_t* _lf_reactors_to_free = NULL;
 150:src-gen/Main/core/reactor_common.c **** 
 151:src-gen/Main/core/reactor_common.c **** /**
 152:src-gen/Main/core/reactor_common.c ****  * Allocate memory for a new runtime instance of a reactor.
 153:src-gen/Main/core/reactor_common.c ****  * This records the reactor on the list of reactors to be freed at
 154:src-gen/Main/core/reactor_common.c ****  * termination of the program. If you plan to free the reactor before
 155:src-gen/Main/core/reactor_common.c ****  * termination of the program, use calloc instead (which this uses).
 156:src-gen/Main/core/reactor_common.c ****  * @param size The size of the self struct, obtained with sizeof().
 157:src-gen/Main/core/reactor_common.c ****  */
 158:src-gen/Main/core/reactor_common.c **** void* _lf_new_reactor(size_t size) {
 159:src-gen/Main/core/reactor_common.c ****     return _lf_allocate(1, size, &_lf_reactors_to_free);
 160:src-gen/Main/core/reactor_common.c **** }
 161:src-gen/Main/core/reactor_common.c **** 
 162:src-gen/Main/core/reactor_common.c **** /**
 163:src-gen/Main/core/reactor_common.c ****  * Free memory on the specified allocation record, e.g. allocated by
 164:src-gen/Main/core/reactor_common.c ****  * {@link _lf_allocate(size_t, size_t, allocation_record_t**)}.
 165:src-gen/Main/core/reactor_common.c ****  * Mark the list empty by setting `*head` to NULL.
 166:src-gen/Main/core/reactor_common.c ****  * @param head Pointer to the head of a list on which to record
 167:src-gen/Main/core/reactor_common.c ****  *  the allocation, or NULL to not record it.
 168:src-gen/Main/core/reactor_common.c ****  */
 169:src-gen/Main/core/reactor_common.c **** void _lf_free(struct allocation_record_t** head) {
 170:src-gen/Main/core/reactor_common.c ****     if (head == NULL) return;
 171:src-gen/Main/core/reactor_common.c ****     struct allocation_record_t* record = *head;
 172:src-gen/Main/core/reactor_common.c ****     while (record != NULL) {
 173:src-gen/Main/core/reactor_common.c ****         LF_PRINT_DEBUG("Freeing memory at %p", record->allocated);
 174:src-gen/Main/core/reactor_common.c ****         free(record->allocated);
 175:src-gen/Main/core/reactor_common.c ****         struct allocation_record_t* tmp = record->next;
 176:src-gen/Main/core/reactor_common.c ****     	LF_PRINT_DEBUG("Freeing allocation record at %p", record);
 177:src-gen/Main/core/reactor_common.c ****         free(record);
 178:src-gen/Main/core/reactor_common.c ****         record = tmp;
 179:src-gen/Main/core/reactor_common.c ****     }
 180:src-gen/Main/core/reactor_common.c ****     *head = NULL;
ARM GAS  /var/folders/2h/lww79zv53b510qlyvytqnvq40000gn/T//ccDbZlJP.s 			page 5


 181:src-gen/Main/core/reactor_common.c **** }
 182:src-gen/Main/core/reactor_common.c **** 
 183:src-gen/Main/core/reactor_common.c **** /**
 184:src-gen/Main/core/reactor_common.c ****  * Free memory recorded on the allocations list of the specified reactor
 185:src-gen/Main/core/reactor_common.c ****  * and then free the specified self struct.
 186:src-gen/Main/core/reactor_common.c ****  * @param self The self struct of the reactor.
 187:src-gen/Main/core/reactor_common.c ****  */
 188:src-gen/Main/core/reactor_common.c **** void _lf_free_reactor(self_base_t *self) {
 189:src-gen/Main/core/reactor_common.c ****     _lf_free(&self->allocations);
 190:src-gen/Main/core/reactor_common.c ****     free(self);
 191:src-gen/Main/core/reactor_common.c **** }
 192:src-gen/Main/core/reactor_common.c **** 
 193:src-gen/Main/core/reactor_common.c **** /**
 194:src-gen/Main/core/reactor_common.c ****  * Free all the reactors that are allocated with
 195:src-gen/Main/core/reactor_common.c ****  * {@link #_lf_new_reactor(size_t)}.
 196:src-gen/Main/core/reactor_common.c ****  */
 197:src-gen/Main/core/reactor_common.c **** void _lf_free_all_reactors(void) {
 198:src-gen/Main/core/reactor_common.c ****     struct allocation_record_t* head = _lf_reactors_to_free;
 199:src-gen/Main/core/reactor_common.c ****     while (head != NULL) {
 200:src-gen/Main/core/reactor_common.c ****         _lf_free_reactor((self_base_t*)head->allocated);
 201:src-gen/Main/core/reactor_common.c ****         struct allocation_record_t* tmp = head->next;
 202:src-gen/Main/core/reactor_common.c ****         free(head);
 203:src-gen/Main/core/reactor_common.c ****         head = tmp;
 204:src-gen/Main/core/reactor_common.c ****     }
 205:src-gen/Main/core/reactor_common.c ****     _lf_reactors_to_free = NULL;
 206:src-gen/Main/core/reactor_common.c **** }
 207:src-gen/Main/core/reactor_common.c **** 
 208:src-gen/Main/core/reactor_common.c **** /**
 209:src-gen/Main/core/reactor_common.c ****  * Set the stop tag.
 210:src-gen/Main/core/reactor_common.c ****  *
 211:src-gen/Main/core/reactor_common.c ****  * This function will always choose the minimum
 212:src-gen/Main/core/reactor_common.c ****  * of the provided tag and stop_tag
 213:src-gen/Main/core/reactor_common.c ****  *
 214:src-gen/Main/core/reactor_common.c ****  * @note In threaded programs, the mutex must be locked before
 215:src-gen/Main/core/reactor_common.c ****  *  calling this function.
 216:src-gen/Main/core/reactor_common.c ****  */
 217:src-gen/Main/core/reactor_common.c **** void _lf_set_stop_tag(environment_t* env, tag_t tag) {
 218:src-gen/Main/core/reactor_common.c ****     assert(env != GLOBAL_ENVIRONMENT);
 219:src-gen/Main/core/reactor_common.c ****     if (lf_tag_compare(tag, env->stop_tag) < 0) {
 220:src-gen/Main/core/reactor_common.c ****         env->stop_tag = tag;
 221:src-gen/Main/core/reactor_common.c ****     }
 222:src-gen/Main/core/reactor_common.c **** }
 223:src-gen/Main/core/reactor_common.c **** 
 224:src-gen/Main/core/reactor_common.c **** /////////////////////////////
 225:src-gen/Main/core/reactor_common.c **** // The following functions are in scope for all reactors:
 226:src-gen/Main/core/reactor_common.c **** 
 227:src-gen/Main/core/reactor_common.c **** /**
 228:src-gen/Main/core/reactor_common.c ****  * Return the global STP offset on advancement of logical
 229:src-gen/Main/core/reactor_common.c ****  * time for federated execution.
 230:src-gen/Main/core/reactor_common.c ****  */
 231:src-gen/Main/core/reactor_common.c **** interval_t lf_get_stp_offset() {
 232:src-gen/Main/core/reactor_common.c ****     return _lf_fed_STA_offset;
 233:src-gen/Main/core/reactor_common.c **** }
 234:src-gen/Main/core/reactor_common.c **** 
 235:src-gen/Main/core/reactor_common.c **** /**
 236:src-gen/Main/core/reactor_common.c ****  * Set the global STP offset on advancement of logical
 237:src-gen/Main/core/reactor_common.c ****  * time for federated execution.
ARM GAS  /var/folders/2h/lww79zv53b510qlyvytqnvq40000gn/T//ccDbZlJP.s 			page 6


 238:src-gen/Main/core/reactor_common.c ****  *
 239:src-gen/Main/core/reactor_common.c ****  * @param offset A positive time value to be applied
 240:src-gen/Main/core/reactor_common.c ****  *  as the STP offset.
 241:src-gen/Main/core/reactor_common.c ****  */
 242:src-gen/Main/core/reactor_common.c **** void lf_set_stp_offset(interval_t offset) {
 243:src-gen/Main/core/reactor_common.c ****     if (offset > 0LL) {
 244:src-gen/Main/core/reactor_common.c ****         _lf_fed_STA_offset = offset;
 245:src-gen/Main/core/reactor_common.c ****     }
 246:src-gen/Main/core/reactor_common.c **** }
 247:src-gen/Main/core/reactor_common.c **** 
 248:src-gen/Main/core/reactor_common.c **** 
 249:src-gen/Main/core/reactor_common.c **** /**
 250:src-gen/Main/core/reactor_common.c ****  * Trigger 'reaction'.
 251:src-gen/Main/core/reactor_common.c ****  *
 252:src-gen/Main/core/reactor_common.c ****  * @param env Environment in which we are executing.
 253:src-gen/Main/core/reactor_common.c ****  * @param reaction The reaction.
 254:src-gen/Main/core/reactor_common.c ****  * @param worker_number The ID of the worker that is making this call. 0 should be
 255:src-gen/Main/core/reactor_common.c ****  *  used if there is only one worker (e.g., when the program is using the
 256:src-gen/Main/core/reactor_common.c ****  *  unthreaded C runtime). -1 is used for an anonymous call in a context where a
 257:src-gen/Main/core/reactor_common.c ****  *  worker number does not make sense (e.g., the caller is not a worker thread).
 258:src-gen/Main/core/reactor_common.c ****  */
 259:src-gen/Main/core/reactor_common.c **** void _lf_trigger_reaction(environment_t* env, reaction_t* reaction, int worker_number);
 260:src-gen/Main/core/reactor_common.c **** 
 261:src-gen/Main/core/reactor_common.c **** /**
 262:src-gen/Main/core/reactor_common.c ****  * Use tables to reset is_present fields to false,
 263:src-gen/Main/core/reactor_common.c ****  * set intended_tag fields in federated execution
 264:src-gen/Main/core/reactor_common.c ****  * to the current_tag, and decrement reference
 265:src-gen/Main/core/reactor_common.c ****  * counts between time steps and at the end of execution.
 266:src-gen/Main/core/reactor_common.c ****  */
 267:src-gen/Main/core/reactor_common.c **** void _lf_start_time_step(environment_t *env) {
 268:src-gen/Main/core/reactor_common.c ****     assert(env != GLOBAL_ENVIRONMENT);
 269:src-gen/Main/core/reactor_common.c ****     LF_PRINT_LOG("--------- Start time step at tag " PRINTF_TAG ".", env->current_tag.time - start_
 270:src-gen/Main/core/reactor_common.c ****     // Handle dynamically created tokens for mutable inputs.
 271:src-gen/Main/core/reactor_common.c ****     _lf_free_token_copies(env);
 272:src-gen/Main/core/reactor_common.c **** 
 273:src-gen/Main/core/reactor_common.c ****     bool** is_present_fields = env->is_present_fields_abbreviated;
 274:src-gen/Main/core/reactor_common.c ****     int size = env->is_present_fields_abbreviated_size;
 275:src-gen/Main/core/reactor_common.c ****     if (env->is_present_fields_abbreviated_size > env->is_present_fields_size) {
 276:src-gen/Main/core/reactor_common.c ****         size = env->is_present_fields_size;
 277:src-gen/Main/core/reactor_common.c ****         is_present_fields = env->is_present_fields;
 278:src-gen/Main/core/reactor_common.c ****     }
 279:src-gen/Main/core/reactor_common.c ****     for(int i = 0; i < size; i++) {
 280:src-gen/Main/core/reactor_common.c ****         *is_present_fields[i] = false;
 281:src-gen/Main/core/reactor_common.c ****     }
 282:src-gen/Main/core/reactor_common.c ****     // Reset sparse IO record sizes to 0, if any.
 283:src-gen/Main/core/reactor_common.c ****     if (env->sparse_io_record_sizes.start != NULL) {
 284:src-gen/Main/core/reactor_common.c ****         for (size_t i = 0; i < vector_size(&env->sparse_io_record_sizes); i++) {
 285:src-gen/Main/core/reactor_common.c ****             // NOTE: vector_at does not return the element at
 286:src-gen/Main/core/reactor_common.c ****             // the index, but rather returns a pointer to that element, which is
 287:src-gen/Main/core/reactor_common.c ****             // itself a pointer.
 288:src-gen/Main/core/reactor_common.c ****             int** sizep = (int**)vector_at(&env->sparse_io_record_sizes, i);
 289:src-gen/Main/core/reactor_common.c ****             if (sizep != NULL && *sizep != NULL) {
 290:src-gen/Main/core/reactor_common.c ****                 **sizep = 0;
 291:src-gen/Main/core/reactor_common.c ****             }
 292:src-gen/Main/core/reactor_common.c ****         }
 293:src-gen/Main/core/reactor_common.c ****     }
 294:src-gen/Main/core/reactor_common.c **** 
ARM GAS  /var/folders/2h/lww79zv53b510qlyvytqnvq40000gn/T//ccDbZlJP.s 			page 7


 295:src-gen/Main/core/reactor_common.c **** #ifdef FEDERATED_DECENTRALIZED
 296:src-gen/Main/core/reactor_common.c ****     for (int i = 0; i < env->is_present_fields_size; i++) {
 297:src-gen/Main/core/reactor_common.c ****         // FIXME: For now, an intended tag of (NEVER, 0)
 298:src-gen/Main/core/reactor_common.c ****         // indicates that it has never been set.
 299:src-gen/Main/core/reactor_common.c ****         *env->_lf_intended_tag_fields[i] = (tag_t) {NEVER, 0};
 300:src-gen/Main/core/reactor_common.c ****     }
 301:src-gen/Main/core/reactor_common.c **** #endif
 302:src-gen/Main/core/reactor_common.c **** #ifdef FEDERATED
 303:src-gen/Main/core/reactor_common.c ****     // Reset absent fields on network ports because
 304:src-gen/Main/core/reactor_common.c ****     // their status is unknown
 305:src-gen/Main/core/reactor_common.c ****     reset_status_fields_on_input_port_triggers();
 306:src-gen/Main/core/reactor_common.c ****     // Signal the helper thread to reset its progress since the logical time has changed.
 307:src-gen/Main/core/reactor_common.c ****     lf_cond_signal(&logical_time_changed);
 308:src-gen/Main/core/reactor_common.c **** #endif
 309:src-gen/Main/core/reactor_common.c ****     env->is_present_fields_abbreviated_size = 0;
 310:src-gen/Main/core/reactor_common.c **** }
 311:src-gen/Main/core/reactor_common.c **** 
 312:src-gen/Main/core/reactor_common.c **** /**
 313:src-gen/Main/core/reactor_common.c ****  * A helper function that returns true if the provided tag is after stop tag.
 314:src-gen/Main/core/reactor_common.c ****  *
 315:src-gen/Main/core/reactor_common.c ****  * @param env Environment in which we are executing.
 316:src-gen/Main/core/reactor_common.c ****  * @param tag The tag to check against stop tag
 317:src-gen/Main/core/reactor_common.c ****  */
 318:src-gen/Main/core/reactor_common.c **** bool _lf_is_tag_after_stop_tag(environment_t* env, tag_t tag) {
 319:src-gen/Main/core/reactor_common.c ****     assert(env != GLOBAL_ENVIRONMENT);
 320:src-gen/Main/core/reactor_common.c ****     return (lf_tag_compare(tag, env->stop_tag) > 0);
 321:src-gen/Main/core/reactor_common.c **** }
 322:src-gen/Main/core/reactor_common.c **** 
 323:src-gen/Main/core/reactor_common.c **** /**
 324:src-gen/Main/core/reactor_common.c ****  * Pop all events from event_q with timestamp equal to current_tag.time, extract all
 325:src-gen/Main/core/reactor_common.c ****  * the reactions triggered by these events, and stick them into the reaction
 326:src-gen/Main/core/reactor_common.c ****  * queue.
 327:src-gen/Main/core/reactor_common.c ****  * @param env Environment in which we are executing.
 328:src-gen/Main/core/reactor_common.c ****  */
 329:src-gen/Main/core/reactor_common.c **** void _lf_pop_events(environment_t *env) {
 330:src-gen/Main/core/reactor_common.c ****     assert(env != GLOBAL_ENVIRONMENT);
 331:src-gen/Main/core/reactor_common.c **** #ifdef MODAL_REACTORS
 332:src-gen/Main/core/reactor_common.c ****     _lf_handle_mode_triggered_reactions(env);
 333:src-gen/Main/core/reactor_common.c **** #endif
 334:src-gen/Main/core/reactor_common.c **** 
 335:src-gen/Main/core/reactor_common.c ****     event_t* event = (event_t*)pqueue_peek(env->event_q);
 336:src-gen/Main/core/reactor_common.c ****     while(event != NULL && event->time == env->current_tag.time) {
 337:src-gen/Main/core/reactor_common.c ****         event = (event_t*)pqueue_pop(env->event_q);
 338:src-gen/Main/core/reactor_common.c **** 
 339:src-gen/Main/core/reactor_common.c ****         if (event->is_dummy) {
 340:src-gen/Main/core/reactor_common.c ****             LF_PRINT_DEBUG("Popped dummy event from the event queue.");
 341:src-gen/Main/core/reactor_common.c ****             if (event->next != NULL) {
 342:src-gen/Main/core/reactor_common.c ****                 LF_PRINT_DEBUG("Putting event from the event queue for the next microstep.");
 343:src-gen/Main/core/reactor_common.c ****                 pqueue_insert(env->next_q, event->next);
 344:src-gen/Main/core/reactor_common.c ****             }
 345:src-gen/Main/core/reactor_common.c ****             _lf_recycle_event(env, event);
 346:src-gen/Main/core/reactor_common.c ****             // Peek at the next event in the event queue.
 347:src-gen/Main/core/reactor_common.c ****             event = (event_t*)pqueue_peek(env->event_q);
 348:src-gen/Main/core/reactor_common.c ****             continue;
 349:src-gen/Main/core/reactor_common.c ****         }
 350:src-gen/Main/core/reactor_common.c **** 
 351:src-gen/Main/core/reactor_common.c **** #ifdef MODAL_REACTORS
ARM GAS  /var/folders/2h/lww79zv53b510qlyvytqnvq40000gn/T//ccDbZlJP.s 			page 8


 352:src-gen/Main/core/reactor_common.c ****         // If this event is associated with an incative it should haven been suspended and no longe
 353:src-gen/Main/core/reactor_common.c ****         // FIXME This should not be possible
 354:src-gen/Main/core/reactor_common.c ****         if (!_lf_mode_is_active(event->trigger->mode)) {
 355:src-gen/Main/core/reactor_common.c ****             lf_print_warning("Assumption violated. There is an event on the event queue that is ass
 356:src-gen/Main/core/reactor_common.c ****         }
 357:src-gen/Main/core/reactor_common.c **** #endif
 358:src-gen/Main/core/reactor_common.c **** 
 359:src-gen/Main/core/reactor_common.c ****         lf_token_t *token = event->token;
 360:src-gen/Main/core/reactor_common.c **** 
 361:src-gen/Main/core/reactor_common.c ****         // Put the corresponding reactions onto the reaction queue.
 362:src-gen/Main/core/reactor_common.c ****         for (int i = 0; i < event->trigger->number_of_reactions; i++) {
 363:src-gen/Main/core/reactor_common.c ****             reaction_t *reaction = event->trigger->reactions[i];
 364:src-gen/Main/core/reactor_common.c ****             // Do not enqueue this reaction twice.
 365:src-gen/Main/core/reactor_common.c ****             if (reaction->status == inactive) {
 366:src-gen/Main/core/reactor_common.c **** #ifdef FEDERATED_DECENTRALIZED
 367:src-gen/Main/core/reactor_common.c ****                 // In federated execution, an intended tag that is not (NEVER, 0)
 368:src-gen/Main/core/reactor_common.c ****                 // indicates that this particular event is triggered by a network message.
 369:src-gen/Main/core/reactor_common.c ****                 // The intended tag is set in handle_timed_message in federate.c whenever
 370:src-gen/Main/core/reactor_common.c ****                 // a timed message arrives from another federate.
 371:src-gen/Main/core/reactor_common.c ****                 if (event->intended_tag.time != NEVER) {
 372:src-gen/Main/core/reactor_common.c ****                     // If the intended tag of the event is actually set,
 373:src-gen/Main/core/reactor_common.c ****                     // transfer the intended tag to the trigger so that
 374:src-gen/Main/core/reactor_common.c ****                     // the reaction can access the value.
 375:src-gen/Main/core/reactor_common.c ****                     event->trigger->intended_tag = event->intended_tag;
 376:src-gen/Main/core/reactor_common.c ****                     // And check if it is in the past compared to the current tag.
 377:src-gen/Main/core/reactor_common.c ****                     if (lf_tag_compare(event->intended_tag,
 378:src-gen/Main/core/reactor_common.c ****                                     env->current_tag) < 0) {
 379:src-gen/Main/core/reactor_common.c ****                         // Mark the triggered reaction with a STP violation
 380:src-gen/Main/core/reactor_common.c ****                         reaction->is_STP_violated = true;
 381:src-gen/Main/core/reactor_common.c ****                         LF_PRINT_LOG("Trigger %p has violated the reaction's STP offset. Intended t
 382:src-gen/Main/core/reactor_common.c ****                                     event->trigger,
 383:src-gen/Main/core/reactor_common.c ****                                     event->intended_tag.time - start_time, event->intended_tag.micr
 384:src-gen/Main/core/reactor_common.c ****                                     env->current_tag.time - start_time, env->current_tag.microstep)
 385:src-gen/Main/core/reactor_common.c ****                     }
 386:src-gen/Main/core/reactor_common.c ****                 }
 387:src-gen/Main/core/reactor_common.c **** #endif
 388:src-gen/Main/core/reactor_common.c **** 
 389:src-gen/Main/core/reactor_common.c **** #ifdef MODAL_REACTORS
 390:src-gen/Main/core/reactor_common.c ****                 // Check if reaction is disabled by mode inactivity
 391:src-gen/Main/core/reactor_common.c ****                 if (!_lf_mode_is_active(reaction->mode)) {
 392:src-gen/Main/core/reactor_common.c ****                     LF_PRINT_DEBUG("Suppressing reaction %s due inactive mode.", reaction->name);
 393:src-gen/Main/core/reactor_common.c ****                     continue; // Suppress reaction by preventing entering reaction queue
 394:src-gen/Main/core/reactor_common.c ****                 }
 395:src-gen/Main/core/reactor_common.c **** #endif
 396:src-gen/Main/core/reactor_common.c ****                 LF_PRINT_DEBUG("Triggering reaction %s.", reaction->name);
 397:src-gen/Main/core/reactor_common.c ****                 _lf_trigger_reaction(env, reaction, -1);
 398:src-gen/Main/core/reactor_common.c ****             } else {
 399:src-gen/Main/core/reactor_common.c ****                 LF_PRINT_DEBUG("Reaction is already triggered: %s", reaction->name);
 400:src-gen/Main/core/reactor_common.c ****             }
 401:src-gen/Main/core/reactor_common.c ****         }
 402:src-gen/Main/core/reactor_common.c **** 
 403:src-gen/Main/core/reactor_common.c ****         // Mark the trigger present.
 404:src-gen/Main/core/reactor_common.c ****         event->trigger->status = present;
 405:src-gen/Main/core/reactor_common.c **** 
 406:src-gen/Main/core/reactor_common.c ****         // If the trigger is a periodic timer, create a new event for its next execution.
 407:src-gen/Main/core/reactor_common.c ****         if (event->trigger->is_timer && event->trigger->period > 0LL) {
 408:src-gen/Main/core/reactor_common.c ****             // Reschedule the trigger.
ARM GAS  /var/folders/2h/lww79zv53b510qlyvytqnvq40000gn/T//ccDbZlJP.s 			page 9


 409:src-gen/Main/core/reactor_common.c ****             _lf_schedule(env, event->trigger, event->trigger->period, NULL);
 410:src-gen/Main/core/reactor_common.c ****         }
 411:src-gen/Main/core/reactor_common.c **** 
 412:src-gen/Main/core/reactor_common.c ****         // Copy the token pointer into the trigger struct so that the
 413:src-gen/Main/core/reactor_common.c ****         // reactions can access it. This overwrites the previous template token,
 414:src-gen/Main/core/reactor_common.c ****         // for which we decrement the reference count.
 415:src-gen/Main/core/reactor_common.c ****         _lf_replace_template_token((token_template_t*)event->trigger, token);
 416:src-gen/Main/core/reactor_common.c **** 
 417:src-gen/Main/core/reactor_common.c ****         // Decrement the reference count because the event queue no longer needs this token.
 418:src-gen/Main/core/reactor_common.c ****         // This has to be done after the above call to _lf_replace_template_token because
 419:src-gen/Main/core/reactor_common.c ****         // that call will increment the reference count and we need to not let the token be
 420:src-gen/Main/core/reactor_common.c ****         // freed prematurely.
 421:src-gen/Main/core/reactor_common.c ****         _lf_done_using(token);
 422:src-gen/Main/core/reactor_common.c **** 
 423:src-gen/Main/core/reactor_common.c ****         // Mark the trigger present.
 424:src-gen/Main/core/reactor_common.c ****         event->trigger->status = present;
 425:src-gen/Main/core/reactor_common.c **** 
 426:src-gen/Main/core/reactor_common.c ****         // If this event points to a next event, insert it into the next queue.
 427:src-gen/Main/core/reactor_common.c ****         if (event->next != NULL) {
 428:src-gen/Main/core/reactor_common.c ****             // Insert the next event into the next queue.
 429:src-gen/Main/core/reactor_common.c ****             pqueue_insert(env->next_q, event->next);
 430:src-gen/Main/core/reactor_common.c ****         }
 431:src-gen/Main/core/reactor_common.c **** 
 432:src-gen/Main/core/reactor_common.c ****         _lf_recycle_event(env, event);
 433:src-gen/Main/core/reactor_common.c **** 
 434:src-gen/Main/core/reactor_common.c ****         // Peek at the next event in the event queue.
 435:src-gen/Main/core/reactor_common.c ****         event = (event_t*)pqueue_peek(env->event_q);
 436:src-gen/Main/core/reactor_common.c ****     };
 437:src-gen/Main/core/reactor_common.c **** 
 438:src-gen/Main/core/reactor_common.c ****     LF_PRINT_DEBUG("There are %zu events deferred to the next microstep.", pqueue_size(env->next_q)
 439:src-gen/Main/core/reactor_common.c **** 
 440:src-gen/Main/core/reactor_common.c ****     // After populating the reaction queue, see if there are things on the
 441:src-gen/Main/core/reactor_common.c ****     // next queue to put back into the event queue.
 442:src-gen/Main/core/reactor_common.c ****     while(pqueue_peek(env->next_q) != NULL) {
 443:src-gen/Main/core/reactor_common.c ****         pqueue_insert(env->event_q, pqueue_pop(env->next_q));
 444:src-gen/Main/core/reactor_common.c ****     }
 445:src-gen/Main/core/reactor_common.c **** }
 446:src-gen/Main/core/reactor_common.c **** 
 447:src-gen/Main/core/reactor_common.c **** /**
 448:src-gen/Main/core/reactor_common.c ****  * Get a new event. If there is a recycled event available, use that.
 449:src-gen/Main/core/reactor_common.c ****  * If not, allocate a new one. In either case, all fields will be zero'ed out.
 450:src-gen/Main/core/reactor_common.c ****  * @param env Environment in which we are executing.
 451:src-gen/Main/core/reactor_common.c ****  */
 452:src-gen/Main/core/reactor_common.c **** static event_t* _lf_get_new_event(environment_t* env) {
  39              		.loc 1 452 55 view -0
  40              		.cfi_startproc
  41              		@ args = 0, pretend = 0, frame = 0
  42              		@ frame_needed = 0, uses_anonymous_args = 0
  43              		.loc 1 452 55 is_stmt 0 view .LVU1
  44 0000 10B5     		push	{r4, lr}
  45              	.LCFI0:
  46              		.cfi_def_cfa_offset 8
  47              		.cfi_offset 4, -8
  48              		.cfi_offset 14, -4
 453:src-gen/Main/core/reactor_common.c ****     assert(env != GLOBAL_ENVIRONMENT);
  49              		.loc 1 453 5 is_stmt 1 view .LVU2
  50 0002 30B1     		cbz	r0, .L5
ARM GAS  /var/folders/2h/lww79zv53b510qlyvytqnvq40000gn/T//ccDbZlJP.s 			page 10


 454:src-gen/Main/core/reactor_common.c ****     // Recycle event_t structs, if possible.
 455:src-gen/Main/core/reactor_common.c ****     event_t* e = (event_t*)pqueue_pop(env->recycle_q);
  51              		.loc 1 455 5 view .LVU3
  52              		.loc 1 455 28 is_stmt 0 view .LVU4
  53 0004 C06A     		ldr	r0, [r0, #44]
  54              	.LVL1:
  55              		.loc 1 455 28 view .LVU5
  56 0006 FFF7FEFF 		bl	pqueue_pop
  57              	.LVL2:
 456:src-gen/Main/core/reactor_common.c ****     if (e == NULL) {
  58              		.loc 1 456 5 is_stmt 1 view .LVU6
  59              		.loc 1 456 8 is_stmt 0 view .LVU7
  60 000a 0446     		mov	r4, r0
  61 000c 40B1     		cbz	r0, .L6
  62              	.LVL3:
  63              	.L1:
 457:src-gen/Main/core/reactor_common.c ****         e = (event_t*)calloc(1, sizeof(struct event_t));
 458:src-gen/Main/core/reactor_common.c ****         if (e == NULL) lf_print_error_and_exit("Out of memory!");
 459:src-gen/Main/core/reactor_common.c **** #ifdef FEDERATED_DECENTRALIZED
 460:src-gen/Main/core/reactor_common.c ****         e->intended_tag = (tag_t) { .time = NEVER, .microstep = 0u};
 461:src-gen/Main/core/reactor_common.c **** #endif
 462:src-gen/Main/core/reactor_common.c ****     }
 463:src-gen/Main/core/reactor_common.c ****     return e;
 464:src-gen/Main/core/reactor_common.c **** }
  64              		.loc 1 464 1 view .LVU8
  65 000e 2046     		mov	r0, r4
  66 0010 10BD     		pop	{r4, pc}
  67              	.LVL4:
  68              	.L5:
 453:src-gen/Main/core/reactor_common.c ****     // Recycle event_t structs, if possible.
  69              		.loc 1 453 5 discriminator 1 view .LVU9
  70 0012 094B     		ldr	r3, .L7
  71 0014 094A     		ldr	r2, .L7+4
  72 0016 40F2C511 		movw	r1, #453
  73 001a 0948     		ldr	r0, .L7+8
  74              	.LVL5:
 453:src-gen/Main/core/reactor_common.c ****     // Recycle event_t structs, if possible.
  75              		.loc 1 453 5 discriminator 1 view .LVU10
  76 001c FFF7FEFF 		bl	__assert_func
  77              	.LVL6:
  78              	.L6:
 457:src-gen/Main/core/reactor_common.c ****         e = (event_t*)calloc(1, sizeof(struct event_t));
  79              		.loc 1 457 9 is_stmt 1 view .LVU11
 457:src-gen/Main/core/reactor_common.c ****         e = (event_t*)calloc(1, sizeof(struct event_t));
  80              		.loc 1 457 23 is_stmt 0 view .LVU12
  81 0020 2021     		movs	r1, #32
  82 0022 0120     		movs	r0, #1
  83              	.LVL7:
 457:src-gen/Main/core/reactor_common.c ****         e = (event_t*)calloc(1, sizeof(struct event_t));
  84              		.loc 1 457 23 view .LVU13
  85 0024 FFF7FEFF 		bl	calloc
  86              	.LVL8:
 458:src-gen/Main/core/reactor_common.c **** #ifdef FEDERATED_DECENTRALIZED
  87              		.loc 1 458 9 is_stmt 1 view .LVU14
 458:src-gen/Main/core/reactor_common.c **** #ifdef FEDERATED_DECENTRALIZED
  88              		.loc 1 458 12 is_stmt 0 view .LVU15
  89 0028 0446     		mov	r4, r0
ARM GAS  /var/folders/2h/lww79zv53b510qlyvytqnvq40000gn/T//ccDbZlJP.s 			page 11


  90 002a 0028     		cmp	r0, #0
  91 002c EFD1     		bne	.L1
 458:src-gen/Main/core/reactor_common.c **** #ifdef FEDERATED_DECENTRALIZED
  92              		.loc 1 458 24 is_stmt 1 discriminator 1 view .LVU16
  93 002e 0548     		ldr	r0, .L7+12
  94              	.LVL9:
 458:src-gen/Main/core/reactor_common.c **** #ifdef FEDERATED_DECENTRALIZED
  95              		.loc 1 458 24 is_stmt 0 discriminator 1 view .LVU17
  96 0030 FFF7FEFF 		bl	lf_print_error_and_exit
  97              	.LVL10:
 463:src-gen/Main/core/reactor_common.c **** }
  98              		.loc 1 463 5 is_stmt 1 discriminator 1 view .LVU18
 463:src-gen/Main/core/reactor_common.c **** }
  99              		.loc 1 463 12 is_stmt 0 discriminator 1 view .LVU19
 100 0034 EBE7     		b	.L1
 101              	.L8:
 102 0036 00BF     		.align	2
 103              	.L7:
 104 0038 00000000 		.word	.LC0
 105 003c 00000000 		.word	__func__.10
 106 0040 1C000000 		.word	.LC1
 107 0044 40000000 		.word	.LC2
 108              		.cfi_endproc
 109              	.LFE144:
 111              		.section	.text._lf_replace_token,"ax",%progbits
 112              		.align	1
 113              		.syntax unified
 114              		.thumb
 115              		.thumb_func
 117              	_lf_replace_token:
 118              	.LVL11:
 119              	.LFB151:
 465:src-gen/Main/core/reactor_common.c **** 
 466:src-gen/Main/core/reactor_common.c **** /**
 467:src-gen/Main/core/reactor_common.c ****  * Initialize the given timer.
 468:src-gen/Main/core/reactor_common.c ****  * If this timer has a zero offset, enqueue the reactions it triggers.
 469:src-gen/Main/core/reactor_common.c ****  * If this timer is to trigger reactions at a _future_ tag as well,
 470:src-gen/Main/core/reactor_common.c ****  * schedule it accordingly.
 471:src-gen/Main/core/reactor_common.c ****  * @param env Environment in which we are executing.
 472:src-gen/Main/core/reactor_common.c ****  * @param timer The timer to initialize.
 473:src-gen/Main/core/reactor_common.c ****  */
 474:src-gen/Main/core/reactor_common.c **** void _lf_initialize_timer(environment_t* env, trigger_t* timer) {
 475:src-gen/Main/core/reactor_common.c ****     assert(env != GLOBAL_ENVIRONMENT);
 476:src-gen/Main/core/reactor_common.c ****     interval_t delay = 0;
 477:src-gen/Main/core/reactor_common.c **** 
 478:src-gen/Main/core/reactor_common.c **** #ifdef MODAL_REACTORS
 479:src-gen/Main/core/reactor_common.c ****     // Suspend all timer events that start in inactive mode
 480:src-gen/Main/core/reactor_common.c ****     if (!_lf_mode_is_active(timer->mode)) {
 481:src-gen/Main/core/reactor_common.c ****         // FIXME: The following check might not be working as
 482:src-gen/Main/core/reactor_common.c ****         // intended
 483:src-gen/Main/core/reactor_common.c ****         // && (timer->offset != 0 || timer->period != 0)) {
 484:src-gen/Main/core/reactor_common.c ****         event_t* e = _lf_get_new_event(env);
 485:src-gen/Main/core/reactor_common.c ****         e->trigger = timer;
 486:src-gen/Main/core/reactor_common.c ****         e->time = lf_time_logical(env) + timer->offset;
 487:src-gen/Main/core/reactor_common.c ****         _lf_add_suspended_event(e);
 488:src-gen/Main/core/reactor_common.c ****         return;
 489:src-gen/Main/core/reactor_common.c ****     }
ARM GAS  /var/folders/2h/lww79zv53b510qlyvytqnvq40000gn/T//ccDbZlJP.s 			page 12


 490:src-gen/Main/core/reactor_common.c **** #endif
 491:src-gen/Main/core/reactor_common.c ****     if (timer->offset == 0) {
 492:src-gen/Main/core/reactor_common.c ****         for (int i = 0; i < timer->number_of_reactions; i++) {
 493:src-gen/Main/core/reactor_common.c ****             _lf_trigger_reaction(env, timer->reactions[i], -1);
 494:src-gen/Main/core/reactor_common.c ****             tracepoint_schedule(env->trace, timer, 0LL); // Trace even though schedule is not calle
 495:src-gen/Main/core/reactor_common.c ****         }
 496:src-gen/Main/core/reactor_common.c ****         if (timer->period == 0) {
 497:src-gen/Main/core/reactor_common.c ****             return;
 498:src-gen/Main/core/reactor_common.c ****         } else {
 499:src-gen/Main/core/reactor_common.c ****             // Schedule at t + period.
 500:src-gen/Main/core/reactor_common.c ****             delay = timer->period;
 501:src-gen/Main/core/reactor_common.c ****         }
 502:src-gen/Main/core/reactor_common.c ****     } else {
 503:src-gen/Main/core/reactor_common.c ****         // Schedule at t + offset.
 504:src-gen/Main/core/reactor_common.c ****         delay = timer->offset;
 505:src-gen/Main/core/reactor_common.c ****     }
 506:src-gen/Main/core/reactor_common.c **** 
 507:src-gen/Main/core/reactor_common.c ****     // Get an event_t struct to put on the event queue.
 508:src-gen/Main/core/reactor_common.c ****     // Recycle event_t structs, if possible.
 509:src-gen/Main/core/reactor_common.c ****     event_t* e = _lf_get_new_event(env);
 510:src-gen/Main/core/reactor_common.c ****     e->trigger = timer;
 511:src-gen/Main/core/reactor_common.c ****     e->time = lf_time_logical(env) + delay;
 512:src-gen/Main/core/reactor_common.c ****     // NOTE: No lock is being held. Assuming this only happens at startup.
 513:src-gen/Main/core/reactor_common.c ****     pqueue_insert(env->event_q, e);
 514:src-gen/Main/core/reactor_common.c ****     tracepoint_schedule(env->trace, timer, delay); // Trace even though schedule is not called.
 515:src-gen/Main/core/reactor_common.c **** }
 516:src-gen/Main/core/reactor_common.c **** 
 517:src-gen/Main/core/reactor_common.c **** /**
 518:src-gen/Main/core/reactor_common.c ****  * @brief Initialize all the timers in the environment
 519:src-gen/Main/core/reactor_common.c ****  * @param env Environment in which we are executing.
 520:src-gen/Main/core/reactor_common.c ****  */
 521:src-gen/Main/core/reactor_common.c **** void _lf_initialize_timers(environment_t* env) {
 522:src-gen/Main/core/reactor_common.c ****     assert(env != GLOBAL_ENVIRONMENT);
 523:src-gen/Main/core/reactor_common.c ****     for (int i = 0; i < env->timer_triggers_size; i++) {
 524:src-gen/Main/core/reactor_common.c ****         if (env->timer_triggers[i] != NULL) {
 525:src-gen/Main/core/reactor_common.c ****             _lf_initialize_timer(env, env->timer_triggers[i]);
 526:src-gen/Main/core/reactor_common.c ****         }
 527:src-gen/Main/core/reactor_common.c ****     }
 528:src-gen/Main/core/reactor_common.c **** }
 529:src-gen/Main/core/reactor_common.c **** 
 530:src-gen/Main/core/reactor_common.c **** /**
 531:src-gen/Main/core/reactor_common.c ****  * @brief Trigger all the startup reactions in our environment
 532:src-gen/Main/core/reactor_common.c ****  * @param env Environment in which we are executing.
 533:src-gen/Main/core/reactor_common.c ****  */
 534:src-gen/Main/core/reactor_common.c **** void _lf_trigger_startup_reactions(environment_t* env) {
 535:src-gen/Main/core/reactor_common.c ****     assert(env != GLOBAL_ENVIRONMENT);
 536:src-gen/Main/core/reactor_common.c ****     for (int i = 0; i < env->startup_reactions_size; i++) {
 537:src-gen/Main/core/reactor_common.c ****         if (env->startup_reactions[i] != NULL) {
 538:src-gen/Main/core/reactor_common.c ****             if (env->startup_reactions[i]->mode != NULL) {
 539:src-gen/Main/core/reactor_common.c ****                 // Skip reactions in modes
 540:src-gen/Main/core/reactor_common.c ****                 continue;
 541:src-gen/Main/core/reactor_common.c ****             }
 542:src-gen/Main/core/reactor_common.c ****             _lf_trigger_reaction(env, env->startup_reactions[i], -1);
 543:src-gen/Main/core/reactor_common.c ****         }
 544:src-gen/Main/core/reactor_common.c ****     }
 545:src-gen/Main/core/reactor_common.c ****     #ifdef MODAL_REACTORS
 546:src-gen/Main/core/reactor_common.c ****     if (env->modes) {
ARM GAS  /var/folders/2h/lww79zv53b510qlyvytqnvq40000gn/T//ccDbZlJP.s 			page 13


 547:src-gen/Main/core/reactor_common.c ****         _lf_handle_mode_startup_reset_reactions(
 548:src-gen/Main/core/reactor_common.c ****             env,
 549:src-gen/Main/core/reactor_common.c ****             env->startup_reactions, env->startup_reactions_size,
 550:src-gen/Main/core/reactor_common.c ****             NULL, 0,
 551:src-gen/Main/core/reactor_common.c ****             env->modes->modal_reactor_states, env->modes->modal_reactor_states_size
 552:src-gen/Main/core/reactor_common.c ****         );
 553:src-gen/Main/core/reactor_common.c ****     }
 554:src-gen/Main/core/reactor_common.c ****     #endif
 555:src-gen/Main/core/reactor_common.c **** }
 556:src-gen/Main/core/reactor_common.c **** 
 557:src-gen/Main/core/reactor_common.c **** /**
 558:src-gen/Main/core/reactor_common.c ****  * @brief Trigger all the shutdown reactions in our environment
 559:src-gen/Main/core/reactor_common.c ****  * @param env Environment in which we are executing.
 560:src-gen/Main/core/reactor_common.c ****  */
 561:src-gen/Main/core/reactor_common.c **** void _lf_trigger_shutdown_reactions(environment_t *env) {
 562:src-gen/Main/core/reactor_common.c ****     assert(env != GLOBAL_ENVIRONMENT);
 563:src-gen/Main/core/reactor_common.c ****     for (int i = 0; i < env->shutdown_reactions_size; i++) {
 564:src-gen/Main/core/reactor_common.c ****         if (env->shutdown_reactions[i] != NULL) {
 565:src-gen/Main/core/reactor_common.c ****             if (env->shutdown_reactions[i]->mode != NULL) {
 566:src-gen/Main/core/reactor_common.c ****                 // Skip reactions in modes
 567:src-gen/Main/core/reactor_common.c ****                 continue;
 568:src-gen/Main/core/reactor_common.c ****             }
 569:src-gen/Main/core/reactor_common.c ****             _lf_trigger_reaction(env, env->shutdown_reactions[i], -1);
 570:src-gen/Main/core/reactor_common.c ****         }
 571:src-gen/Main/core/reactor_common.c ****     }
 572:src-gen/Main/core/reactor_common.c **** #ifdef MODAL_REACTORS
 573:src-gen/Main/core/reactor_common.c ****     if (env->modes) {
 574:src-gen/Main/core/reactor_common.c ****         _lf_handle_mode_shutdown_reactions(env, env->shutdown_reactions, env->shutdown_reactions_si
 575:src-gen/Main/core/reactor_common.c ****     }
 576:src-gen/Main/core/reactor_common.c **** #endif
 577:src-gen/Main/core/reactor_common.c **** }
 578:src-gen/Main/core/reactor_common.c **** 
 579:src-gen/Main/core/reactor_common.c **** /**
 580:src-gen/Main/core/reactor_common.c ****  * Recycle the given event.
 581:src-gen/Main/core/reactor_common.c ****  * Zero it out and pushed it onto the recycle queue.
 582:src-gen/Main/core/reactor_common.c ****  * @param env Environment in which we are executing.
 583:src-gen/Main/core/reactor_common.c ****  * @param e The event to recycle.
 584:src-gen/Main/core/reactor_common.c ****  */
 585:src-gen/Main/core/reactor_common.c **** void _lf_recycle_event(environment_t* env, event_t* e) {
 586:src-gen/Main/core/reactor_common.c ****     assert(env != GLOBAL_ENVIRONMENT);
 587:src-gen/Main/core/reactor_common.c ****     e->time = 0LL;
 588:src-gen/Main/core/reactor_common.c ****     e->trigger = NULL;
 589:src-gen/Main/core/reactor_common.c ****     e->pos = 0;
 590:src-gen/Main/core/reactor_common.c ****     e->token = NULL;
 591:src-gen/Main/core/reactor_common.c ****     e->is_dummy = false;
 592:src-gen/Main/core/reactor_common.c **** #ifdef FEDERATED_DECENTRALIZED
 593:src-gen/Main/core/reactor_common.c ****     e->intended_tag = (tag_t) { .time = NEVER, .microstep = 0u};
 594:src-gen/Main/core/reactor_common.c **** #endif
 595:src-gen/Main/core/reactor_common.c ****     e->next = NULL;
 596:src-gen/Main/core/reactor_common.c ****     pqueue_insert(env->recycle_q, e);
 597:src-gen/Main/core/reactor_common.c **** }
 598:src-gen/Main/core/reactor_common.c **** 
 599:src-gen/Main/core/reactor_common.c **** /**
 600:src-gen/Main/core/reactor_common.c ****  * Create dummy events to be used as spacers in the event queue.
 601:src-gen/Main/core/reactor_common.c ****  * @param env Environment in which we are executing.
 602:src-gen/Main/core/reactor_common.c ****  * @param trigger The eventual event to be triggered.
 603:src-gen/Main/core/reactor_common.c ****  * @param time The logical time of that event.
ARM GAS  /var/folders/2h/lww79zv53b510qlyvytqnvq40000gn/T//ccDbZlJP.s 			page 14


 604:src-gen/Main/core/reactor_common.c ****  * @param next The event to place after the dummy events.
 605:src-gen/Main/core/reactor_common.c ****  * @param offset The number of dummy events to insert.
 606:src-gen/Main/core/reactor_common.c ****  * @return A pointer to the first dummy event.
 607:src-gen/Main/core/reactor_common.c ****  */
 608:src-gen/Main/core/reactor_common.c **** event_t* _lf_create_dummy_events(environment_t* env, trigger_t* trigger, instant_t time, event_t* n
 609:src-gen/Main/core/reactor_common.c ****     event_t* first_dummy = _lf_get_new_event(env);
 610:src-gen/Main/core/reactor_common.c ****     event_t* dummy = first_dummy;
 611:src-gen/Main/core/reactor_common.c ****     dummy->time = time;
 612:src-gen/Main/core/reactor_common.c ****     dummy->is_dummy = true;
 613:src-gen/Main/core/reactor_common.c ****     dummy->trigger = trigger;
 614:src-gen/Main/core/reactor_common.c ****     while (offset > 0) {
 615:src-gen/Main/core/reactor_common.c ****         if (offset == 1) {
 616:src-gen/Main/core/reactor_common.c ****             dummy->next = next;
 617:src-gen/Main/core/reactor_common.c ****             break;
 618:src-gen/Main/core/reactor_common.c ****         }
 619:src-gen/Main/core/reactor_common.c ****         dummy->next = _lf_get_new_event(env);
 620:src-gen/Main/core/reactor_common.c ****         dummy = dummy->next;
 621:src-gen/Main/core/reactor_common.c ****         dummy->time = time;
 622:src-gen/Main/core/reactor_common.c ****         dummy->is_dummy = true;
 623:src-gen/Main/core/reactor_common.c ****         dummy->trigger = trigger;
 624:src-gen/Main/core/reactor_common.c ****         offset--;
 625:src-gen/Main/core/reactor_common.c ****     }
 626:src-gen/Main/core/reactor_common.c ****     return first_dummy;
 627:src-gen/Main/core/reactor_common.c **** }
 628:src-gen/Main/core/reactor_common.c **** 
 629:src-gen/Main/core/reactor_common.c **** /**
 630:src-gen/Main/core/reactor_common.c ****  * Replace the token on the specified event with the specified
 631:src-gen/Main/core/reactor_common.c ****  * token and free the old token.
 632:src-gen/Main/core/reactor_common.c ****  * @param event The event.
 633:src-gen/Main/core/reactor_common.c ****  * @param token The token.
 634:src-gen/Main/core/reactor_common.c ****  */
 635:src-gen/Main/core/reactor_common.c **** static void _lf_replace_token(event_t* event, lf_token_t* token) {
 120              		.loc 1 635 66 is_stmt 1 view -0
 121              		.cfi_startproc
 122              		@ args = 0, pretend = 0, frame = 0
 123              		@ frame_needed = 0, uses_anonymous_args = 0
 124              		.loc 1 635 66 is_stmt 0 view .LVU21
 125 0000 38B5     		push	{r3, r4, r5, lr}
 126              	.LCFI1:
 127              		.cfi_def_cfa_offset 16
 128              		.cfi_offset 3, -16
 129              		.cfi_offset 4, -12
 130              		.cfi_offset 5, -8
 131              		.cfi_offset 14, -4
 132 0002 0446     		mov	r4, r0
 133 0004 0D46     		mov	r5, r1
 636:src-gen/Main/core/reactor_common.c ****     if (event->token != token) {
 134              		.loc 1 636 5 is_stmt 1 view .LVU22
 135              		.loc 1 636 14 is_stmt 0 view .LVU23
 136 0006 0069     		ldr	r0, [r0, #16]
 137              	.LVL12:
 138              		.loc 1 636 8 view .LVU24
 139 0008 8842     		cmp	r0, r1
 140 000a 01D0     		beq	.L10
 637:src-gen/Main/core/reactor_common.c ****         // Free the existing token, if any.
 638:src-gen/Main/core/reactor_common.c ****         _lf_done_using(event->token);
 141              		.loc 1 638 9 is_stmt 1 view .LVU25
ARM GAS  /var/folders/2h/lww79zv53b510qlyvytqnvq40000gn/T//ccDbZlJP.s 			page 15


 142 000c FFF7FEFF 		bl	_lf_done_using
 143              	.LVL13:
 144              	.L10:
 639:src-gen/Main/core/reactor_common.c ****     }
 640:src-gen/Main/core/reactor_common.c ****     // Replace the token with ours.
 641:src-gen/Main/core/reactor_common.c ****     event->token = token;
 145              		.loc 1 641 5 view .LVU26
 146              		.loc 1 641 18 is_stmt 0 view .LVU27
 147 0010 2561     		str	r5, [r4, #16]
 642:src-gen/Main/core/reactor_common.c **** }
 148              		.loc 1 642 1 view .LVU28
 149 0012 38BD     		pop	{r3, r4, r5, pc}
 150              		.loc 1 642 1 view .LVU29
 151              		.cfi_endproc
 152              	.LFE151:
 154              		.section	.text._lf_allocate,"ax",%progbits
 155              		.align	1
 156              		.global	_lf_allocate
 157              		.syntax unified
 158              		.thumb
 159              		.thumb_func
 161              	_lf_allocate:
 162              	.LVL14:
 163              	.LFB133:
 130:src-gen/Main/core/reactor_common.c ****     void *mem = calloc(count, size);
 164              		.loc 1 130 71 is_stmt 1 view -0
 165              		.cfi_startproc
 166              		@ args = 0, pretend = 0, frame = 0
 167              		@ frame_needed = 0, uses_anonymous_args = 0
 130:src-gen/Main/core/reactor_common.c ****     void *mem = calloc(count, size);
 168              		.loc 1 130 71 is_stmt 0 view .LVU31
 169 0000 70B5     		push	{r4, r5, r6, lr}
 170              	.LCFI2:
 171              		.cfi_def_cfa_offset 16
 172              		.cfi_offset 4, -16
 173              		.cfi_offset 5, -12
 174              		.cfi_offset 6, -8
 175              		.cfi_offset 14, -4
 176 0002 1446     		mov	r4, r2
 131:src-gen/Main/core/reactor_common.c ****     if (mem == NULL) lf_print_error_and_exit("Out of memory!");
 177              		.loc 1 131 5 is_stmt 1 view .LVU32
 131:src-gen/Main/core/reactor_common.c ****     if (mem == NULL) lf_print_error_and_exit("Out of memory!");
 178              		.loc 1 131 17 is_stmt 0 view .LVU33
 179 0004 FFF7FEFF 		bl	calloc
 180              	.LVL15:
 132:src-gen/Main/core/reactor_common.c ****     if (head != NULL) {
 181              		.loc 1 132 5 is_stmt 1 view .LVU34
 132:src-gen/Main/core/reactor_common.c ****     if (head != NULL) {
 182              		.loc 1 132 8 is_stmt 0 view .LVU35
 183 0008 0546     		mov	r5, r0
 184 000a 60B1     		cbz	r0, .L17
 185              	.LVL16:
 186              	.L13:
 133:src-gen/Main/core/reactor_common.c ****         struct allocation_record_t* record
 187              		.loc 1 133 5 is_stmt 1 view .LVU36
 133:src-gen/Main/core/reactor_common.c ****         struct allocation_record_t* record
 188              		.loc 1 133 8 is_stmt 0 view .LVU37
ARM GAS  /var/folders/2h/lww79zv53b510qlyvytqnvq40000gn/T//ccDbZlJP.s 			page 16


 189 000c 4CB1     		cbz	r4, .L12
 190              	.LBB2:
 134:src-gen/Main/core/reactor_common.c ****                 = (allocation_record_t*)calloc(1, sizeof(allocation_record_t));
 191              		.loc 1 134 9 is_stmt 1 view .LVU38
 135:src-gen/Main/core/reactor_common.c ****         if (record == NULL) lf_print_error_and_exit("Out of memory!");
 192              		.loc 1 135 41 is_stmt 0 view .LVU39
 193 000e 0821     		movs	r1, #8
 194 0010 0120     		movs	r0, #1
 195 0012 FFF7FEFF 		bl	calloc
 196              	.LVL17:
 136:src-gen/Main/core/reactor_common.c ****         record->allocated = mem;
 197              		.loc 1 136 9 is_stmt 1 view .LVU40
 136:src-gen/Main/core/reactor_common.c ****         record->allocated = mem;
 198              		.loc 1 136 12 is_stmt 0 view .LVU41
 199 0016 0646     		mov	r6, r0
 200 0018 48B1     		cbz	r0, .L18
 201              	.LVL18:
 202              	.L15:
 137:src-gen/Main/core/reactor_common.c ****         allocation_record_t* tmp = *head; // Previous head of the list or NULL.
 203              		.loc 1 137 9 is_stmt 1 view .LVU42
 137:src-gen/Main/core/reactor_common.c ****         allocation_record_t* tmp = *head; // Previous head of the list or NULL.
 204              		.loc 1 137 27 is_stmt 0 view .LVU43
 205 001a 3560     		str	r5, [r6]
 138:src-gen/Main/core/reactor_common.c ****         *head = record;                   // New head of the list.
 206              		.loc 1 138 9 is_stmt 1 view .LVU44
 138:src-gen/Main/core/reactor_common.c ****         *head = record;                   // New head of the list.
 207              		.loc 1 138 30 is_stmt 0 view .LVU45
 208 001c 2368     		ldr	r3, [r4]
 209              	.LVL19:
 139:src-gen/Main/core/reactor_common.c ****         record->next = tmp;
 210              		.loc 1 139 9 is_stmt 1 view .LVU46
 139:src-gen/Main/core/reactor_common.c ****         record->next = tmp;
 211              		.loc 1 139 15 is_stmt 0 view .LVU47
 212 001e 2660     		str	r6, [r4]
 140:src-gen/Main/core/reactor_common.c ****     }
 213              		.loc 1 140 9 is_stmt 1 view .LVU48
 140:src-gen/Main/core/reactor_common.c ****     }
 214              		.loc 1 140 22 is_stmt 0 view .LVU49
 215 0020 7360     		str	r3, [r6, #4]
 216              	.LBE2:
 142:src-gen/Main/core/reactor_common.c **** }
 217              		.loc 1 142 5 is_stmt 1 view .LVU50
 218              	.LVL20:
 219              	.L12:
 143:src-gen/Main/core/reactor_common.c **** 
 220              		.loc 1 143 1 is_stmt 0 view .LVU51
 221 0022 2846     		mov	r0, r5
 222 0024 70BD     		pop	{r4, r5, r6, pc}
 223              	.LVL21:
 224              	.L17:
 132:src-gen/Main/core/reactor_common.c ****     if (head != NULL) {
 225              		.loc 1 132 22 is_stmt 1 discriminator 1 view .LVU52
 226 0026 0448     		ldr	r0, .L19
 227              	.LVL22:
 132:src-gen/Main/core/reactor_common.c ****     if (head != NULL) {
 228              		.loc 1 132 22 is_stmt 0 discriminator 1 view .LVU53
 229 0028 FFF7FEFF 		bl	lf_print_error_and_exit
ARM GAS  /var/folders/2h/lww79zv53b510qlyvytqnvq40000gn/T//ccDbZlJP.s 			page 17


 230              	.LVL23:
 231 002c EEE7     		b	.L13
 232              	.LVL24:
 233              	.L18:
 234              	.LBB3:
 136:src-gen/Main/core/reactor_common.c ****         record->allocated = mem;
 235              		.loc 1 136 29 is_stmt 1 discriminator 1 view .LVU54
 236 002e 0248     		ldr	r0, .L19
 237              	.LVL25:
 136:src-gen/Main/core/reactor_common.c ****         record->allocated = mem;
 238              		.loc 1 136 29 is_stmt 0 discriminator 1 view .LVU55
 239 0030 FFF7FEFF 		bl	lf_print_error_and_exit
 240              	.LVL26:
 241 0034 F1E7     		b	.L15
 242              	.L20:
 243 0036 00BF     		.align	2
 244              	.L19:
 245 0038 40000000 		.word	.LC2
 246              	.LBE3:
 247              		.cfi_endproc
 248              	.LFE133:
 250              		.section	.text._lf_new_reactor,"ax",%progbits
 251              		.align	1
 252              		.global	_lf_new_reactor
 253              		.syntax unified
 254              		.thumb
 255              		.thumb_func
 257              	_lf_new_reactor:
 258              	.LVL27:
 259              	.LFB134:
 158:src-gen/Main/core/reactor_common.c ****     return _lf_allocate(1, size, &_lf_reactors_to_free);
 260              		.loc 1 158 36 is_stmt 1 view -0
 261              		.cfi_startproc
 262              		@ args = 0, pretend = 0, frame = 0
 263              		@ frame_needed = 0, uses_anonymous_args = 0
 158:src-gen/Main/core/reactor_common.c ****     return _lf_allocate(1, size, &_lf_reactors_to_free);
 264              		.loc 1 158 36 is_stmt 0 view .LVU57
 265 0000 08B5     		push	{r3, lr}
 266              	.LCFI3:
 267              		.cfi_def_cfa_offset 8
 268              		.cfi_offset 3, -8
 269              		.cfi_offset 14, -4
 270 0002 0146     		mov	r1, r0
 159:src-gen/Main/core/reactor_common.c **** }
 271              		.loc 1 159 5 is_stmt 1 view .LVU58
 159:src-gen/Main/core/reactor_common.c **** }
 272              		.loc 1 159 12 is_stmt 0 view .LVU59
 273 0004 024A     		ldr	r2, .L23
 274 0006 0120     		movs	r0, #1
 275              	.LVL28:
 159:src-gen/Main/core/reactor_common.c **** }
 276              		.loc 1 159 12 view .LVU60
 277 0008 FFF7FEFF 		bl	_lf_allocate
 278              	.LVL29:
 160:src-gen/Main/core/reactor_common.c **** 
 279              		.loc 1 160 1 view .LVU61
 280 000c 08BD     		pop	{r3, pc}
ARM GAS  /var/folders/2h/lww79zv53b510qlyvytqnvq40000gn/T//ccDbZlJP.s 			page 18


 281              	.L24:
 282 000e 00BF     		.align	2
 283              	.L23:
 284 0010 00000000 		.word	_lf_reactors_to_free
 285              		.cfi_endproc
 286              	.LFE134:
 288              		.section	.text._lf_free,"ax",%progbits
 289              		.align	1
 290              		.global	_lf_free
 291              		.syntax unified
 292              		.thumb
 293              		.thumb_func
 295              	_lf_free:
 296              	.LVL30:
 297              	.LFB135:
 169:src-gen/Main/core/reactor_common.c ****     if (head == NULL) return;
 298              		.loc 1 169 50 is_stmt 1 view -0
 299              		.cfi_startproc
 300              		@ args = 0, pretend = 0, frame = 0
 301              		@ frame_needed = 0, uses_anonymous_args = 0
 170:src-gen/Main/core/reactor_common.c ****     struct allocation_record_t* record = *head;
 302              		.loc 1 170 5 view .LVU63
 170:src-gen/Main/core/reactor_common.c ****     struct allocation_record_t* record = *head;
 303              		.loc 1 170 8 is_stmt 0 view .LVU64
 304 0000 80B1     		cbz	r0, .L30
 169:src-gen/Main/core/reactor_common.c ****     if (head == NULL) return;
 305              		.loc 1 169 50 view .LVU65
 306 0002 70B5     		push	{r4, r5, r6, lr}
 307              	.LCFI4:
 308              		.cfi_def_cfa_offset 16
 309              		.cfi_offset 4, -16
 310              		.cfi_offset 5, -12
 311              		.cfi_offset 6, -8
 312              		.cfi_offset 14, -4
 313 0004 0646     		mov	r6, r0
 171:src-gen/Main/core/reactor_common.c ****     while (record != NULL) {
 314              		.loc 1 171 5 is_stmt 1 view .LVU66
 171:src-gen/Main/core/reactor_common.c ****     while (record != NULL) {
 315              		.loc 1 171 33 is_stmt 0 view .LVU67
 316 0006 0468     		ldr	r4, [r0]
 317              	.LVL31:
 172:src-gen/Main/core/reactor_common.c ****         LF_PRINT_DEBUG("Freeing memory at %p", record->allocated);
 318              		.loc 1 172 5 is_stmt 1 view .LVU68
 172:src-gen/Main/core/reactor_common.c ****         LF_PRINT_DEBUG("Freeing memory at %p", record->allocated);
 319              		.loc 1 172 11 is_stmt 0 view .LVU69
 320 0008 07E0     		b	.L27
 321              	.LVL32:
 322              	.L28:
 323              	.LBB4:
 173:src-gen/Main/core/reactor_common.c ****         free(record->allocated);
 324              		.loc 1 173 9 is_stmt 1 discriminator 3 view .LVU70
 173:src-gen/Main/core/reactor_common.c ****         free(record->allocated);
 325              		.loc 1 173 9 discriminator 3 view .LVU71
 173:src-gen/Main/core/reactor_common.c ****         free(record->allocated);
 326              		.loc 1 173 9 discriminator 3 view .LVU72
 174:src-gen/Main/core/reactor_common.c ****         struct allocation_record_t* tmp = record->next;
 327              		.loc 1 174 9 discriminator 3 view .LVU73
ARM GAS  /var/folders/2h/lww79zv53b510qlyvytqnvq40000gn/T//ccDbZlJP.s 			page 19


 328 000a 2068     		ldr	r0, [r4]
 329 000c FFF7FEFF 		bl	free
 330              	.LVL33:
 175:src-gen/Main/core/reactor_common.c ****     	LF_PRINT_DEBUG("Freeing allocation record at %p", record);
 331              		.loc 1 175 9 discriminator 3 view .LVU74
 175:src-gen/Main/core/reactor_common.c ****     	LF_PRINT_DEBUG("Freeing allocation record at %p", record);
 332              		.loc 1 175 37 is_stmt 0 discriminator 3 view .LVU75
 333 0010 6568     		ldr	r5, [r4, #4]
 334              	.LVL34:
 176:src-gen/Main/core/reactor_common.c ****         free(record);
 335              		.loc 1 176 6 is_stmt 1 discriminator 3 view .LVU76
 176:src-gen/Main/core/reactor_common.c ****         free(record);
 336              		.loc 1 176 6 discriminator 3 view .LVU77
 176:src-gen/Main/core/reactor_common.c ****         free(record);
 337              		.loc 1 176 6 discriminator 3 view .LVU78
 177:src-gen/Main/core/reactor_common.c ****         record = tmp;
 338              		.loc 1 177 9 discriminator 3 view .LVU79
 339 0012 2046     		mov	r0, r4
 340 0014 FFF7FEFF 		bl	free
 341              	.LVL35:
 178:src-gen/Main/core/reactor_common.c ****     }
 342              		.loc 1 178 9 discriminator 3 view .LVU80
 178:src-gen/Main/core/reactor_common.c ****     }
 343              		.loc 1 178 16 is_stmt 0 discriminator 3 view .LVU81
 344 0018 2C46     		mov	r4, r5
 345              	.LVL36:
 346              	.L27:
 178:src-gen/Main/core/reactor_common.c ****     }
 347              		.loc 1 178 16 discriminator 3 view .LVU82
 348              	.LBE4:
 172:src-gen/Main/core/reactor_common.c ****         LF_PRINT_DEBUG("Freeing memory at %p", record->allocated);
 349              		.loc 1 172 19 is_stmt 1 view .LVU83
 350 001a 002C     		cmp	r4, #0
 351 001c F5D1     		bne	.L28
 180:src-gen/Main/core/reactor_common.c **** }
 352              		.loc 1 180 5 view .LVU84
 180:src-gen/Main/core/reactor_common.c **** }
 353              		.loc 1 180 11 is_stmt 0 view .LVU85
 354 001e 0023     		movs	r3, #0
 355 0020 3360     		str	r3, [r6]
 181:src-gen/Main/core/reactor_common.c **** 
 356              		.loc 1 181 1 view .LVU86
 357 0022 70BD     		pop	{r4, r5, r6, pc}
 358              	.LVL37:
 359              	.L30:
 360              	.LCFI5:
 361              		.cfi_def_cfa_offset 0
 362              		.cfi_restore 4
 363              		.cfi_restore 5
 364              		.cfi_restore 6
 365              		.cfi_restore 14
 181:src-gen/Main/core/reactor_common.c **** 
 366              		.loc 1 181 1 view .LVU87
 367 0024 7047     		bx	lr
 368              		.cfi_endproc
 369              	.LFE135:
 371              		.section	.text._lf_free_reactor,"ax",%progbits
ARM GAS  /var/folders/2h/lww79zv53b510qlyvytqnvq40000gn/T//ccDbZlJP.s 			page 20


 372              		.align	1
 373              		.global	_lf_free_reactor
 374              		.syntax unified
 375              		.thumb
 376              		.thumb_func
 378              	_lf_free_reactor:
 379              	.LVL38:
 380              	.LFB136:
 188:src-gen/Main/core/reactor_common.c ****     _lf_free(&self->allocations);
 381              		.loc 1 188 42 is_stmt 1 view -0
 382              		.cfi_startproc
 383              		@ args = 0, pretend = 0, frame = 0
 384              		@ frame_needed = 0, uses_anonymous_args = 0
 188:src-gen/Main/core/reactor_common.c ****     _lf_free(&self->allocations);
 385              		.loc 1 188 42 is_stmt 0 view .LVU89
 386 0000 10B5     		push	{r4, lr}
 387              	.LCFI6:
 388              		.cfi_def_cfa_offset 8
 389              		.cfi_offset 4, -8
 390              		.cfi_offset 14, -4
 391 0002 0446     		mov	r4, r0
 189:src-gen/Main/core/reactor_common.c ****     free(self);
 392              		.loc 1 189 5 is_stmt 1 view .LVU90
 393 0004 FFF7FEFF 		bl	_lf_free
 394              	.LVL39:
 190:src-gen/Main/core/reactor_common.c **** }
 395              		.loc 1 190 5 view .LVU91
 396 0008 2046     		mov	r0, r4
 397 000a FFF7FEFF 		bl	free
 398              	.LVL40:
 191:src-gen/Main/core/reactor_common.c **** 
 399              		.loc 1 191 1 is_stmt 0 view .LVU92
 400 000e 10BD     		pop	{r4, pc}
 191:src-gen/Main/core/reactor_common.c **** 
 401              		.loc 1 191 1 view .LVU93
 402              		.cfi_endproc
 403              	.LFE136:
 405              		.section	.text._lf_free_all_reactors,"ax",%progbits
 406              		.align	1
 407              		.global	_lf_free_all_reactors
 408              		.syntax unified
 409              		.thumb
 410              		.thumb_func
 412              	_lf_free_all_reactors:
 413              	.LFB137:
 197:src-gen/Main/core/reactor_common.c ****     struct allocation_record_t* head = _lf_reactors_to_free;
 414              		.loc 1 197 34 is_stmt 1 view -0
 415              		.cfi_startproc
 416              		@ args = 0, pretend = 0, frame = 0
 417              		@ frame_needed = 0, uses_anonymous_args = 0
 418 0000 38B5     		push	{r3, r4, r5, lr}
 419              	.LCFI7:
 420              		.cfi_def_cfa_offset 16
 421              		.cfi_offset 3, -16
 422              		.cfi_offset 4, -12
 423              		.cfi_offset 5, -8
 424              		.cfi_offset 14, -4
ARM GAS  /var/folders/2h/lww79zv53b510qlyvytqnvq40000gn/T//ccDbZlJP.s 			page 21


 198:src-gen/Main/core/reactor_common.c ****     while (head != NULL) {
 425              		.loc 1 198 5 view .LVU95
 198:src-gen/Main/core/reactor_common.c ****     while (head != NULL) {
 426              		.loc 1 198 33 is_stmt 0 view .LVU96
 427 0002 084B     		ldr	r3, .L39
 428 0004 1C68     		ldr	r4, [r3]
 429              	.LVL41:
 199:src-gen/Main/core/reactor_common.c ****         _lf_free_reactor((self_base_t*)head->allocated);
 430              		.loc 1 199 5 is_stmt 1 view .LVU97
 199:src-gen/Main/core/reactor_common.c ****         _lf_free_reactor((self_base_t*)head->allocated);
 431              		.loc 1 199 11 is_stmt 0 view .LVU98
 432 0006 07E0     		b	.L36
 433              	.L37:
 434              	.LBB5:
 200:src-gen/Main/core/reactor_common.c ****         struct allocation_record_t* tmp = head->next;
 435              		.loc 1 200 9 is_stmt 1 view .LVU99
 436 0008 2068     		ldr	r0, [r4]
 437 000a FFF7FEFF 		bl	_lf_free_reactor
 438              	.LVL42:
 201:src-gen/Main/core/reactor_common.c ****         free(head);
 439              		.loc 1 201 9 view .LVU100
 201:src-gen/Main/core/reactor_common.c ****         free(head);
 440              		.loc 1 201 37 is_stmt 0 view .LVU101
 441 000e 6568     		ldr	r5, [r4, #4]
 442              	.LVL43:
 202:src-gen/Main/core/reactor_common.c ****         head = tmp;
 443              		.loc 1 202 9 is_stmt 1 view .LVU102
 444 0010 2046     		mov	r0, r4
 445 0012 FFF7FEFF 		bl	free
 446              	.LVL44:
 203:src-gen/Main/core/reactor_common.c ****     }
 447              		.loc 1 203 9 view .LVU103
 203:src-gen/Main/core/reactor_common.c ****     }
 448              		.loc 1 203 14 is_stmt 0 view .LVU104
 449 0016 2C46     		mov	r4, r5
 450              	.LVL45:
 451              	.L36:
 203:src-gen/Main/core/reactor_common.c ****     }
 452              		.loc 1 203 14 view .LVU105
 453              	.LBE5:
 199:src-gen/Main/core/reactor_common.c ****         _lf_free_reactor((self_base_t*)head->allocated);
 454              		.loc 1 199 17 is_stmt 1 view .LVU106
 455 0018 002C     		cmp	r4, #0
 456 001a F5D1     		bne	.L37
 205:src-gen/Main/core/reactor_common.c **** }
 457              		.loc 1 205 5 view .LVU107
 205:src-gen/Main/core/reactor_common.c **** }
 458              		.loc 1 205 26 is_stmt 0 view .LVU108
 459 001c 014B     		ldr	r3, .L39
 460 001e 0022     		movs	r2, #0
 461 0020 1A60     		str	r2, [r3]
 206:src-gen/Main/core/reactor_common.c **** 
 462              		.loc 1 206 1 view .LVU109
 463 0022 38BD     		pop	{r3, r4, r5, pc}
 464              	.LVL46:
 465              	.L40:
 206:src-gen/Main/core/reactor_common.c **** 
ARM GAS  /var/folders/2h/lww79zv53b510qlyvytqnvq40000gn/T//ccDbZlJP.s 			page 22


 466              		.loc 1 206 1 view .LVU110
 467              		.align	2
 468              	.L39:
 469 0024 00000000 		.word	_lf_reactors_to_free
 470              		.cfi_endproc
 471              	.LFE137:
 473              		.section	.text._lf_set_stop_tag,"ax",%progbits
 474              		.align	1
 475              		.global	_lf_set_stop_tag
 476              		.syntax unified
 477              		.thumb
 478              		.thumb_func
 480              	_lf_set_stop_tag:
 481              	.LVL47:
 482              	.LFB138:
 217:src-gen/Main/core/reactor_common.c ****     assert(env != GLOBAL_ENVIRONMENT);
 483              		.loc 1 217 54 is_stmt 1 view -0
 484              		.cfi_startproc
 485              		@ args = 16, pretend = 8, frame = 0
 486              		@ frame_needed = 0, uses_anonymous_args = 0
 217:src-gen/Main/core/reactor_common.c ****     assert(env != GLOBAL_ENVIRONMENT);
 487              		.loc 1 217 54 is_stmt 0 view .LVU112
 488 0000 82B0     		sub	sp, sp, #8
 489              	.LCFI8:
 490              		.cfi_def_cfa_offset 8
 491 0002 10B5     		push	{r4, lr}
 492              	.LCFI9:
 493              		.cfi_def_cfa_offset 16
 494              		.cfi_offset 4, -16
 495              		.cfi_offset 14, -12
 496 0004 84B0     		sub	sp, sp, #16
 497              	.LCFI10:
 498              		.cfi_def_cfa_offset 32
 499 0006 06A9     		add	r1, sp, #24
 500 0008 81E80C00 		stm	r1, {r2, r3}
 218:src-gen/Main/core/reactor_common.c ****     if (lf_tag_compare(tag, env->stop_tag) < 0) {
 501              		.loc 1 218 5 is_stmt 1 view .LVU113
 502 000c 80B1     		cbz	r0, .L45
 503 000e 0446     		mov	r4, r0
 219:src-gen/Main/core/reactor_common.c ****         env->stop_tag = tag;
 504              		.loc 1 219 5 view .LVU114
 219:src-gen/Main/core/reactor_common.c ****         env->stop_tag = tag;
 505              		.loc 1 219 9 is_stmt 0 view .LVU115
 506 0010 00F11803 		add	r3, r0, #24
 507 0014 0FCB     		ldm	r3, {r0, r1, r2, r3}
 508              	.LVL48:
 219:src-gen/Main/core/reactor_common.c ****         env->stop_tag = tag;
 509              		.loc 1 219 9 view .LVU116
 510 0016 8DE80F00 		stm	sp, {r0, r1, r2, r3}
 511 001a 06AB     		add	r3, sp, #24
 512 001c 0FCB     		ldm	r3, {r0, r1, r2, r3}
 513 001e FFF7FEFF 		bl	lf_tag_compare
 514              	.LVL49:
 219:src-gen/Main/core/reactor_common.c ****         env->stop_tag = tag;
 515              		.loc 1 219 8 view .LVU117
 516 0022 0028     		cmp	r0, #0
 517 0024 0ADB     		blt	.L46
ARM GAS  /var/folders/2h/lww79zv53b510qlyvytqnvq40000gn/T//ccDbZlJP.s 			page 23


 518              	.LVL50:
 519              	.L41:
 222:src-gen/Main/core/reactor_common.c **** 
 520              		.loc 1 222 1 view .LVU118
 521 0026 04B0     		add	sp, sp, #16
 522              	.LCFI11:
 523              		.cfi_remember_state
 524              		.cfi_def_cfa_offset 16
 525              		@ sp needed
 526 0028 BDE81040 		pop	{r4, lr}
 527              	.LCFI12:
 528              		.cfi_restore 14
 529              		.cfi_restore 4
 530              		.cfi_def_cfa_offset 8
 531 002c 02B0     		add	sp, sp, #8
 532              	.LCFI13:
 533              		.cfi_def_cfa_offset 0
 534 002e 7047     		bx	lr
 535              	.LVL51:
 536              	.L45:
 537              	.LCFI14:
 538              		.cfi_restore_state
 218:src-gen/Main/core/reactor_common.c ****     if (lf_tag_compare(tag, env->stop_tag) < 0) {
 539              		.loc 1 218 5 discriminator 1 view .LVU119
 540 0030 054B     		ldr	r3, .L47
 541 0032 064A     		ldr	r2, .L47+4
 542 0034 DA21     		movs	r1, #218
 543 0036 0648     		ldr	r0, .L47+8
 544              	.LVL52:
 218:src-gen/Main/core/reactor_common.c ****     if (lf_tag_compare(tag, env->stop_tag) < 0) {
 545              		.loc 1 218 5 discriminator 1 view .LVU120
 546 0038 FFF7FEFF 		bl	__assert_func
 547              	.LVL53:
 548              	.L46:
 220:src-gen/Main/core/reactor_common.c ****     }
 549              		.loc 1 220 9 is_stmt 1 view .LVU121
 220:src-gen/Main/core/reactor_common.c ****     }
 550              		.loc 1 220 23 is_stmt 0 view .LVU122
 551 003c 1834     		adds	r4, r4, #24
 552              	.LVL54:
 220:src-gen/Main/core/reactor_common.c ****     }
 553              		.loc 1 220 23 view .LVU123
 554 003e 06AB     		add	r3, sp, #24
 555 0040 0FCB     		ldm	r3, {r0, r1, r2, r3}
 556 0042 84E80F00 		stm	r4, {r0, r1, r2, r3}
 222:src-gen/Main/core/reactor_common.c **** 
 557              		.loc 1 222 1 view .LVU124
 558 0046 EEE7     		b	.L41
 559              	.L48:
 560              		.align	2
 561              	.L47:
 562 0048 00000000 		.word	.LC0
 563 004c 00000000 		.word	__func__.15
 564 0050 1C000000 		.word	.LC1
 565              		.cfi_endproc
 566              	.LFE138:
 568              		.section	.text.lf_get_stp_offset,"ax",%progbits
ARM GAS  /var/folders/2h/lww79zv53b510qlyvytqnvq40000gn/T//ccDbZlJP.s 			page 24


 569              		.align	1
 570              		.global	lf_get_stp_offset
 571              		.syntax unified
 572              		.thumb
 573              		.thumb_func
 575              	lf_get_stp_offset:
 576              	.LFB139:
 231:src-gen/Main/core/reactor_common.c ****     return _lf_fed_STA_offset;
 577              		.loc 1 231 32 is_stmt 1 view -0
 578              		.cfi_startproc
 579              		@ args = 0, pretend = 0, frame = 0
 580              		@ frame_needed = 0, uses_anonymous_args = 0
 581              		@ link register save eliminated.
 232:src-gen/Main/core/reactor_common.c **** }
 582              		.loc 1 232 5 view .LVU126
 233:src-gen/Main/core/reactor_common.c **** 
 583              		.loc 1 233 1 is_stmt 0 view .LVU127
 584 0000 014B     		ldr	r3, .L50
 585 0002 D3E90001 		ldrd	r0, [r3]
 586 0006 7047     		bx	lr
 587              	.L51:
 588              		.align	2
 589              	.L50:
 590 0008 00000000 		.word	_lf_fed_STA_offset
 591              		.cfi_endproc
 592              	.LFE139:
 594              		.section	.text.lf_set_stp_offset,"ax",%progbits
 595              		.align	1
 596              		.global	lf_set_stp_offset
 597              		.syntax unified
 598              		.thumb
 599              		.thumb_func
 601              	lf_set_stp_offset:
 602              	.LVL55:
 603              	.LFB140:
 242:src-gen/Main/core/reactor_common.c ****     if (offset > 0LL) {
 604              		.loc 1 242 43 is_stmt 1 view -0
 605              		.cfi_startproc
 606              		@ args = 0, pretend = 0, frame = 0
 607              		@ frame_needed = 0, uses_anonymous_args = 0
 608              		@ link register save eliminated.
 243:src-gen/Main/core/reactor_common.c ****         _lf_fed_STA_offset = offset;
 609              		.loc 1 243 5 view .LVU129
 243:src-gen/Main/core/reactor_common.c ****         _lf_fed_STA_offset = offset;
 610              		.loc 1 243 8 is_stmt 0 view .LVU130
 611 0000 0128     		cmp	r0, #1
 612 0002 71F10003 		sbcs	r3, r1, #0
 613 0006 02DB     		blt	.L52
 244:src-gen/Main/core/reactor_common.c ****     }
 614              		.loc 1 244 9 is_stmt 1 view .LVU131
 244:src-gen/Main/core/reactor_common.c ****     }
 615              		.loc 1 244 28 is_stmt 0 view .LVU132
 616 0008 014B     		ldr	r3, .L54
 617 000a 1860     		str	r0, [r3]
 618 000c 5960     		str	r1, [r3, #4]
 619              	.L52:
 246:src-gen/Main/core/reactor_common.c **** 
ARM GAS  /var/folders/2h/lww79zv53b510qlyvytqnvq40000gn/T//ccDbZlJP.s 			page 25


 620              		.loc 1 246 1 view .LVU133
 621 000e 7047     		bx	lr
 622              	.L55:
 623              		.align	2
 624              	.L54:
 625 0010 00000000 		.word	_lf_fed_STA_offset
 626              		.cfi_endproc
 627              	.LFE140:
 629              		.section	.text._lf_start_time_step,"ax",%progbits
 630              		.align	1
 631              		.global	_lf_start_time_step
 632              		.syntax unified
 633              		.thumb
 634              		.thumb_func
 636              	_lf_start_time_step:
 637              	.LVL56:
 638              	.LFB141:
 267:src-gen/Main/core/reactor_common.c ****     assert(env != GLOBAL_ENVIRONMENT);
 639              		.loc 1 267 46 is_stmt 1 view -0
 640              		.cfi_startproc
 641              		@ args = 0, pretend = 0, frame = 0
 642              		@ frame_needed = 0, uses_anonymous_args = 0
 267:src-gen/Main/core/reactor_common.c ****     assert(env != GLOBAL_ENVIRONMENT);
 643              		.loc 1 267 46 is_stmt 0 view .LVU135
 644 0000 70B5     		push	{r4, r5, r6, lr}
 645              	.LCFI15:
 646              		.cfi_def_cfa_offset 16
 647              		.cfi_offset 4, -16
 648              		.cfi_offset 5, -12
 649              		.cfi_offset 6, -8
 650              		.cfi_offset 14, -4
 268:src-gen/Main/core/reactor_common.c ****     LF_PRINT_LOG("--------- Start time step at tag " PRINTF_TAG ".", env->current_tag.time - start_
 651              		.loc 1 268 5 is_stmt 1 view .LVU136
 652 0002 58B1     		cbz	r0, .L67
 653 0004 0646     		mov	r6, r0
 269:src-gen/Main/core/reactor_common.c ****     // Handle dynamically created tokens for mutable inputs.
 654              		.loc 1 269 5 discriminator 3 view .LVU137
 269:src-gen/Main/core/reactor_common.c ****     // Handle dynamically created tokens for mutable inputs.
 655              		.loc 1 269 5 discriminator 3 view .LVU138
 269:src-gen/Main/core/reactor_common.c ****     // Handle dynamically created tokens for mutable inputs.
 656              		.loc 1 269 5 discriminator 3 view .LVU139
 271:src-gen/Main/core/reactor_common.c **** 
 657              		.loc 1 271 5 discriminator 3 view .LVU140
 658 0006 FFF7FEFF 		bl	_lf_free_token_copies
 659              	.LVL57:
 273:src-gen/Main/core/reactor_common.c ****     int size = env->is_present_fields_abbreviated_size;
 660              		.loc 1 273 5 discriminator 3 view .LVU141
 273:src-gen/Main/core/reactor_common.c ****     int size = env->is_present_fields_abbreviated_size;
 661              		.loc 1 273 12 is_stmt 0 discriminator 3 view .LVU142
 662 000a F46B     		ldr	r4, [r6, #60]
 663              	.LVL58:
 274:src-gen/Main/core/reactor_common.c ****     if (env->is_present_fields_abbreviated_size > env->is_present_fields_size) {
 664              		.loc 1 274 5 is_stmt 1 discriminator 3 view .LVU143
 274:src-gen/Main/core/reactor_common.c ****     if (env->is_present_fields_abbreviated_size > env->is_present_fields_size) {
 665              		.loc 1 274 9 is_stmt 0 discriminator 3 view .LVU144
 666 000c 306C     		ldr	r0, [r6, #64]
 667              	.LVL59:
ARM GAS  /var/folders/2h/lww79zv53b510qlyvytqnvq40000gn/T//ccDbZlJP.s 			page 26


 275:src-gen/Main/core/reactor_common.c ****         size = env->is_present_fields_size;
 668              		.loc 1 275 5 is_stmt 1 discriminator 3 view .LVU145
 275:src-gen/Main/core/reactor_common.c ****         size = env->is_present_fields_size;
 669              		.loc 1 275 54 is_stmt 0 discriminator 3 view .LVU146
 670 000e B36B     		ldr	r3, [r6, #56]
 275:src-gen/Main/core/reactor_common.c ****         size = env->is_present_fields_size;
 671              		.loc 1 275 8 discriminator 3 view .LVU147
 672 0010 8342     		cmp	r3, r0
 673 0012 01DA     		bge	.L58
 276:src-gen/Main/core/reactor_common.c ****         is_present_fields = env->is_present_fields;
 674              		.loc 1 276 9 is_stmt 1 view .LVU148
 675              	.LVL60:
 277:src-gen/Main/core/reactor_common.c ****     }
 676              		.loc 1 277 9 view .LVU149
 277:src-gen/Main/core/reactor_common.c ****     }
 677              		.loc 1 277 27 is_stmt 0 view .LVU150
 678 0014 746B     		ldr	r4, [r6, #52]
 679              	.LVL61:
 276:src-gen/Main/core/reactor_common.c ****         is_present_fields = env->is_present_fields;
 680              		.loc 1 276 14 view .LVU151
 681 0016 1846     		mov	r0, r3
 682              	.LVL62:
 683              	.L58:
 279:src-gen/Main/core/reactor_common.c ****         *is_present_fields[i] = false;
 684              		.loc 1 279 5 is_stmt 1 view .LVU152
 685              	.LBB6:
 279:src-gen/Main/core/reactor_common.c ****         *is_present_fields[i] = false;
 686              		.loc 1 279 9 view .LVU153
 279:src-gen/Main/core/reactor_common.c ****         *is_present_fields[i] = false;
 687              		.loc 1 279 13 is_stmt 0 view .LVU154
 688 0018 0023     		movs	r3, #0
 279:src-gen/Main/core/reactor_common.c ****         *is_present_fields[i] = false;
 689              		.loc 1 279 5 view .LVU155
 690 001a 0BE0     		b	.L59
 691              	.LVL63:
 692              	.L67:
 279:src-gen/Main/core/reactor_common.c ****         *is_present_fields[i] = false;
 693              		.loc 1 279 5 view .LVU156
 694              	.LBE6:
 268:src-gen/Main/core/reactor_common.c ****     LF_PRINT_LOG("--------- Start time step at tag " PRINTF_TAG ".", env->current_tag.time - start_
 695              		.loc 1 268 5 discriminator 1 view .LVU157
 696 001c 144B     		ldr	r3, .L68
 697 001e 154A     		ldr	r2, .L68+4
 698 0020 4FF48671 		mov	r1, #268
 699 0024 1448     		ldr	r0, .L68+8
 700              	.LVL64:
 268:src-gen/Main/core/reactor_common.c ****     LF_PRINT_LOG("--------- Start time step at tag " PRINTF_TAG ".", env->current_tag.time - start_
 701              		.loc 1 268 5 discriminator 1 view .LVU158
 702 0026 FFF7FEFF 		bl	__assert_func
 703              	.LVL65:
 704              	.L60:
 705              	.LBB7:
 280:src-gen/Main/core/reactor_common.c ****     }
 706              		.loc 1 280 9 is_stmt 1 discriminator 3 view .LVU159
 280:src-gen/Main/core/reactor_common.c ****     }
 707              		.loc 1 280 27 is_stmt 0 discriminator 3 view .LVU160
 708 002a 54F82320 		ldr	r2, [r4, r3, lsl #2]
ARM GAS  /var/folders/2h/lww79zv53b510qlyvytqnvq40000gn/T//ccDbZlJP.s 			page 27


 280:src-gen/Main/core/reactor_common.c ****     }
 709              		.loc 1 280 31 discriminator 3 view .LVU161
 710 002e 0021     		movs	r1, #0
 711 0030 1170     		strb	r1, [r2]
 279:src-gen/Main/core/reactor_common.c ****         *is_present_fields[i] = false;
 712              		.loc 1 279 31 is_stmt 1 discriminator 3 view .LVU162
 713 0032 0133     		adds	r3, r3, #1
 714              	.LVL66:
 715              	.L59:
 279:src-gen/Main/core/reactor_common.c ****         *is_present_fields[i] = false;
 716              		.loc 1 279 22 discriminator 1 view .LVU163
 717 0034 9842     		cmp	r0, r3
 718 0036 F8DC     		bgt	.L60
 719              	.LBE7:
 283:src-gen/Main/core/reactor_common.c ****         for (size_t i = 0; i < vector_size(&env->sparse_io_record_sizes); i++) {
 720              		.loc 1 283 5 view .LVU164
 283:src-gen/Main/core/reactor_common.c ****         for (size_t i = 0; i < vector_size(&env->sparse_io_record_sizes); i++) {
 721              		.loc 1 283 36 is_stmt 0 view .LVU165
 722 0038 736C     		ldr	r3, [r6, #68]
 723              	.LVL67:
 283:src-gen/Main/core/reactor_common.c ****         for (size_t i = 0; i < vector_size(&env->sparse_io_record_sizes); i++) {
 724              		.loc 1 283 8 view .LVU166
 725 003a ABB1     		cbz	r3, .L62
 726              	.LBB8:
 284:src-gen/Main/core/reactor_common.c ****             // NOTE: vector_at does not return the element at
 727              		.loc 1 284 21 view .LVU167
 728 003c 0024     		movs	r4, #0
 729              	.LVL68:
 284:src-gen/Main/core/reactor_common.c ****             // NOTE: vector_at does not return the element at
 730              		.loc 1 284 21 view .LVU168
 731 003e 00E0     		b	.L61
 732              	.LVL69:
 733              	.L63:
 284:src-gen/Main/core/reactor_common.c ****             // NOTE: vector_at does not return the element at
 734              		.loc 1 284 76 is_stmt 1 discriminator 2 view .LVU169
 735 0040 0134     		adds	r4, r4, #1
 736              	.LVL70:
 737              	.L61:
 284:src-gen/Main/core/reactor_common.c ****             // NOTE: vector_at does not return the element at
 738              		.loc 1 284 30 discriminator 1 view .LVU170
 284:src-gen/Main/core/reactor_common.c ****             // NOTE: vector_at does not return the element at
 739              		.loc 1 284 32 is_stmt 0 discriminator 1 view .LVU171
 740 0042 06F14405 		add	r5, r6, #68
 741 0046 2846     		mov	r0, r5
 742 0048 FFF7FEFF 		bl	vector_size
 743              	.LVL71:
 284:src-gen/Main/core/reactor_common.c ****             // NOTE: vector_at does not return the element at
 744              		.loc 1 284 30 discriminator 1 view .LVU172
 745 004c 8442     		cmp	r4, r0
 746 004e 0BD2     		bcs	.L62
 747              	.LBB9:
 288:src-gen/Main/core/reactor_common.c ****             if (sizep != NULL && *sizep != NULL) {
 748              		.loc 1 288 13 is_stmt 1 view .LVU173
 288:src-gen/Main/core/reactor_common.c ****             if (sizep != NULL && *sizep != NULL) {
 749              		.loc 1 288 34 is_stmt 0 view .LVU174
 750 0050 2146     		mov	r1, r4
 751 0052 2846     		mov	r0, r5
ARM GAS  /var/folders/2h/lww79zv53b510qlyvytqnvq40000gn/T//ccDbZlJP.s 			page 28


 752 0054 FFF7FEFF 		bl	vector_at
 753              	.LVL72:
 289:src-gen/Main/core/reactor_common.c ****                 **sizep = 0;
 754              		.loc 1 289 13 is_stmt 1 view .LVU175
 289:src-gen/Main/core/reactor_common.c ****                 **sizep = 0;
 755              		.loc 1 289 16 is_stmt 0 view .LVU176
 756 0058 0028     		cmp	r0, #0
 757 005a F1D0     		beq	.L63
 289:src-gen/Main/core/reactor_common.c ****                 **sizep = 0;
 758              		.loc 1 289 34 discriminator 1 view .LVU177
 759 005c 0368     		ldr	r3, [r0]
 289:src-gen/Main/core/reactor_common.c ****                 **sizep = 0;
 760              		.loc 1 289 31 discriminator 1 view .LVU178
 761 005e 002B     		cmp	r3, #0
 762 0060 EED0     		beq	.L63
 290:src-gen/Main/core/reactor_common.c ****             }
 763              		.loc 1 290 17 is_stmt 1 view .LVU179
 290:src-gen/Main/core/reactor_common.c ****             }
 764              		.loc 1 290 25 is_stmt 0 view .LVU180
 765 0062 0022     		movs	r2, #0
 766 0064 1A60     		str	r2, [r3]
 767 0066 EBE7     		b	.L63
 768              	.LVL73:
 769              	.L62:
 290:src-gen/Main/core/reactor_common.c ****             }
 770              		.loc 1 290 25 view .LVU181
 771              	.LBE9:
 772              	.LBE8:
 309:src-gen/Main/core/reactor_common.c **** }
 773              		.loc 1 309 5 is_stmt 1 view .LVU182
 309:src-gen/Main/core/reactor_common.c **** }
 774              		.loc 1 309 45 is_stmt 0 view .LVU183
 775 0068 0023     		movs	r3, #0
 776 006a 3364     		str	r3, [r6, #64]
 310:src-gen/Main/core/reactor_common.c **** 
 777              		.loc 1 310 1 view .LVU184
 778 006c 70BD     		pop	{r4, r5, r6, pc}
 779              	.LVL74:
 780              	.L69:
 310:src-gen/Main/core/reactor_common.c **** 
 781              		.loc 1 310 1 view .LVU185
 782 006e 00BF     		.align	2
 783              	.L68:
 784 0070 00000000 		.word	.LC0
 785 0074 00000000 		.word	__func__.14
 786 0078 1C000000 		.word	.LC1
 787              		.cfi_endproc
 788              	.LFE141:
 790              		.section	.text._lf_is_tag_after_stop_tag,"ax",%progbits
 791              		.align	1
 792              		.global	_lf_is_tag_after_stop_tag
 793              		.syntax unified
 794              		.thumb
 795              		.thumb_func
 797              	_lf_is_tag_after_stop_tag:
 798              	.LVL75:
 799              	.LFB142:
ARM GAS  /var/folders/2h/lww79zv53b510qlyvytqnvq40000gn/T//ccDbZlJP.s 			page 29


 318:src-gen/Main/core/reactor_common.c ****     assert(env != GLOBAL_ENVIRONMENT);
 800              		.loc 1 318 63 is_stmt 1 view -0
 801              		.cfi_startproc
 802              		@ args = 16, pretend = 8, frame = 0
 803              		@ frame_needed = 0, uses_anonymous_args = 0
 318:src-gen/Main/core/reactor_common.c ****     assert(env != GLOBAL_ENVIRONMENT);
 804              		.loc 1 318 63 is_stmt 0 view .LVU187
 805 0000 82B0     		sub	sp, sp, #8
 806              	.LCFI16:
 807              		.cfi_def_cfa_offset 8
 808 0002 00B5     		push	{lr}
 809              	.LCFI17:
 810              		.cfi_def_cfa_offset 12
 811              		.cfi_offset 14, -12
 812 0004 85B0     		sub	sp, sp, #20
 813              	.LCFI18:
 814              		.cfi_def_cfa_offset 32
 815 0006 06A9     		add	r1, sp, #24
 816 0008 81E80C00 		stm	r1, {r2, r3}
 319:src-gen/Main/core/reactor_common.c ****     return (lf_tag_compare(tag, env->stop_tag) > 0);
 817              		.loc 1 319 5 is_stmt 1 view .LVU188
 818 000c 88B1     		cbz	r0, .L73
 819 000e 0346     		mov	r3, r0
 320:src-gen/Main/core/reactor_common.c **** }
 820              		.loc 1 320 5 view .LVU189
 320:src-gen/Main/core/reactor_common.c **** }
 821              		.loc 1 320 13 is_stmt 0 view .LVU190
 822 0010 1833     		adds	r3, r3, #24
 823 0012 0FCB     		ldm	r3, {r0, r1, r2, r3}
 824              	.LVL76:
 320:src-gen/Main/core/reactor_common.c **** }
 825              		.loc 1 320 13 view .LVU191
 826 0014 8DE80F00 		stm	sp, {r0, r1, r2, r3}
 827 0018 06AB     		add	r3, sp, #24
 828 001a 0FCB     		ldm	r3, {r0, r1, r2, r3}
 829 001c FFF7FEFF 		bl	lf_tag_compare
 830              	.LVL77:
 321:src-gen/Main/core/reactor_common.c **** 
 831              		.loc 1 321 1 view .LVU192
 832 0020 0028     		cmp	r0, #0
 833 0022 D4BF     		ite	le
 834 0024 0020     		movle	r0, #0
 835 0026 0120     		movgt	r0, #1
 836 0028 05B0     		add	sp, sp, #20
 837              	.LCFI19:
 838              		.cfi_remember_state
 839              		.cfi_def_cfa_offset 12
 840              		@ sp needed
 841 002a 5DF804EB 		ldr	lr, [sp], #4
 842              	.LCFI20:
 843              		.cfi_restore 14
 844              		.cfi_def_cfa_offset 8
 845 002e 02B0     		add	sp, sp, #8
 846              	.LCFI21:
 847              		.cfi_def_cfa_offset 0
 848 0030 7047     		bx	lr
 849              	.LVL78:
ARM GAS  /var/folders/2h/lww79zv53b510qlyvytqnvq40000gn/T//ccDbZlJP.s 			page 30


 850              	.L73:
 851              	.LCFI22:
 852              		.cfi_restore_state
 319:src-gen/Main/core/reactor_common.c ****     return (lf_tag_compare(tag, env->stop_tag) > 0);
 853              		.loc 1 319 5 discriminator 1 view .LVU193
 854 0032 034B     		ldr	r3, .L74
 855 0034 034A     		ldr	r2, .L74+4
 856 0036 40F23F11 		movw	r1, #319
 857 003a 0348     		ldr	r0, .L74+8
 858              	.LVL79:
 319:src-gen/Main/core/reactor_common.c ****     return (lf_tag_compare(tag, env->stop_tag) > 0);
 859              		.loc 1 319 5 discriminator 1 view .LVU194
 860 003c FFF7FEFF 		bl	__assert_func
 861              	.LVL80:
 862              	.L75:
 863              		.align	2
 864              	.L74:
 865 0040 00000000 		.word	.LC0
 866 0044 00000000 		.word	__func__.13
 867 0048 1C000000 		.word	.LC1
 868              		.cfi_endproc
 869              	.LFE142:
 871              		.section	.text._lf_initialize_timer,"ax",%progbits
 872              		.align	1
 873              		.global	_lf_initialize_timer
 874              		.syntax unified
 875              		.thumb
 876              		.thumb_func
 878              	_lf_initialize_timer:
 879              	.LVL81:
 880              	.LFB145:
 474:src-gen/Main/core/reactor_common.c ****     assert(env != GLOBAL_ENVIRONMENT);
 881              		.loc 1 474 65 is_stmt 1 view -0
 882              		.cfi_startproc
 883              		@ args = 0, pretend = 0, frame = 0
 884              		@ frame_needed = 0, uses_anonymous_args = 0
 474:src-gen/Main/core/reactor_common.c ****     assert(env != GLOBAL_ENVIRONMENT);
 885              		.loc 1 474 65 is_stmt 0 view .LVU196
 886 0000 2DE9F041 		push	{r4, r5, r6, r7, r8, lr}
 887              	.LCFI23:
 888              		.cfi_def_cfa_offset 24
 889              		.cfi_offset 4, -24
 890              		.cfi_offset 5, -20
 891              		.cfi_offset 6, -16
 892              		.cfi_offset 7, -12
 893              		.cfi_offset 8, -8
 894              		.cfi_offset 14, -4
 475:src-gen/Main/core/reactor_common.c ****     interval_t delay = 0;
 895              		.loc 1 475 5 is_stmt 1 view .LVU197
 896 0004 48B1     		cbz	r0, .L84
 897 0006 0D46     		mov	r5, r1
 898 0008 0646     		mov	r6, r0
 476:src-gen/Main/core/reactor_common.c **** 
 899              		.loc 1 476 5 view .LVU198
 900              	.LVL82:
 491:src-gen/Main/core/reactor_common.c ****         for (int i = 0; i < timer->number_of_reactions; i++) {
 901              		.loc 1 491 5 view .LVU199
ARM GAS  /var/folders/2h/lww79zv53b510qlyvytqnvq40000gn/T//ccDbZlJP.s 			page 31


 491:src-gen/Main/core/reactor_common.c ****         for (int i = 0; i < timer->number_of_reactions; i++) {
 902              		.loc 1 491 14 is_stmt 0 view .LVU200
 903 000a D1F82080 		ldr	r8, [r1, #32]
 904 000e 4C6A     		ldr	r4, [r1, #36]
 491:src-gen/Main/core/reactor_common.c ****         for (int i = 0; i < timer->number_of_reactions; i++) {
 905              		.loc 1 491 8 view .LVU201
 906 0010 58EA0403 		orrs	r3, r8, r4
 907 0014 1AD1     		bne	.L79
 908              	.LBB10:
 492:src-gen/Main/core/reactor_common.c ****             _lf_trigger_reaction(env, timer->reactions[i], -1);
 909              		.loc 1 492 18 view .LVU202
 910 0016 0024     		movs	r4, #0
 911 0018 0FE0     		b	.L78
 912              	.LVL83:
 913              	.L84:
 492:src-gen/Main/core/reactor_common.c ****             _lf_trigger_reaction(env, timer->reactions[i], -1);
 914              		.loc 1 492 18 view .LVU203
 915              	.LBE10:
 475:src-gen/Main/core/reactor_common.c ****     interval_t delay = 0;
 916              		.loc 1 475 5 discriminator 1 view .LVU204
 917 001a 164B     		ldr	r3, .L85
 918 001c 164A     		ldr	r2, .L85+4
 919 001e 40F2DB11 		movw	r1, #475
 920              	.LVL84:
 475:src-gen/Main/core/reactor_common.c ****     interval_t delay = 0;
 921              		.loc 1 475 5 discriminator 1 view .LVU205
 922 0022 1648     		ldr	r0, .L85+8
 923              	.LVL85:
 475:src-gen/Main/core/reactor_common.c ****     interval_t delay = 0;
 924              		.loc 1 475 5 discriminator 1 view .LVU206
 925 0024 FFF7FEFF 		bl	__assert_func
 926              	.LVL86:
 927              	.L80:
 928              	.LBB11:
 493:src-gen/Main/core/reactor_common.c ****             tracepoint_schedule(env->trace, timer, 0LL); // Trace even though schedule is not calle
 929              		.loc 1 493 13 is_stmt 1 discriminator 3 view .LVU207
 493:src-gen/Main/core/reactor_common.c ****             tracepoint_schedule(env->trace, timer, 0LL); // Trace even though schedule is not calle
 930              		.loc 1 493 44 is_stmt 0 discriminator 3 view .LVU208
 931 0028 6B69     		ldr	r3, [r5, #20]
 493:src-gen/Main/core/reactor_common.c ****             tracepoint_schedule(env->trace, timer, 0LL); // Trace even though schedule is not calle
 932              		.loc 1 493 13 discriminator 3 view .LVU209
 933 002a 4FF0FF32 		mov	r2, #-1
 934 002e 53F82410 		ldr	r1, [r3, r4, lsl #2]
 935 0032 3046     		mov	r0, r6
 936 0034 FFF7FEFF 		bl	_lf_trigger_reaction
 937              	.LVL87:
 494:src-gen/Main/core/reactor_common.c ****         }
 938              		.loc 1 494 56 is_stmt 1 discriminator 3 view .LVU210
 492:src-gen/Main/core/reactor_common.c ****             _lf_trigger_reaction(env, timer->reactions[i], -1);
 939              		.loc 1 492 58 discriminator 3 view .LVU211
 940 0038 0134     		adds	r4, r4, #1
 941              	.LVL88:
 942              	.L78:
 492:src-gen/Main/core/reactor_common.c ****             _lf_trigger_reaction(env, timer->reactions[i], -1);
 943              		.loc 1 492 27 discriminator 1 view .LVU212
 492:src-gen/Main/core/reactor_common.c ****             _lf_trigger_reaction(env, timer->reactions[i], -1);
 944              		.loc 1 492 34 is_stmt 0 discriminator 1 view .LVU213
ARM GAS  /var/folders/2h/lww79zv53b510qlyvytqnvq40000gn/T//ccDbZlJP.s 			page 32


 945 003a AB69     		ldr	r3, [r5, #24]
 492:src-gen/Main/core/reactor_common.c ****             _lf_trigger_reaction(env, timer->reactions[i], -1);
 946              		.loc 1 492 27 discriminator 1 view .LVU214
 947 003c A342     		cmp	r3, r4
 948 003e F3DC     		bgt	.L80
 949              	.LBE11:
 496:src-gen/Main/core/reactor_common.c ****             return;
 950              		.loc 1 496 9 is_stmt 1 view .LVU215
 496:src-gen/Main/core/reactor_common.c ****             return;
 951              		.loc 1 496 18 is_stmt 0 view .LVU216
 952 0040 D5F82880 		ldr	r8, [r5, #40]
 953 0044 EC6A     		ldr	r4, [r5, #44]
 954              	.LVL89:
 496:src-gen/Main/core/reactor_common.c ****             return;
 955              		.loc 1 496 12 view .LVU217
 956 0046 58EA0403 		orrs	r3, r8, r4
 957 004a 11D0     		beq	.L76
 958              	.LVL90:
 959              	.L79:
 509:src-gen/Main/core/reactor_common.c ****     e->trigger = timer;
 960              		.loc 1 509 5 is_stmt 1 view .LVU218
 509:src-gen/Main/core/reactor_common.c ****     e->trigger = timer;
 961              		.loc 1 509 18 is_stmt 0 view .LVU219
 962 004c 3046     		mov	r0, r6
 963 004e FFF7FEFF 		bl	_lf_get_new_event
 964              	.LVL91:
 965 0052 0746     		mov	r7, r0
 966              	.LVL92:
 510:src-gen/Main/core/reactor_common.c ****     e->time = lf_time_logical(env) + delay;
 967              		.loc 1 510 5 is_stmt 1 view .LVU220
 510:src-gen/Main/core/reactor_common.c ****     e->time = lf_time_logical(env) + delay;
 968              		.loc 1 510 16 is_stmt 0 view .LVU221
 969 0054 8560     		str	r5, [r0, #8]
 511:src-gen/Main/core/reactor_common.c ****     // NOTE: No lock is being held. Assuming this only happens at startup.
 970              		.loc 1 511 5 is_stmt 1 view .LVU222
 511:src-gen/Main/core/reactor_common.c ****     // NOTE: No lock is being held. Assuming this only happens at startup.
 971              		.loc 1 511 15 is_stmt 0 view .LVU223
 972 0056 3046     		mov	r0, r6
 973              	.LVL93:
 511:src-gen/Main/core/reactor_common.c ****     // NOTE: No lock is being held. Assuming this only happens at startup.
 974              		.loc 1 511 15 view .LVU224
 975 0058 FFF7FEFF 		bl	lf_time_logical
 976              	.LVL94:
 511:src-gen/Main/core/reactor_common.c ****     // NOTE: No lock is being held. Assuming this only happens at startup.
 977              		.loc 1 511 36 view .LVU225
 978 005c 10EB0800 		adds	r0, r0, r8
 979 0060 44EB0104 		adc	r4, r4, r1
 980              	.LVL95:
 511:src-gen/Main/core/reactor_common.c ****     // NOTE: No lock is being held. Assuming this only happens at startup.
 981              		.loc 1 511 13 view .LVU226
 982 0064 3860     		str	r0, [r7]
 983 0066 7C60     		str	r4, [r7, #4]
 513:src-gen/Main/core/reactor_common.c ****     tracepoint_schedule(env->trace, timer, delay); // Trace even though schedule is not called.
 984              		.loc 1 513 5 is_stmt 1 view .LVU227
 985 0068 3946     		mov	r1, r7
 986 006a B06A     		ldr	r0, [r6, #40]
 987 006c FFF7FEFF 		bl	pqueue_insert
ARM GAS  /var/folders/2h/lww79zv53b510qlyvytqnvq40000gn/T//ccDbZlJP.s 			page 33


 988              	.LVL96:
 514:src-gen/Main/core/reactor_common.c **** }
 989              		.loc 1 514 50 view .LVU228
 990              	.L76:
 515:src-gen/Main/core/reactor_common.c **** 
 991              		.loc 1 515 1 is_stmt 0 view .LVU229
 992 0070 BDE8F081 		pop	{r4, r5, r6, r7, r8, pc}
 993              	.LVL97:
 994              	.L86:
 515:src-gen/Main/core/reactor_common.c **** 
 995              		.loc 1 515 1 view .LVU230
 996              		.align	2
 997              	.L85:
 998 0074 00000000 		.word	.LC0
 999 0078 00000000 		.word	__func__.11
 1000 007c 1C000000 		.word	.LC1
 1001              		.cfi_endproc
 1002              	.LFE145:
 1004              		.section	.text._lf_initialize_timers,"ax",%progbits
 1005              		.align	1
 1006              		.global	_lf_initialize_timers
 1007              		.syntax unified
 1008              		.thumb
 1009              		.thumb_func
 1011              	_lf_initialize_timers:
 1012              	.LVL98:
 1013              	.LFB146:
 521:src-gen/Main/core/reactor_common.c ****     assert(env != GLOBAL_ENVIRONMENT);
 1014              		.loc 1 521 48 is_stmt 1 view -0
 1015              		.cfi_startproc
 1016              		@ args = 0, pretend = 0, frame = 0
 1017              		@ frame_needed = 0, uses_anonymous_args = 0
 521:src-gen/Main/core/reactor_common.c ****     assert(env != GLOBAL_ENVIRONMENT);
 1018              		.loc 1 521 48 is_stmt 0 view .LVU232
 1019 0000 38B5     		push	{r3, r4, r5, lr}
 1020              	.LCFI24:
 1021              		.cfi_def_cfa_offset 16
 1022              		.cfi_offset 3, -16
 1023              		.cfi_offset 4, -12
 1024              		.cfi_offset 5, -8
 1025              		.cfi_offset 14, -4
 522:src-gen/Main/core/reactor_common.c ****     for (int i = 0; i < env->timer_triggers_size; i++) {
 1026              		.loc 1 522 5 is_stmt 1 view .LVU233
 1027 0002 10B1     		cbz	r0, .L93
 1028 0004 0546     		mov	r5, r0
 1029              	.LBB12:
 523:src-gen/Main/core/reactor_common.c ****         if (env->timer_triggers[i] != NULL) {
 1030              		.loc 1 523 14 is_stmt 0 view .LVU234
 1031 0006 0024     		movs	r4, #0
 1032 0008 07E0     		b	.L88
 1033              	.L93:
 523:src-gen/Main/core/reactor_common.c ****         if (env->timer_triggers[i] != NULL) {
 1034              		.loc 1 523 14 view .LVU235
 1035              	.LBE12:
 522:src-gen/Main/core/reactor_common.c ****     for (int i = 0; i < env->timer_triggers_size; i++) {
 1036              		.loc 1 522 5 discriminator 1 view .LVU236
 1037 000a 0A4B     		ldr	r3, .L95
ARM GAS  /var/folders/2h/lww79zv53b510qlyvytqnvq40000gn/T//ccDbZlJP.s 			page 34


 1038 000c 0A4A     		ldr	r2, .L95+4
 1039 000e 40F20A21 		movw	r1, #522
 1040 0012 0A48     		ldr	r0, .L95+8
 1041              	.LVL99:
 522:src-gen/Main/core/reactor_common.c ****     for (int i = 0; i < env->timer_triggers_size; i++) {
 1042              		.loc 1 522 5 discriminator 1 view .LVU237
 1043 0014 FFF7FEFF 		bl	__assert_func
 1044              	.LVL100:
 1045              	.L89:
 1046              	.LBB13:
 523:src-gen/Main/core/reactor_common.c ****         if (env->timer_triggers[i] != NULL) {
 1047              		.loc 1 523 52 is_stmt 1 discriminator 2 view .LVU238
 1048 0018 0134     		adds	r4, r4, #1
 1049              	.LVL101:
 1050              	.L88:
 523:src-gen/Main/core/reactor_common.c ****         if (env->timer_triggers[i] != NULL) {
 1051              		.loc 1 523 23 discriminator 1 view .LVU239
 523:src-gen/Main/core/reactor_common.c ****         if (env->timer_triggers[i] != NULL) {
 1052              		.loc 1 523 28 is_stmt 0 discriminator 1 view .LVU240
 1053 001a 2B6E     		ldr	r3, [r5, #96]
 523:src-gen/Main/core/reactor_common.c ****         if (env->timer_triggers[i] != NULL) {
 1054              		.loc 1 523 23 discriminator 1 view .LVU241
 1055 001c A342     		cmp	r3, r4
 1056 001e 08DD     		ble	.L94
 524:src-gen/Main/core/reactor_common.c ****             _lf_initialize_timer(env, env->timer_triggers[i]);
 1057              		.loc 1 524 9 is_stmt 1 view .LVU242
 524:src-gen/Main/core/reactor_common.c ****             _lf_initialize_timer(env, env->timer_triggers[i]);
 1058              		.loc 1 524 16 is_stmt 0 view .LVU243
 1059 0020 EB6D     		ldr	r3, [r5, #92]
 524:src-gen/Main/core/reactor_common.c ****             _lf_initialize_timer(env, env->timer_triggers[i]);
 1060              		.loc 1 524 32 view .LVU244
 1061 0022 53F82410 		ldr	r1, [r3, r4, lsl #2]
 524:src-gen/Main/core/reactor_common.c ****             _lf_initialize_timer(env, env->timer_triggers[i]);
 1062              		.loc 1 524 12 view .LVU245
 1063 0026 0029     		cmp	r1, #0
 1064 0028 F6D0     		beq	.L89
 525:src-gen/Main/core/reactor_common.c ****         }
 1065              		.loc 1 525 13 is_stmt 1 view .LVU246
 1066 002a 2846     		mov	r0, r5
 1067 002c FFF7FEFF 		bl	_lf_initialize_timer
 1068              	.LVL102:
 1069 0030 F2E7     		b	.L89
 1070              	.L94:
 1071              	.LBE13:
 528:src-gen/Main/core/reactor_common.c **** 
 1072              		.loc 1 528 1 is_stmt 0 view .LVU247
 1073 0032 38BD     		pop	{r3, r4, r5, pc}
 1074              	.LVL103:
 1075              	.L96:
 528:src-gen/Main/core/reactor_common.c **** 
 1076              		.loc 1 528 1 view .LVU248
 1077              		.align	2
 1078              	.L95:
 1079 0034 00000000 		.word	.LC0
 1080 0038 00000000 		.word	__func__.9
 1081 003c 1C000000 		.word	.LC1
 1082              		.cfi_endproc
ARM GAS  /var/folders/2h/lww79zv53b510qlyvytqnvq40000gn/T//ccDbZlJP.s 			page 35


 1083              	.LFE146:
 1085              		.section	.text._lf_trigger_startup_reactions,"ax",%progbits
 1086              		.align	1
 1087              		.global	_lf_trigger_startup_reactions
 1088              		.syntax unified
 1089              		.thumb
 1090              		.thumb_func
 1092              	_lf_trigger_startup_reactions:
 1093              	.LVL104:
 1094              	.LFB147:
 534:src-gen/Main/core/reactor_common.c ****     assert(env != GLOBAL_ENVIRONMENT);
 1095              		.loc 1 534 56 is_stmt 1 view -0
 1096              		.cfi_startproc
 1097              		@ args = 0, pretend = 0, frame = 0
 1098              		@ frame_needed = 0, uses_anonymous_args = 0
 534:src-gen/Main/core/reactor_common.c ****     assert(env != GLOBAL_ENVIRONMENT);
 1099              		.loc 1 534 56 is_stmt 0 view .LVU250
 1100 0000 38B5     		push	{r3, r4, r5, lr}
 1101              	.LCFI25:
 1102              		.cfi_def_cfa_offset 16
 1103              		.cfi_offset 3, -16
 1104              		.cfi_offset 4, -12
 1105              		.cfi_offset 5, -8
 1106              		.cfi_offset 14, -4
 535:src-gen/Main/core/reactor_common.c ****     for (int i = 0; i < env->startup_reactions_size; i++) {
 1107              		.loc 1 535 5 is_stmt 1 view .LVU251
 1108 0002 10B1     		cbz	r0, .L103
 1109 0004 0546     		mov	r5, r0
 1110              	.LBB14:
 536:src-gen/Main/core/reactor_common.c ****         if (env->startup_reactions[i] != NULL) {
 1111              		.loc 1 536 14 is_stmt 0 view .LVU252
 1112 0006 0024     		movs	r4, #0
 1113 0008 07E0     		b	.L98
 1114              	.L103:
 536:src-gen/Main/core/reactor_common.c ****         if (env->startup_reactions[i] != NULL) {
 1115              		.loc 1 536 14 view .LVU253
 1116              	.LBE14:
 535:src-gen/Main/core/reactor_common.c ****     for (int i = 0; i < env->startup_reactions_size; i++) {
 1117              		.loc 1 535 5 discriminator 1 view .LVU254
 1118 000a 0D4B     		ldr	r3, .L105
 1119 000c 0D4A     		ldr	r2, .L105+4
 1120 000e 40F21721 		movw	r1, #535
 1121 0012 0D48     		ldr	r0, .L105+8
 1122              	.LVL105:
 535:src-gen/Main/core/reactor_common.c ****     for (int i = 0; i < env->startup_reactions_size; i++) {
 1123              		.loc 1 535 5 discriminator 1 view .LVU255
 1124 0014 FFF7FEFF 		bl	__assert_func
 1125              	.LVL106:
 1126              	.L99:
 1127              	.LBB15:
 536:src-gen/Main/core/reactor_common.c ****         if (env->startup_reactions[i] != NULL) {
 1128              		.loc 1 536 55 is_stmt 1 discriminator 2 view .LVU256
 1129 0018 0134     		adds	r4, r4, #1
 1130              	.LVL107:
 1131              	.L98:
 536:src-gen/Main/core/reactor_common.c ****         if (env->startup_reactions[i] != NULL) {
 1132              		.loc 1 536 23 discriminator 1 view .LVU257
ARM GAS  /var/folders/2h/lww79zv53b510qlyvytqnvq40000gn/T//ccDbZlJP.s 			page 36


 536:src-gen/Main/core/reactor_common.c ****         if (env->startup_reactions[i] != NULL) {
 1133              		.loc 1 536 28 is_stmt 0 discriminator 1 view .LVU258
 1134 001a AB6E     		ldr	r3, [r5, #104]
 536:src-gen/Main/core/reactor_common.c ****         if (env->startup_reactions[i] != NULL) {
 1135              		.loc 1 536 23 discriminator 1 view .LVU259
 1136 001c A342     		cmp	r3, r4
 1137 001e 0DDD     		ble	.L104
 537:src-gen/Main/core/reactor_common.c ****             if (env->startup_reactions[i]->mode != NULL) {
 1138              		.loc 1 537 9 is_stmt 1 view .LVU260
 537:src-gen/Main/core/reactor_common.c ****             if (env->startup_reactions[i]->mode != NULL) {
 1139              		.loc 1 537 16 is_stmt 0 view .LVU261
 1140 0020 6B6E     		ldr	r3, [r5, #100]
 537:src-gen/Main/core/reactor_common.c ****             if (env->startup_reactions[i]->mode != NULL) {
 1141              		.loc 1 537 35 view .LVU262
 1142 0022 53F82410 		ldr	r1, [r3, r4, lsl #2]
 537:src-gen/Main/core/reactor_common.c ****             if (env->startup_reactions[i]->mode != NULL) {
 1143              		.loc 1 537 12 view .LVU263
 1144 0026 0029     		cmp	r1, #0
 1145 0028 F6D0     		beq	.L99
 538:src-gen/Main/core/reactor_common.c ****                 // Skip reactions in modes
 1146              		.loc 1 538 13 is_stmt 1 view .LVU264
 538:src-gen/Main/core/reactor_common.c ****                 // Skip reactions in modes
 1147              		.loc 1 538 42 is_stmt 0 view .LVU265
 1148 002a 0B6E     		ldr	r3, [r1, #96]
 538:src-gen/Main/core/reactor_common.c ****                 // Skip reactions in modes
 1149              		.loc 1 538 16 view .LVU266
 1150 002c 002B     		cmp	r3, #0
 1151 002e F3D1     		bne	.L99
 542:src-gen/Main/core/reactor_common.c ****         }
 1152              		.loc 1 542 13 is_stmt 1 view .LVU267
 1153 0030 4FF0FF32 		mov	r2, #-1
 1154 0034 2846     		mov	r0, r5
 1155 0036 FFF7FEFF 		bl	_lf_trigger_reaction
 1156              	.LVL108:
 1157 003a EDE7     		b	.L99
 1158              	.L104:
 1159              	.LBE15:
 555:src-gen/Main/core/reactor_common.c **** 
 1160              		.loc 1 555 1 is_stmt 0 view .LVU268
 1161 003c 38BD     		pop	{r3, r4, r5, pc}
 1162              	.LVL109:
 1163              	.L106:
 555:src-gen/Main/core/reactor_common.c **** 
 1164              		.loc 1 555 1 view .LVU269
 1165 003e 00BF     		.align	2
 1166              	.L105:
 1167 0040 00000000 		.word	.LC0
 1168 0044 00000000 		.word	__func__.8
 1169 0048 1C000000 		.word	.LC1
 1170              		.cfi_endproc
 1171              	.LFE147:
 1173              		.section	.text._lf_trigger_shutdown_reactions,"ax",%progbits
 1174              		.align	1
 1175              		.global	_lf_trigger_shutdown_reactions
 1176              		.syntax unified
 1177              		.thumb
 1178              		.thumb_func
ARM GAS  /var/folders/2h/lww79zv53b510qlyvytqnvq40000gn/T//ccDbZlJP.s 			page 37


 1180              	_lf_trigger_shutdown_reactions:
 1181              	.LVL110:
 1182              	.LFB148:
 561:src-gen/Main/core/reactor_common.c ****     assert(env != GLOBAL_ENVIRONMENT);
 1183              		.loc 1 561 57 is_stmt 1 view -0
 1184              		.cfi_startproc
 1185              		@ args = 0, pretend = 0, frame = 0
 1186              		@ frame_needed = 0, uses_anonymous_args = 0
 561:src-gen/Main/core/reactor_common.c ****     assert(env != GLOBAL_ENVIRONMENT);
 1187              		.loc 1 561 57 is_stmt 0 view .LVU271
 1188 0000 38B5     		push	{r3, r4, r5, lr}
 1189              	.LCFI26:
 1190              		.cfi_def_cfa_offset 16
 1191              		.cfi_offset 3, -16
 1192              		.cfi_offset 4, -12
 1193              		.cfi_offset 5, -8
 1194              		.cfi_offset 14, -4
 562:src-gen/Main/core/reactor_common.c ****     for (int i = 0; i < env->shutdown_reactions_size; i++) {
 1195              		.loc 1 562 5 is_stmt 1 view .LVU272
 1196 0002 10B1     		cbz	r0, .L113
 1197 0004 0546     		mov	r5, r0
 1198              	.LBB16:
 563:src-gen/Main/core/reactor_common.c ****         if (env->shutdown_reactions[i] != NULL) {
 1199              		.loc 1 563 14 is_stmt 0 view .LVU273
 1200 0006 0024     		movs	r4, #0
 1201 0008 07E0     		b	.L108
 1202              	.L113:
 563:src-gen/Main/core/reactor_common.c ****         if (env->shutdown_reactions[i] != NULL) {
 1203              		.loc 1 563 14 view .LVU274
 1204              	.LBE16:
 562:src-gen/Main/core/reactor_common.c ****     for (int i = 0; i < env->shutdown_reactions_size; i++) {
 1205              		.loc 1 562 5 discriminator 1 view .LVU275
 1206 000a 0D4B     		ldr	r3, .L115
 1207 000c 0D4A     		ldr	r2, .L115+4
 1208 000e 40F23221 		movw	r1, #562
 1209 0012 0D48     		ldr	r0, .L115+8
 1210              	.LVL111:
 562:src-gen/Main/core/reactor_common.c ****     for (int i = 0; i < env->shutdown_reactions_size; i++) {
 1211              		.loc 1 562 5 discriminator 1 view .LVU276
 1212 0014 FFF7FEFF 		bl	__assert_func
 1213              	.LVL112:
 1214              	.L109:
 1215              	.LBB17:
 563:src-gen/Main/core/reactor_common.c ****         if (env->shutdown_reactions[i] != NULL) {
 1216              		.loc 1 563 56 is_stmt 1 discriminator 2 view .LVU277
 1217 0018 0134     		adds	r4, r4, #1
 1218              	.LVL113:
 1219              	.L108:
 563:src-gen/Main/core/reactor_common.c ****         if (env->shutdown_reactions[i] != NULL) {
 1220              		.loc 1 563 23 discriminator 1 view .LVU278
 563:src-gen/Main/core/reactor_common.c ****         if (env->shutdown_reactions[i] != NULL) {
 1221              		.loc 1 563 28 is_stmt 0 discriminator 1 view .LVU279
 1222 001a 2B6F     		ldr	r3, [r5, #112]
 563:src-gen/Main/core/reactor_common.c ****         if (env->shutdown_reactions[i] != NULL) {
 1223              		.loc 1 563 23 discriminator 1 view .LVU280
 1224 001c A342     		cmp	r3, r4
 1225 001e 0DDD     		ble	.L114
ARM GAS  /var/folders/2h/lww79zv53b510qlyvytqnvq40000gn/T//ccDbZlJP.s 			page 38


 564:src-gen/Main/core/reactor_common.c ****             if (env->shutdown_reactions[i]->mode != NULL) {
 1226              		.loc 1 564 9 is_stmt 1 view .LVU281
 564:src-gen/Main/core/reactor_common.c ****             if (env->shutdown_reactions[i]->mode != NULL) {
 1227              		.loc 1 564 16 is_stmt 0 view .LVU282
 1228 0020 EB6E     		ldr	r3, [r5, #108]
 564:src-gen/Main/core/reactor_common.c ****             if (env->shutdown_reactions[i]->mode != NULL) {
 1229              		.loc 1 564 36 view .LVU283
 1230 0022 53F82410 		ldr	r1, [r3, r4, lsl #2]
 564:src-gen/Main/core/reactor_common.c ****             if (env->shutdown_reactions[i]->mode != NULL) {
 1231              		.loc 1 564 12 view .LVU284
 1232 0026 0029     		cmp	r1, #0
 1233 0028 F6D0     		beq	.L109
 565:src-gen/Main/core/reactor_common.c ****                 // Skip reactions in modes
 1234              		.loc 1 565 13 is_stmt 1 view .LVU285
 565:src-gen/Main/core/reactor_common.c ****                 // Skip reactions in modes
 1235              		.loc 1 565 43 is_stmt 0 view .LVU286
 1236 002a 0B6E     		ldr	r3, [r1, #96]
 565:src-gen/Main/core/reactor_common.c ****                 // Skip reactions in modes
 1237              		.loc 1 565 16 view .LVU287
 1238 002c 002B     		cmp	r3, #0
 1239 002e F3D1     		bne	.L109
 569:src-gen/Main/core/reactor_common.c ****         }
 1240              		.loc 1 569 13 is_stmt 1 view .LVU288
 1241 0030 4FF0FF32 		mov	r2, #-1
 1242 0034 2846     		mov	r0, r5
 1243 0036 FFF7FEFF 		bl	_lf_trigger_reaction
 1244              	.LVL114:
 1245 003a EDE7     		b	.L109
 1246              	.L114:
 1247              	.LBE17:
 577:src-gen/Main/core/reactor_common.c **** 
 1248              		.loc 1 577 1 is_stmt 0 view .LVU289
 1249 003c 38BD     		pop	{r3, r4, r5, pc}
 1250              	.LVL115:
 1251              	.L116:
 577:src-gen/Main/core/reactor_common.c **** 
 1252              		.loc 1 577 1 view .LVU290
 1253 003e 00BF     		.align	2
 1254              	.L115:
 1255 0040 00000000 		.word	.LC0
 1256 0044 00000000 		.word	__func__.7
 1257 0048 1C000000 		.word	.LC1
 1258              		.cfi_endproc
 1259              	.LFE148:
 1261              		.section	.text._lf_recycle_event,"ax",%progbits
 1262              		.align	1
 1263              		.global	_lf_recycle_event
 1264              		.syntax unified
 1265              		.thumb
 1266              		.thumb_func
 1268              	_lf_recycle_event:
 1269              	.LVL116:
 1270              	.LFB149:
 585:src-gen/Main/core/reactor_common.c ****     assert(env != GLOBAL_ENVIRONMENT);
 1271              		.loc 1 585 56 is_stmt 1 view -0
 1272              		.cfi_startproc
 1273              		@ args = 0, pretend = 0, frame = 0
ARM GAS  /var/folders/2h/lww79zv53b510qlyvytqnvq40000gn/T//ccDbZlJP.s 			page 39


 1274              		@ frame_needed = 0, uses_anonymous_args = 0
 585:src-gen/Main/core/reactor_common.c ****     assert(env != GLOBAL_ENVIRONMENT);
 1275              		.loc 1 585 56 is_stmt 0 view .LVU292
 1276 0000 08B5     		push	{r3, lr}
 1277              	.LCFI27:
 1278              		.cfi_def_cfa_offset 8
 1279              		.cfi_offset 3, -8
 1280              		.cfi_offset 14, -4
 586:src-gen/Main/core/reactor_common.c ****     e->time = 0LL;
 1281              		.loc 1 586 5 is_stmt 1 view .LVU293
 1282 0002 68B1     		cbz	r0, .L120
 587:src-gen/Main/core/reactor_common.c ****     e->trigger = NULL;
 1283              		.loc 1 587 5 view .LVU294
 587:src-gen/Main/core/reactor_common.c ****     e->trigger = NULL;
 1284              		.loc 1 587 13 is_stmt 0 view .LVU295
 1285 0004 9FED0A7B 		vldr.64	d7, .L121	@ int
 1286 0008 81ED007B 		vstr.64	d7, [r1]	@ int
 588:src-gen/Main/core/reactor_common.c ****     e->pos = 0;
 1287              		.loc 1 588 5 is_stmt 1 view .LVU296
 588:src-gen/Main/core/reactor_common.c ****     e->pos = 0;
 1288              		.loc 1 588 16 is_stmt 0 view .LVU297
 1289 000c 0023     		movs	r3, #0
 1290 000e 8B60     		str	r3, [r1, #8]
 589:src-gen/Main/core/reactor_common.c ****     e->token = NULL;
 1291              		.loc 1 589 5 is_stmt 1 view .LVU298
 589:src-gen/Main/core/reactor_common.c ****     e->token = NULL;
 1292              		.loc 1 589 12 is_stmt 0 view .LVU299
 1293 0010 CB60     		str	r3, [r1, #12]
 590:src-gen/Main/core/reactor_common.c ****     e->is_dummy = false;
 1294              		.loc 1 590 5 is_stmt 1 view .LVU300
 590:src-gen/Main/core/reactor_common.c ****     e->is_dummy = false;
 1295              		.loc 1 590 14 is_stmt 0 view .LVU301
 1296 0012 0B61     		str	r3, [r1, #16]
 591:src-gen/Main/core/reactor_common.c **** #ifdef FEDERATED_DECENTRALIZED
 1297              		.loc 1 591 5 is_stmt 1 view .LVU302
 591:src-gen/Main/core/reactor_common.c **** #ifdef FEDERATED_DECENTRALIZED
 1298              		.loc 1 591 17 is_stmt 0 view .LVU303
 1299 0014 0B75     		strb	r3, [r1, #20]
 595:src-gen/Main/core/reactor_common.c ****     pqueue_insert(env->recycle_q, e);
 1300              		.loc 1 595 5 is_stmt 1 view .LVU304
 595:src-gen/Main/core/reactor_common.c ****     pqueue_insert(env->recycle_q, e);
 1301              		.loc 1 595 13 is_stmt 0 view .LVU305
 1302 0016 8B61     		str	r3, [r1, #24]
 596:src-gen/Main/core/reactor_common.c **** }
 1303              		.loc 1 596 5 is_stmt 1 view .LVU306
 1304 0018 C06A     		ldr	r0, [r0, #44]
 1305              	.LVL117:
 596:src-gen/Main/core/reactor_common.c **** }
 1306              		.loc 1 596 5 is_stmt 0 view .LVU307
 1307 001a FFF7FEFF 		bl	pqueue_insert
 1308              	.LVL118:
 597:src-gen/Main/core/reactor_common.c **** 
 1309              		.loc 1 597 1 view .LVU308
 1310 001e 08BD     		pop	{r3, pc}
 1311              	.LVL119:
 1312              	.L120:
 586:src-gen/Main/core/reactor_common.c ****     e->time = 0LL;
ARM GAS  /var/folders/2h/lww79zv53b510qlyvytqnvq40000gn/T//ccDbZlJP.s 			page 40


 1313              		.loc 1 586 5 discriminator 1 view .LVU309
 1314 0020 054B     		ldr	r3, .L121+8
 1315 0022 064A     		ldr	r2, .L121+12
 1316 0024 40F24A21 		movw	r1, #586
 1317              	.LVL120:
 586:src-gen/Main/core/reactor_common.c ****     e->time = 0LL;
 1318              		.loc 1 586 5 discriminator 1 view .LVU310
 1319 0028 0548     		ldr	r0, .L121+16
 1320              	.LVL121:
 586:src-gen/Main/core/reactor_common.c ****     e->time = 0LL;
 1321              		.loc 1 586 5 discriminator 1 view .LVU311
 1322 002a FFF7FEFF 		bl	__assert_func
 1323              	.LVL122:
 1324              	.L122:
 1325 002e 00BF     		.align	3
 1326              	.L121:
 1327 0030 00000000 		.word	0
 1328 0034 00000000 		.word	0
 1329 0038 00000000 		.word	.LC0
 1330 003c 00000000 		.word	__func__.6
 1331 0040 1C000000 		.word	.LC1
 1332              		.cfi_endproc
 1333              	.LFE149:
 1335              		.section	.text._lf_create_dummy_events,"ax",%progbits
 1336              		.align	1
 1337              		.global	_lf_create_dummy_events
 1338              		.syntax unified
 1339              		.thumb
 1340              		.thumb_func
 1342              	_lf_create_dummy_events:
 1343              	.LVL123:
 1344              	.LFB150:
 608:src-gen/Main/core/reactor_common.c ****     event_t* first_dummy = _lf_get_new_event(env);
 1345              		.loc 1 608 125 is_stmt 1 view -0
 1346              		.cfi_startproc
 1347              		@ args = 8, pretend = 0, frame = 0
 1348              		@ frame_needed = 0, uses_anonymous_args = 0
 608:src-gen/Main/core/reactor_common.c ****     event_t* first_dummy = _lf_get_new_event(env);
 1349              		.loc 1 608 125 is_stmt 0 view .LVU313
 1350 0000 2DE9F047 		push	{r4, r5, r6, r7, r8, r9, r10, lr}
 1351              	.LCFI28:
 1352              		.cfi_def_cfa_offset 32
 1353              		.cfi_offset 4, -32
 1354              		.cfi_offset 5, -28
 1355              		.cfi_offset 6, -24
 1356              		.cfi_offset 7, -20
 1357              		.cfi_offset 8, -16
 1358              		.cfi_offset 9, -12
 1359              		.cfi_offset 10, -8
 1360              		.cfi_offset 14, -4
 1361 0004 8146     		mov	r9, r0
 1362 0006 0E46     		mov	r6, r1
 1363 0008 9046     		mov	r8, r2
 1364 000a 1F46     		mov	r7, r3
 1365 000c 099C     		ldr	r4, [sp, #36]
 609:src-gen/Main/core/reactor_common.c ****     event_t* dummy = first_dummy;
 1366              		.loc 1 609 5 is_stmt 1 view .LVU314
ARM GAS  /var/folders/2h/lww79zv53b510qlyvytqnvq40000gn/T//ccDbZlJP.s 			page 41


 609:src-gen/Main/core/reactor_common.c ****     event_t* dummy = first_dummy;
 1367              		.loc 1 609 28 is_stmt 0 view .LVU315
 1368 000e FFF7FEFF 		bl	_lf_get_new_event
 1369              	.LVL124:
 609:src-gen/Main/core/reactor_common.c ****     event_t* dummy = first_dummy;
 1370              		.loc 1 609 28 view .LVU316
 1371 0012 8246     		mov	r10, r0
 1372              	.LVL125:
 610:src-gen/Main/core/reactor_common.c ****     dummy->time = time;
 1373              		.loc 1 610 5 is_stmt 1 view .LVU317
 611:src-gen/Main/core/reactor_common.c ****     dummy->is_dummy = true;
 1374              		.loc 1 611 5 view .LVU318
 611:src-gen/Main/core/reactor_common.c ****     dummy->is_dummy = true;
 1375              		.loc 1 611 17 is_stmt 0 view .LVU319
 1376 0014 C0F80080 		str	r8, [r0]
 1377 0018 4760     		str	r7, [r0, #4]
 612:src-gen/Main/core/reactor_common.c ****     dummy->trigger = trigger;
 1378              		.loc 1 612 5 is_stmt 1 view .LVU320
 612:src-gen/Main/core/reactor_common.c ****     dummy->trigger = trigger;
 1379              		.loc 1 612 21 is_stmt 0 view .LVU321
 1380 001a 0123     		movs	r3, #1
 1381 001c 0375     		strb	r3, [r0, #20]
 613:src-gen/Main/core/reactor_common.c ****     while (offset > 0) {
 1382              		.loc 1 613 5 is_stmt 1 view .LVU322
 613:src-gen/Main/core/reactor_common.c ****     while (offset > 0) {
 1383              		.loc 1 613 20 is_stmt 0 view .LVU323
 1384 001e 8660     		str	r6, [r0, #8]
 614:src-gen/Main/core/reactor_common.c ****         if (offset == 1) {
 1385              		.loc 1 614 5 is_stmt 1 view .LVU324
 610:src-gen/Main/core/reactor_common.c ****     dummy->time = time;
 1386              		.loc 1 610 14 is_stmt 0 view .LVU325
 1387 0020 0546     		mov	r5, r0
 614:src-gen/Main/core/reactor_common.c ****         if (offset == 1) {
 1388              		.loc 1 614 11 view .LVU326
 1389 0022 0BE0     		b	.L124
 1390              	.LVL126:
 1391              	.L125:
 619:src-gen/Main/core/reactor_common.c ****         dummy = dummy->next;
 1392              		.loc 1 619 9 is_stmt 1 view .LVU327
 619:src-gen/Main/core/reactor_common.c ****         dummy = dummy->next;
 1393              		.loc 1 619 23 is_stmt 0 view .LVU328
 1394 0024 4846     		mov	r0, r9
 1395              	.LVL127:
 619:src-gen/Main/core/reactor_common.c ****         dummy = dummy->next;
 1396              		.loc 1 619 23 view .LVU329
 1397 0026 FFF7FEFF 		bl	_lf_get_new_event
 1398              	.LVL128:
 619:src-gen/Main/core/reactor_common.c ****         dummy = dummy->next;
 1399              		.loc 1 619 21 view .LVU330
 1400 002a A861     		str	r0, [r5, #24]
 620:src-gen/Main/core/reactor_common.c ****         dummy->time = time;
 1401              		.loc 1 620 9 is_stmt 1 view .LVU331
 1402              	.LVL129:
 621:src-gen/Main/core/reactor_common.c ****         dummy->is_dummy = true;
 1403              		.loc 1 621 9 view .LVU332
 621:src-gen/Main/core/reactor_common.c ****         dummy->is_dummy = true;
 1404              		.loc 1 621 21 is_stmt 0 view .LVU333
ARM GAS  /var/folders/2h/lww79zv53b510qlyvytqnvq40000gn/T//ccDbZlJP.s 			page 42


 1405 002c C0F80080 		str	r8, [r0]
 1406 0030 4760     		str	r7, [r0, #4]
 622:src-gen/Main/core/reactor_common.c ****         dummy->trigger = trigger;
 1407              		.loc 1 622 9 is_stmt 1 view .LVU334
 622:src-gen/Main/core/reactor_common.c ****         dummy->trigger = trigger;
 1408              		.loc 1 622 25 is_stmt 0 view .LVU335
 1409 0032 0123     		movs	r3, #1
 1410 0034 0375     		strb	r3, [r0, #20]
 623:src-gen/Main/core/reactor_common.c ****         offset--;
 1411              		.loc 1 623 9 is_stmt 1 view .LVU336
 623:src-gen/Main/core/reactor_common.c ****         offset--;
 1412              		.loc 1 623 24 is_stmt 0 view .LVU337
 1413 0036 8660     		str	r6, [r0, #8]
 624:src-gen/Main/core/reactor_common.c ****     }
 1414              		.loc 1 624 9 is_stmt 1 view .LVU338
 624:src-gen/Main/core/reactor_common.c ****     }
 1415              		.loc 1 624 15 is_stmt 0 view .LVU339
 1416 0038 013C     		subs	r4, r4, #1
 1417              	.LVL130:
 620:src-gen/Main/core/reactor_common.c ****         dummy->time = time;
 1418              		.loc 1 620 15 view .LVU340
 1419 003a 0546     		mov	r5, r0
 1420              	.LVL131:
 1421              	.L124:
 614:src-gen/Main/core/reactor_common.c ****         if (offset == 1) {
 1422              		.loc 1 614 19 is_stmt 1 view .LVU341
 1423 003c 1CB1     		cbz	r4, .L123
 615:src-gen/Main/core/reactor_common.c ****             dummy->next = next;
 1424              		.loc 1 615 9 view .LVU342
 615:src-gen/Main/core/reactor_common.c ****             dummy->next = next;
 1425              		.loc 1 615 12 is_stmt 0 view .LVU343
 1426 003e 012C     		cmp	r4, #1
 1427 0040 F0D1     		bne	.L125
 616:src-gen/Main/core/reactor_common.c ****             break;
 1428              		.loc 1 616 13 is_stmt 1 view .LVU344
 616:src-gen/Main/core/reactor_common.c ****             break;
 1429              		.loc 1 616 25 is_stmt 0 view .LVU345
 1430 0042 089B     		ldr	r3, [sp, #32]
 1431 0044 AB61     		str	r3, [r5, #24]
 617:src-gen/Main/core/reactor_common.c ****         }
 1432              		.loc 1 617 13 is_stmt 1 view .LVU346
 1433              	.L123:
 627:src-gen/Main/core/reactor_common.c **** 
 1434              		.loc 1 627 1 is_stmt 0 view .LVU347
 1435 0046 5046     		mov	r0, r10
 1436              	.LVL132:
 627:src-gen/Main/core/reactor_common.c **** 
 1437              		.loc 1 627 1 view .LVU348
 1438 0048 BDE8F087 		pop	{r4, r5, r6, r7, r8, r9, r10, pc}
 627:src-gen/Main/core/reactor_common.c **** 
 1439              		.loc 1 627 1 view .LVU349
 1440              		.cfi_endproc
 1441              	.LFE150:
 1443              		.section	.rodata._lf_schedule_at_tag.str1.4,"aMS",%progbits,1
 1444              		.align	2
 1445              	.LC3:
 1446 0000 5F6C665F 		.ascii	"_lf_schedule_at_tag(): requested to schedule an eve"
ARM GAS  /var/folders/2h/lww79zv53b510qlyvytqnvq40000gn/T//ccDbZlJP.s 			page 43


 1446      73636865 
 1446      64756C65 
 1446      5F61745F 
 1446      74616728 
 1447 0033 6E742069 		.ascii	"nt in the past.\000"
 1447      6E207468 
 1447      65207061 
 1447      73742E00 
 1448 0043 00       		.align	2
 1449              	.LC4:
 1450 0044 5F6C665F 		.ascii	"_lf_schedule_at_tag: event time is past the timeout"
 1450      73636865 
 1450      64756C65 
 1450      5F61745F 
 1450      7461673A 
 1451 0077 2E204469 		.ascii	". Discarding event.\000"
 1451      73636172 
 1451      64696E67 
 1451      20657665 
 1451      6E742E00 
 1452 008b 00       		.align	2
 1453              	.LC5:
 1454 008c 5F6C665F 		.ascii	"_lf_schedule_at_tag: in-order contract violated.\000"
 1454      73636865 
 1454      64756C65 
 1454      5F61745F 
 1454      7461673A 
 1455              		.section	.text._lf_schedule_at_tag,"ax",%progbits
 1456              		.align	1
 1457              		.global	_lf_schedule_at_tag
 1458              		.syntax unified
 1459              		.thumb
 1460              		.thumb_func
 1462              	_lf_schedule_at_tag:
 1463              	.LVL133:
 1464              	.LFB152:
 643:src-gen/Main/core/reactor_common.c **** 
 644:src-gen/Main/core/reactor_common.c **** /**
 645:src-gen/Main/core/reactor_common.c ****  * Schedule events at a specific tag (time, microstep), provided
 646:src-gen/Main/core/reactor_common.c ****  * that the tag is in the future relative to the current tag.
 647:src-gen/Main/core/reactor_common.c ****  * The input time values are absolute.
 648:src-gen/Main/core/reactor_common.c ****  *
 649:src-gen/Main/core/reactor_common.c ****  * If there is an event found at the requested tag, the payload
 650:src-gen/Main/core/reactor_common.c ****  * is replaced and 0 is returned.
 651:src-gen/Main/core/reactor_common.c ****  *
 652:src-gen/Main/core/reactor_common.c ****  * Note that this function is an internal API that must
 653:src-gen/Main/core/reactor_common.c ****  * be called with tags that are in order for a given
 654:src-gen/Main/core/reactor_common.c ****  * trigger. This means that the following order is illegal:
 655:src-gen/Main/core/reactor_common.c ****  * _lf_schedule_at_tag(trigger1, bigger_tag, ...);
 656:src-gen/Main/core/reactor_common.c ****  * _lf_schedule_at_tag(trigger1, smaller_tag, ...);
 657:src-gen/Main/core/reactor_common.c ****  * where bigger_tag > smaller_tag. This function is primarily
 658:src-gen/Main/core/reactor_common.c ****  * used for network communication (which is assumed to be
 659:src-gen/Main/core/reactor_common.c ****  * in order).
 660:src-gen/Main/core/reactor_common.c ****  *
 661:src-gen/Main/core/reactor_common.c ****  * This function assumes the caller holds the mutex lock.
 662:src-gen/Main/core/reactor_common.c ****  *
 663:src-gen/Main/core/reactor_common.c ****  * @param env Environment in which we are executing.
ARM GAS  /var/folders/2h/lww79zv53b510qlyvytqnvq40000gn/T//ccDbZlJP.s 			page 44


 664:src-gen/Main/core/reactor_common.c ****  * @param trigger The trigger to be invoked at a later logical time.
 665:src-gen/Main/core/reactor_common.c ****  * @param tag Logical tag of the event
 666:src-gen/Main/core/reactor_common.c ****  * @param token The token wrapping the payload or NULL for no payload.
 667:src-gen/Main/core/reactor_common.c ****  *
 668:src-gen/Main/core/reactor_common.c ****  * @return 1 for success, 0 if no new event was scheduled (instead, the payload was updated),
 669:src-gen/Main/core/reactor_common.c ****  *  or -1 for error (the tag is equal to or less than the current tag).
 670:src-gen/Main/core/reactor_common.c ****  */
 671:src-gen/Main/core/reactor_common.c **** int _lf_schedule_at_tag(environment_t* env, trigger_t* trigger, tag_t tag, lf_token_t* token) {
 1465              		.loc 1 671 95 is_stmt 1 view -0
 1466              		.cfi_startproc
 1467              		@ args = 20, pretend = 8, frame = 48
 1468              		@ frame_needed = 0, uses_anonymous_args = 0
 1469              		.loc 1 671 95 is_stmt 0 view .LVU351
 1470 0000 82B0     		sub	sp, sp, #8
 1471              	.LCFI29:
 1472              		.cfi_def_cfa_offset 8
 1473 0002 2DE9F047 		push	{r4, r5, r6, r7, r8, r9, r10, lr}
 1474              	.LCFI30:
 1475              		.cfi_def_cfa_offset 40
 1476              		.cfi_offset 4, -40
 1477              		.cfi_offset 5, -36
 1478              		.cfi_offset 6, -32
 1479              		.cfi_offset 7, -28
 1480              		.cfi_offset 8, -24
 1481              		.cfi_offset 9, -20
 1482              		.cfi_offset 10, -16
 1483              		.cfi_offset 14, -12
 1484 0006 90B0     		sub	sp, sp, #64
 1485              	.LCFI31:
 1486              		.cfi_def_cfa_offset 104
 1487 0008 8846     		mov	r8, r1
 1488 000a 18A9     		add	r1, sp, #96
 1489              	.LVL134:
 1490              		.loc 1 671 95 view .LVU352
 1491 000c 81E80C00 		stm	r1, {r2, r3}
 1492 0010 1C9F     		ldr	r7, [sp, #112]
 672:src-gen/Main/core/reactor_common.c ****     assert(env != GLOBAL_ENVIRONMENT);
 1493              		.loc 1 672 5 is_stmt 1 view .LVU353
 1494 0012 0028     		cmp	r0, #0
 1495 0014 59D0     		beq	.L165
 1496 0016 0646     		mov	r6, r0
 673:src-gen/Main/core/reactor_common.c ****     tag_t current_logical_tag = env->current_tag;
 1497              		.loc 1 673 5 view .LVU354
 1498              		.loc 1 673 11 is_stmt 0 view .LVU355
 1499 0018 0DF1100C 		add	ip, sp, #16
 1500 001c 00F10803 		add	r3, r0, #8
 1501 0020 0FCB     		ldm	r3, {r0, r1, r2, r3}
 1502              	.LVL135:
 1503              		.loc 1 673 11 view .LVU356
 1504 0022 8CE80F00 		stm	ip, {r0, r1, r2, r3}
 674:src-gen/Main/core/reactor_common.c **** 
 675:src-gen/Main/core/reactor_common.c ****     LF_PRINT_DEBUG("_lf_schedule_at_tag() called with tag " PRINTF_TAG " at tag " PRINTF_TAG ".",
 1505              		.loc 1 675 5 is_stmt 1 view .LVU357
 1506              		.loc 1 675 5 view .LVU358
 1507              		.loc 1 675 5 view .LVU359
 676:src-gen/Main/core/reactor_common.c ****                   tag.time - start_time, tag.microstep,
 677:src-gen/Main/core/reactor_common.c ****                   current_logical_tag.time - start_time, current_logical_tag.microstep);
ARM GAS  /var/folders/2h/lww79zv53b510qlyvytqnvq40000gn/T//ccDbZlJP.s 			page 45


 678:src-gen/Main/core/reactor_common.c ****     if (lf_tag_compare(tag, current_logical_tag) <= 0) {
 1508              		.loc 1 678 5 view .LVU360
 1509              		.loc 1 678 9 is_stmt 0 view .LVU361
 1510 0026 8DE80F00 		stm	sp, {r0, r1, r2, r3}
 1511 002a 18AB     		add	r3, sp, #96
 1512 002c 0FCB     		ldm	r3, {r0, r1, r2, r3}
 1513 002e FFF7FEFF 		bl	lf_tag_compare
 1514              	.LVL136:
 1515              		.loc 1 678 8 view .LVU362
 1516 0032 0028     		cmp	r0, #0
 1517 0034 50DD     		ble	.L166
 679:src-gen/Main/core/reactor_common.c ****         lf_print_warning("_lf_schedule_at_tag(): requested to schedule an event in the past.");
 680:src-gen/Main/core/reactor_common.c ****         return -1;
 681:src-gen/Main/core/reactor_common.c ****     }
 682:src-gen/Main/core/reactor_common.c **** 
 683:src-gen/Main/core/reactor_common.c ****     // Increment the reference count of the token.
 684:src-gen/Main/core/reactor_common.c ****     if (token != NULL) {
 1518              		.loc 1 684 5 is_stmt 1 view .LVU363
 1519              		.loc 1 684 8 is_stmt 0 view .LVU364
 1520 0036 17B1     		cbz	r7, .L133
 685:src-gen/Main/core/reactor_common.c ****         token->ref_count++;
 1521              		.loc 1 685 9 is_stmt 1 view .LVU365
 1522              		.loc 1 685 14 is_stmt 0 view .LVU366
 1523 0038 FB68     		ldr	r3, [r7, #12]
 1524              		.loc 1 685 25 view .LVU367
 1525 003a 0133     		adds	r3, r3, #1
 1526 003c FB60     		str	r3, [r7, #12]
 686:src-gen/Main/core/reactor_common.c ****         LF_PRINT_DEBUG("_lf_schedule_at_tag: Incremented ref_count of %p to %zu.",
 1527              		.loc 1 686 9 is_stmt 1 view .LVU368
 1528              		.loc 1 686 9 view .LVU369
 1529              	.L133:
 1530              		.loc 1 686 9 discriminator 3 view .LVU370
 687:src-gen/Main/core/reactor_common.c ****                 token, token->ref_count);
 688:src-gen/Main/core/reactor_common.c ****     }
 689:src-gen/Main/core/reactor_common.c **** 
 690:src-gen/Main/core/reactor_common.c ****     // Do not schedule events if the tag is after the stop tag
 691:src-gen/Main/core/reactor_common.c ****     if (_lf_is_tag_after_stop_tag(env, tag)) {
 1531              		.loc 1 691 5 discriminator 3 view .LVU371
 1532              		.loc 1 691 9 is_stmt 0 discriminator 3 view .LVU372
 1533 003e 1AAB     		add	r3, sp, #104
 1534 0040 93E80300 		ldm	r3, {r0, r1}
 1535 0044 8DE80300 		stm	sp, {r0, r1}
 1536 0048 18AB     		add	r3, sp, #96
 1537 004a 0CCB     		ldm	r3, {r2, r3}
 1538 004c 3046     		mov	r0, r6
 1539 004e FFF7FEFF 		bl	_lf_is_tag_after_stop_tag
 1540              	.LVL137:
 1541              		.loc 1 691 8 discriminator 3 view .LVU373
 1542 0052 0028     		cmp	r0, #0
 1543 0054 46D1     		bne	.L167
 692:src-gen/Main/core/reactor_common.c ****          lf_print_warning("_lf_schedule_at_tag: event time is past the timeout. Discarding event.")
 693:src-gen/Main/core/reactor_common.c ****         _lf_done_using(token);
 694:src-gen/Main/core/reactor_common.c ****         return -1;
 695:src-gen/Main/core/reactor_common.c ****     }
 696:src-gen/Main/core/reactor_common.c **** 
 697:src-gen/Main/core/reactor_common.c ****     event_t* e = _lf_get_new_event(env);
 1544              		.loc 1 697 5 is_stmt 1 view .LVU374
ARM GAS  /var/folders/2h/lww79zv53b510qlyvytqnvq40000gn/T//ccDbZlJP.s 			page 46


 1545              		.loc 1 697 18 is_stmt 0 view .LVU375
 1546 0056 3046     		mov	r0, r6
 1547 0058 FFF7FEFF 		bl	_lf_get_new_event
 1548              	.LVL138:
 1549 005c 0446     		mov	r4, r0
 1550              	.LVL139:
 698:src-gen/Main/core/reactor_common.c ****     // Set the event time
 699:src-gen/Main/core/reactor_common.c ****     e->time = tag.time;
 1551              		.loc 1 699 5 is_stmt 1 view .LVU376
 1552              		.loc 1 699 18 is_stmt 0 view .LVU377
 1553 005e DDF860A0 		ldr	r10, [sp, #96]
 1554 0062 DDF86490 		ldr	r9, [sp, #100]
 1555              		.loc 1 699 13 view .LVU378
 1556 0066 C0F800A0 		str	r10, [r0]
 1557 006a C0F80490 		str	r9, [r0, #4]
 700:src-gen/Main/core/reactor_common.c **** 
 701:src-gen/Main/core/reactor_common.c ****     tracepoint_schedule(env->trace, trigger, tag.time - current_logical_tag.time);
 1558              		.loc 1 701 82 is_stmt 1 view .LVU379
 702:src-gen/Main/core/reactor_common.c **** 
 703:src-gen/Main/core/reactor_common.c ****     // Make sure the event points to this trigger so when it is
 704:src-gen/Main/core/reactor_common.c ****     // dequeued, it will trigger this trigger.
 705:src-gen/Main/core/reactor_common.c ****     e->trigger = trigger;
 1559              		.loc 1 705 5 view .LVU380
 1560              		.loc 1 705 16 is_stmt 0 view .LVU381
 1561 006e C0F80880 		str	r8, [r0, #8]
 706:src-gen/Main/core/reactor_common.c **** 
 707:src-gen/Main/core/reactor_common.c ****     // Set the payload.
 708:src-gen/Main/core/reactor_common.c ****     e->token = token;
 1562              		.loc 1 708 5 is_stmt 1 view .LVU382
 1563              		.loc 1 708 14 is_stmt 0 view .LVU383
 1564 0072 0761     		str	r7, [r0, #16]
 709:src-gen/Main/core/reactor_common.c **** 
 710:src-gen/Main/core/reactor_common.c **** #ifdef FEDERATED_DECENTRALIZED
 711:src-gen/Main/core/reactor_common.c ****     // Set the intended tag
 712:src-gen/Main/core/reactor_common.c ****     e->intended_tag = trigger->intended_tag;
 713:src-gen/Main/core/reactor_common.c **** #endif
 714:src-gen/Main/core/reactor_common.c **** 
 715:src-gen/Main/core/reactor_common.c ****     event_t* found = (event_t *)pqueue_find_equal_same_priority(env->event_q, e);
 1565              		.loc 1 715 5 is_stmt 1 view .LVU384
 1566              		.loc 1 715 33 is_stmt 0 view .LVU385
 1567 0074 0146     		mov	r1, r0
 1568 0076 B06A     		ldr	r0, [r6, #40]
 1569              	.LVL140:
 1570              		.loc 1 715 33 view .LVU386
 1571 0078 FFF7FEFF 		bl	pqueue_find_equal_same_priority
 1572              	.LVL141:
 716:src-gen/Main/core/reactor_common.c ****     if (found != NULL) {
 1573              		.loc 1 716 5 is_stmt 1 view .LVU387
 1574              		.loc 1 716 8 is_stmt 0 view .LVU388
 1575 007c 0546     		mov	r5, r0
 1576 007e 0028     		cmp	r0, #0
 1577 0080 00F0C380 		beq	.L135
 717:src-gen/Main/core/reactor_common.c ****         if (tag.microstep == 0u) {
 1578              		.loc 1 717 9 is_stmt 1 view .LVU389
 1579              		.loc 1 717 16 is_stmt 0 view .LVU390
 1580 0084 1A99     		ldr	r1, [sp, #104]
 1581              		.loc 1 717 12 view .LVU391
ARM GAS  /var/folders/2h/lww79zv53b510qlyvytqnvq40000gn/T//ccDbZlJP.s 			page 47


 1582 0086 0029     		cmp	r1, #0
 1583 0088 5AD1     		bne	.L136
 718:src-gen/Main/core/reactor_common.c ****                 // The microstep is 0, which means that the event is being scheduled
 719:src-gen/Main/core/reactor_common.c ****                 // at a future time and at the beginning of the skip list of events
 720:src-gen/Main/core/reactor_common.c ****                 // at that time.
 721:src-gen/Main/core/reactor_common.c ****                 // In case the event is a dummy event
 722:src-gen/Main/core/reactor_common.c ****                 // convert it to a real event.
 723:src-gen/Main/core/reactor_common.c ****                 found->is_dummy = false;
 1584              		.loc 1 723 17 is_stmt 1 view .LVU392
 1585              		.loc 1 723 33 is_stmt 0 view .LVU393
 1586 008a 0023     		movs	r3, #0
 1587 008c 0375     		strb	r3, [r0, #20]
 724:src-gen/Main/core/reactor_common.c ****                 switch (trigger->policy) {
 1588              		.loc 1 724 17 is_stmt 1 view .LVU394
 1589              		.loc 1 724 32 is_stmt 0 view .LVU395
 1590 008e 98F83830 		ldrb	r3, [r8, #56]	@ zero_extendqisi2
 1591              		.loc 1 724 17 view .LVU396
 1592 0092 012B     		cmp	r3, #1
 1593 0094 33D0     		beq	.L137
 1594 0096 022B     		cmp	r3, #2
 1595 0098 3DD0     		beq	.L138
 725:src-gen/Main/core/reactor_common.c ****                     case drop:
 726:src-gen/Main/core/reactor_common.c ****                         if (found->token != token) {
 727:src-gen/Main/core/reactor_common.c ****                             _lf_done_using(token);
 728:src-gen/Main/core/reactor_common.c ****                         }
 729:src-gen/Main/core/reactor_common.c ****                         _lf_recycle_event(env, e);
 730:src-gen/Main/core/reactor_common.c ****                         return(0);
 731:src-gen/Main/core/reactor_common.c ****                         break;
 732:src-gen/Main/core/reactor_common.c ****                     case replace:
 733:src-gen/Main/core/reactor_common.c ****                         // Replace the payload of the event at the head with our
 734:src-gen/Main/core/reactor_common.c ****                         // current payload.
 735:src-gen/Main/core/reactor_common.c ****                         _lf_replace_token(found, token);
 736:src-gen/Main/core/reactor_common.c ****                         _lf_recycle_event(env, e);
 737:src-gen/Main/core/reactor_common.c ****                         return 0;
 738:src-gen/Main/core/reactor_common.c ****                         break;
 1596              		.loc 1 738 25 is_stmt 1 view .LVU397
 739:src-gen/Main/core/reactor_common.c ****                     default:
 740:src-gen/Main/core/reactor_common.c ****                         // Adding a microstep to the original
 741:src-gen/Main/core/reactor_common.c ****                         // intended tag.
 742:src-gen/Main/core/reactor_common.c ****                         if (_lf_is_tag_after_stop_tag(env, (tag_t) {.time=found->time,.microstep=1}
 1597              		.loc 1 742 25 view .LVU398
 1598              	.LBB18:
 1599              		.loc 1 742 80 is_stmt 0 view .LVU399
 1600 009a D0E90023 		ldrd	r2, [r0]
 1601              		.loc 1 742 68 view .LVU400
 1602 009e CDE90823 		strd	r2, [sp, #32]
 1603 00a2 0123     		movs	r3, #1
 1604 00a4 0A93     		str	r3, [sp, #40]
 1605              		.loc 1 742 29 view .LVU401
 1606 00a6 0AAB     		add	r3, sp, #40
 1607 00a8 93E80300 		ldm	r3, {r0, r1}
 1608              	.LVL142:
 1609              		.loc 1 742 29 view .LVU402
 1610 00ac 8DE80300 		stm	sp, {r0, r1}
 1611 00b0 08AB     		add	r3, sp, #32
 1612 00b2 0CCB     		ldm	r3, {r2, r3}
 1613 00b4 3046     		mov	r0, r6
ARM GAS  /var/folders/2h/lww79zv53b510qlyvytqnvq40000gn/T//ccDbZlJP.s 			page 48


 1614 00b6 FFF7FEFF 		bl	_lf_is_tag_after_stop_tag
 1615              	.LVL143:
 1616              		.loc 1 742 28 view .LVU403
 1617 00ba 0028     		cmp	r0, #0
 1618 00bc 34D1     		bne	.L168
 1619              	.LBE18:
 743:src-gen/Main/core/reactor_common.c ****                             // Scheduling e will incur a microstep after the stop tag,
 744:src-gen/Main/core/reactor_common.c ****                             // which is illegal.
 745:src-gen/Main/core/reactor_common.c ****                             _lf_recycle_event(env, e);
 746:src-gen/Main/core/reactor_common.c ****                             return 0;
 747:src-gen/Main/core/reactor_common.c ****                         }
 748:src-gen/Main/core/reactor_common.c ****                         if (found->next != NULL) {
 1620              		.loc 1 748 25 is_stmt 1 view .LVU404
 1621              		.loc 1 748 34 is_stmt 0 view .LVU405
 1622 00be AB69     		ldr	r3, [r5, #24]
 1623              		.loc 1 748 28 view .LVU406
 1624 00c0 002B     		cmp	r3, #0
 1625 00c2 37D1     		bne	.L169
 749:src-gen/Main/core/reactor_common.c ****                             lf_print_error("_lf_schedule_at_tag: in-order contract violated.");
 750:src-gen/Main/core/reactor_common.c ****                             return -1;
 751:src-gen/Main/core/reactor_common.c ****                         }
 752:src-gen/Main/core/reactor_common.c ****                         found->next = e;
 1626              		.loc 1 752 25 is_stmt 1 view .LVU407
 1627              		.loc 1 752 37 is_stmt 0 view .LVU408
 1628 00c4 AC61     		str	r4, [r5, #24]
 753:src-gen/Main/core/reactor_common.c ****                 }
 754:src-gen/Main/core/reactor_common.c ****         } else {
 755:src-gen/Main/core/reactor_common.c ****             // We are requesting a microstep greater than 0
 756:src-gen/Main/core/reactor_common.c ****             // where there is already an event for this trigger on the event queue.
 757:src-gen/Main/core/reactor_common.c ****             // That event may itself be a dummy event for a real event that is
 758:src-gen/Main/core/reactor_common.c ****             // also at a microstep greater than 0.
 759:src-gen/Main/core/reactor_common.c ****             // We have to insert our event into the chain or append it
 760:src-gen/Main/core/reactor_common.c ****             // to the end of the chain, depending on which microstep is lesser.
 761:src-gen/Main/core/reactor_common.c ****             microstep_t microstep_of_found = 0;
 762:src-gen/Main/core/reactor_common.c ****             if (tag.time == current_logical_tag.time) {
 763:src-gen/Main/core/reactor_common.c ****                 // This is a situation where the head of the queue
 764:src-gen/Main/core/reactor_common.c ****                 // is an event with microstep == current_microstep + 1
 765:src-gen/Main/core/reactor_common.c ****                 // which should be reflected in our steps calculation.
 766:src-gen/Main/core/reactor_common.c ****                 microstep_of_found += current_logical_tag.microstep + 1; // Indicating that
 767:src-gen/Main/core/reactor_common.c ****                                                             // the found event
 768:src-gen/Main/core/reactor_common.c ****                                                             // is at this microstep.
 769:src-gen/Main/core/reactor_common.c ****             }
 770:src-gen/Main/core/reactor_common.c ****             // Follow the chain of events until the right point
 771:src-gen/Main/core/reactor_common.c ****             // to insert the new event.
 772:src-gen/Main/core/reactor_common.c ****             while (microstep_of_found < tag.microstep - 1) {
 773:src-gen/Main/core/reactor_common.c ****                 if (found->next == NULL) {
 774:src-gen/Main/core/reactor_common.c ****                     // The chain stops short of where we want to be.
 775:src-gen/Main/core/reactor_common.c ****                     // If it exactly one microstep short of where we want to be,
 776:src-gen/Main/core/reactor_common.c ****                     // then we don't need a dummy. Otherwise, we do.
 777:src-gen/Main/core/reactor_common.c ****                     microstep_t undershot_by = (tag.microstep - 1) - microstep_of_found;
 778:src-gen/Main/core/reactor_common.c ****                     if (undershot_by > 0) {
 779:src-gen/Main/core/reactor_common.c ****                         found->next = _lf_create_dummy_events(env, trigger, tag.time, e, undershot_
 780:src-gen/Main/core/reactor_common.c ****                     } else {
 781:src-gen/Main/core/reactor_common.c ****                         found->next = e;
 782:src-gen/Main/core/reactor_common.c ****                     }
 783:src-gen/Main/core/reactor_common.c ****                     return 1;
 784:src-gen/Main/core/reactor_common.c ****                 }
ARM GAS  /var/folders/2h/lww79zv53b510qlyvytqnvq40000gn/T//ccDbZlJP.s 			page 49


 785:src-gen/Main/core/reactor_common.c ****                 found = found->next;
 786:src-gen/Main/core/reactor_common.c ****                 microstep_of_found++;
 787:src-gen/Main/core/reactor_common.c ****             }
 788:src-gen/Main/core/reactor_common.c ****             // At this point, microstep_of_found == tag.microstep - 1.
 789:src-gen/Main/core/reactor_common.c ****             if (found->next == NULL) {
 790:src-gen/Main/core/reactor_common.c ****                 found->next = e;
 791:src-gen/Main/core/reactor_common.c ****             } else {
 792:src-gen/Main/core/reactor_common.c ****                 switch (trigger->policy) {
 793:src-gen/Main/core/reactor_common.c ****                     case drop:
 794:src-gen/Main/core/reactor_common.c ****                         if (found->next->token != token) {
 795:src-gen/Main/core/reactor_common.c ****                             _lf_done_using(token);
 796:src-gen/Main/core/reactor_common.c ****                         }
 797:src-gen/Main/core/reactor_common.c ****                         _lf_recycle_event(env, e);
 798:src-gen/Main/core/reactor_common.c ****                         return 0;
 799:src-gen/Main/core/reactor_common.c ****                         break;
 800:src-gen/Main/core/reactor_common.c ****                     case replace:
 801:src-gen/Main/core/reactor_common.c ****                         // Replace the payload of the event at the head with our
 802:src-gen/Main/core/reactor_common.c ****                         // current payload.
 803:src-gen/Main/core/reactor_common.c ****                         _lf_replace_token(found->next, token);
 804:src-gen/Main/core/reactor_common.c ****                         _lf_recycle_event(env, e);
 805:src-gen/Main/core/reactor_common.c ****                         return 0;
 806:src-gen/Main/core/reactor_common.c ****                         break;
 807:src-gen/Main/core/reactor_common.c ****                     default:
 808:src-gen/Main/core/reactor_common.c ****                         // Adding a microstep to the original
 809:src-gen/Main/core/reactor_common.c ****                         // intended tag.
 810:src-gen/Main/core/reactor_common.c ****                         if (_lf_is_tag_after_stop_tag(env, (tag_t){.time=found->time,.microstep=mic
 811:src-gen/Main/core/reactor_common.c ****                             // Scheduling e will incur a microstep at timeout,
 812:src-gen/Main/core/reactor_common.c ****                             // which is illegal.
 813:src-gen/Main/core/reactor_common.c ****                             _lf_recycle_event(env, e);
 814:src-gen/Main/core/reactor_common.c ****                             return 0;
 815:src-gen/Main/core/reactor_common.c ****                         }
 816:src-gen/Main/core/reactor_common.c ****                         if (found->next->next != NULL) {
 817:src-gen/Main/core/reactor_common.c ****                             lf_print_error("_lf_schedule_at_tag: in-order contract violated.");
 818:src-gen/Main/core/reactor_common.c ****                             return -1;
 819:src-gen/Main/core/reactor_common.c ****                         }
 820:src-gen/Main/core/reactor_common.c ****                         found->next->next = e;
 821:src-gen/Main/core/reactor_common.c ****                 }
 822:src-gen/Main/core/reactor_common.c ****             }
 823:src-gen/Main/core/reactor_common.c ****         }
 824:src-gen/Main/core/reactor_common.c ****     } else {
 825:src-gen/Main/core/reactor_common.c ****         // No existing event queued.
 826:src-gen/Main/core/reactor_common.c ****         microstep_t relative_microstep = tag.microstep;
 827:src-gen/Main/core/reactor_common.c ****         if (tag.time == current_logical_tag.time) {
 828:src-gen/Main/core/reactor_common.c ****             relative_microstep -= current_logical_tag.microstep;
 829:src-gen/Main/core/reactor_common.c ****         }
 830:src-gen/Main/core/reactor_common.c ****         if (((tag.time == current_logical_tag.time) && (relative_microstep == 1)) ||
 831:src-gen/Main/core/reactor_common.c ****                 tag.microstep == 0) {
 832:src-gen/Main/core/reactor_common.c ****             // Do not need a dummy event if we are scheduling at 1 microstep
 833:src-gen/Main/core/reactor_common.c ****             // in the future at current time or at microstep 0 in a future time.
 834:src-gen/Main/core/reactor_common.c ****             pqueue_insert(env->event_q, e);
 835:src-gen/Main/core/reactor_common.c ****         } else {
 836:src-gen/Main/core/reactor_common.c ****             // Create a dummy event. Insert it into the queue, and let its next
 837:src-gen/Main/core/reactor_common.c ****             // pointer point to the actual event.
 838:src-gen/Main/core/reactor_common.c ****             pqueue_insert(env->event_q, _lf_create_dummy_events(env, trigger, tag.time, e, relative
 839:src-gen/Main/core/reactor_common.c ****         }
 840:src-gen/Main/core/reactor_common.c ****     }
 841:src-gen/Main/core/reactor_common.c ****     return 1;
ARM GAS  /var/folders/2h/lww79zv53b510qlyvytqnvq40000gn/T//ccDbZlJP.s 			page 50


 1629              		.loc 1 841 12 view .LVU409
 1630 00c6 0120     		movs	r0, #1
 1631 00c8 14E0     		b	.L129
 1632              	.LVL144:
 1633              	.L165:
 672:src-gen/Main/core/reactor_common.c ****     tag_t current_logical_tag = env->current_tag;
 1634              		.loc 1 672 5 discriminator 1 view .LVU410
 1635 00ca 644B     		ldr	r3, .L179
 1636 00cc 644A     		ldr	r2, .L179+4
 1637 00ce 4FF42871 		mov	r1, #672
 1638 00d2 6448     		ldr	r0, .L179+8
 1639              	.LVL145:
 672:src-gen/Main/core/reactor_common.c ****     tag_t current_logical_tag = env->current_tag;
 1640              		.loc 1 672 5 discriminator 1 view .LVU411
 1641 00d4 FFF7FEFF 		bl	__assert_func
 1642              	.LVL146:
 1643              	.L166:
 679:src-gen/Main/core/reactor_common.c ****         return -1;
 1644              		.loc 1 679 9 is_stmt 1 view .LVU412
 1645 00d8 6348     		ldr	r0, .L179+12
 1646 00da FFF7FEFF 		bl	lf_print_warning
 1647              	.LVL147:
 680:src-gen/Main/core/reactor_common.c ****     }
 1648              		.loc 1 680 9 view .LVU413
 680:src-gen/Main/core/reactor_common.c ****     }
 1649              		.loc 1 680 16 is_stmt 0 view .LVU414
 1650 00de 4FF0FF30 		mov	r0, #-1
 1651 00e2 07E0     		b	.L129
 1652              	.L167:
 692:src-gen/Main/core/reactor_common.c ****         _lf_done_using(token);
 1653              		.loc 1 692 10 is_stmt 1 view .LVU415
 1654 00e4 6148     		ldr	r0, .L179+16
 1655 00e6 FFF7FEFF 		bl	lf_print_warning
 1656              	.LVL148:
 693:src-gen/Main/core/reactor_common.c ****         return -1;
 1657              		.loc 1 693 9 view .LVU416
 1658 00ea 3846     		mov	r0, r7
 1659 00ec FFF7FEFF 		bl	_lf_done_using
 1660              	.LVL149:
 694:src-gen/Main/core/reactor_common.c ****     }
 1661              		.loc 1 694 9 view .LVU417
 694:src-gen/Main/core/reactor_common.c ****     }
 1662              		.loc 1 694 16 is_stmt 0 view .LVU418
 1663 00f0 4FF0FF30 		mov	r0, #-1
 1664              	.L129:
 842:src-gen/Main/core/reactor_common.c **** }
 1665              		.loc 1 842 1 view .LVU419
 1666 00f4 10B0     		add	sp, sp, #64
 1667              	.LCFI32:
 1668              		.cfi_remember_state
 1669              		.cfi_def_cfa_offset 40
 1670              		@ sp needed
 1671 00f6 BDE8F047 		pop	{r4, r5, r6, r7, r8, r9, r10, lr}
 1672              	.LCFI33:
 1673              		.cfi_restore 14
 1674              		.cfi_restore 10
 1675              		.cfi_restore 9
ARM GAS  /var/folders/2h/lww79zv53b510qlyvytqnvq40000gn/T//ccDbZlJP.s 			page 51


 1676              		.cfi_restore 8
 1677              		.cfi_restore 7
 1678              		.cfi_restore 6
 1679              		.cfi_restore 5
 1680              		.cfi_restore 4
 1681              		.cfi_def_cfa_offset 8
 1682              	.LVL150:
 1683              		.loc 1 842 1 view .LVU420
 1684 00fa 02B0     		add	sp, sp, #8
 1685              	.LCFI34:
 1686              		.cfi_def_cfa_offset 0
 1687 00fc 7047     		bx	lr
 1688              	.LVL151:
 1689              	.L137:
 1690              	.LCFI35:
 1691              		.cfi_restore_state
 726:src-gen/Main/core/reactor_common.c ****                             _lf_done_using(token);
 1692              		.loc 1 726 25 is_stmt 1 view .LVU421
 726:src-gen/Main/core/reactor_common.c ****                             _lf_done_using(token);
 1693              		.loc 1 726 34 is_stmt 0 view .LVU422
 1694 00fe 0369     		ldr	r3, [r0, #16]
 726:src-gen/Main/core/reactor_common.c ****                             _lf_done_using(token);
 1695              		.loc 1 726 28 view .LVU423
 1696 0100 BB42     		cmp	r3, r7
 1697 0102 02D0     		beq	.L140
 727:src-gen/Main/core/reactor_common.c ****                         }
 1698              		.loc 1 727 29 is_stmt 1 view .LVU424
 1699 0104 3846     		mov	r0, r7
 1700              	.LVL152:
 727:src-gen/Main/core/reactor_common.c ****                         }
 1701              		.loc 1 727 29 is_stmt 0 view .LVU425
 1702 0106 FFF7FEFF 		bl	_lf_done_using
 1703              	.LVL153:
 1704              	.L140:
 729:src-gen/Main/core/reactor_common.c ****                         return(0);
 1705              		.loc 1 729 25 is_stmt 1 view .LVU426
 1706 010a 2146     		mov	r1, r4
 1707 010c 3046     		mov	r0, r6
 1708 010e FFF7FEFF 		bl	_lf_recycle_event
 1709              	.LVL154:
 730:src-gen/Main/core/reactor_common.c ****                         break;
 1710              		.loc 1 730 25 view .LVU427
 730:src-gen/Main/core/reactor_common.c ****                         break;
 1711              		.loc 1 730 31 is_stmt 0 view .LVU428
 1712 0112 0020     		movs	r0, #0
 1713 0114 EEE7     		b	.L129
 1714              	.LVL155:
 1715              	.L138:
 731:src-gen/Main/core/reactor_common.c ****                     case replace:
 1716              		.loc 1 731 25 is_stmt 1 view .LVU429
 735:src-gen/Main/core/reactor_common.c ****                         _lf_recycle_event(env, e);
 1717              		.loc 1 735 25 view .LVU430
 1718 0116 3946     		mov	r1, r7
 1719 0118 FFF7FEFF 		bl	_lf_replace_token
 1720              	.LVL156:
 736:src-gen/Main/core/reactor_common.c ****                         return 0;
 1721              		.loc 1 736 25 view .LVU431
ARM GAS  /var/folders/2h/lww79zv53b510qlyvytqnvq40000gn/T//ccDbZlJP.s 			page 52


 1722 011c 2146     		mov	r1, r4
 1723 011e 3046     		mov	r0, r6
 1724 0120 FFF7FEFF 		bl	_lf_recycle_event
 1725              	.LVL157:
 737:src-gen/Main/core/reactor_common.c ****                         break;
 1726              		.loc 1 737 25 view .LVU432
 737:src-gen/Main/core/reactor_common.c ****                         break;
 1727              		.loc 1 737 32 is_stmt 0 view .LVU433
 1728 0124 0020     		movs	r0, #0
 1729 0126 E5E7     		b	.L129
 1730              	.L168:
 1731              	.LBB19:
 745:src-gen/Main/core/reactor_common.c ****                             return 0;
 1732              		.loc 1 745 29 is_stmt 1 view .LVU434
 1733 0128 2146     		mov	r1, r4
 1734 012a 3046     		mov	r0, r6
 1735 012c FFF7FEFF 		bl	_lf_recycle_event
 1736              	.LVL158:
 746:src-gen/Main/core/reactor_common.c ****                         }
 1737              		.loc 1 746 29 view .LVU435
 746:src-gen/Main/core/reactor_common.c ****                         }
 1738              		.loc 1 746 36 is_stmt 0 view .LVU436
 1739 0130 0020     		movs	r0, #0
 1740 0132 DFE7     		b	.L129
 1741              	.L169:
 746:src-gen/Main/core/reactor_common.c ****                         }
 1742              		.loc 1 746 36 view .LVU437
 1743              	.LBE19:
 749:src-gen/Main/core/reactor_common.c ****                             return -1;
 1744              		.loc 1 749 29 is_stmt 1 view .LVU438
 1745 0134 4E48     		ldr	r0, .L179+20
 1746 0136 FFF7FEFF 		bl	lf_print_error
 1747              	.LVL159:
 750:src-gen/Main/core/reactor_common.c ****                         }
 1748              		.loc 1 750 29 view .LVU439
 750:src-gen/Main/core/reactor_common.c ****                         }
 1749              		.loc 1 750 36 is_stmt 0 view .LVU440
 1750 013a 4FF0FF30 		mov	r0, #-1
 1751 013e D9E7     		b	.L129
 1752              	.LVL160:
 1753              	.L136:
 1754              	.LBB20:
 761:src-gen/Main/core/reactor_common.c ****             if (tag.time == current_logical_tag.time) {
 1755              		.loc 1 761 13 is_stmt 1 view .LVU441
 762:src-gen/Main/core/reactor_common.c ****                 // This is a situation where the head of the queue
 1756              		.loc 1 762 13 view .LVU442
 762:src-gen/Main/core/reactor_common.c ****                 // This is a situation where the head of the queue
 1757              		.loc 1 762 16 is_stmt 0 view .LVU443
 1758 0140 049A     		ldr	r2, [sp, #16]
 1759 0142 059B     		ldr	r3, [sp, #20]
 1760 0144 9945     		cmp	r9, r3
 1761 0146 08BF     		it	eq
 1762 0148 9245     		cmpeq	r10, r2
 1763 014a 08D0     		beq	.L170
 761:src-gen/Main/core/reactor_common.c ****             if (tag.time == current_logical_tag.time) {
 1764              		.loc 1 761 25 view .LVU444
 1765 014c 0023     		movs	r3, #0
ARM GAS  /var/folders/2h/lww79zv53b510qlyvytqnvq40000gn/T//ccDbZlJP.s 			page 53


 1766              	.LVL161:
 1767              	.L147:
 772:src-gen/Main/core/reactor_common.c ****                 if (found->next == NULL) {
 1768              		.loc 1 772 39 is_stmt 1 view .LVU445
 772:src-gen/Main/core/reactor_common.c ****                 if (found->next == NULL) {
 1769              		.loc 1 772 55 is_stmt 0 view .LVU446
 1770 014e 4A1E     		subs	r2, r1, #1
 772:src-gen/Main/core/reactor_common.c ****                 if (found->next == NULL) {
 1771              		.loc 1 772 39 view .LVU447
 1772 0150 9342     		cmp	r3, r2
 1773 0152 17D2     		bcs	.L171
 773:src-gen/Main/core/reactor_common.c ****                     // The chain stops short of where we want to be.
 1774              		.loc 1 773 17 is_stmt 1 view .LVU448
 773:src-gen/Main/core/reactor_common.c ****                     // The chain stops short of where we want to be.
 1775              		.loc 1 773 26 is_stmt 0 view .LVU449
 1776 0154 AA69     		ldr	r2, [r5, #24]
 773:src-gen/Main/core/reactor_common.c ****                     // The chain stops short of where we want to be.
 1777              		.loc 1 773 20 view .LVU450
 1778 0156 2AB1     		cbz	r2, .L172
 785:src-gen/Main/core/reactor_common.c ****                 microstep_of_found++;
 1779              		.loc 1 785 17 is_stmt 1 view .LVU451
 1780              	.LVL162:
 786:src-gen/Main/core/reactor_common.c ****             }
 1781              		.loc 1 786 17 view .LVU452
 786:src-gen/Main/core/reactor_common.c ****             }
 1782              		.loc 1 786 35 is_stmt 0 view .LVU453
 1783 0158 0133     		adds	r3, r3, #1
 1784              	.LVL163:
 785:src-gen/Main/core/reactor_common.c ****                 microstep_of_found++;
 1785              		.loc 1 785 23 view .LVU454
 1786 015a 1546     		mov	r5, r2
 1787 015c F7E7     		b	.L147
 1788              	.LVL164:
 1789              	.L170:
 766:src-gen/Main/core/reactor_common.c ****                                                             // the found event
 1790              		.loc 1 766 17 is_stmt 1 view .LVU455
 766:src-gen/Main/core/reactor_common.c ****                                                             // the found event
 1791              		.loc 1 766 58 is_stmt 0 view .LVU456
 1792 015e 069B     		ldr	r3, [sp, #24]
 766:src-gen/Main/core/reactor_common.c ****                                                             // the found event
 1793              		.loc 1 766 36 view .LVU457
 1794 0160 0133     		adds	r3, r3, #1
 1795              	.LVL165:
 766:src-gen/Main/core/reactor_common.c ****                                                             // the found event
 1796              		.loc 1 766 36 view .LVU458
 1797 0162 F4E7     		b	.L147
 1798              	.LVL166:
 1799              	.L172:
 1800              	.LBB21:
 777:src-gen/Main/core/reactor_common.c ****                     if (undershot_by > 0) {
 1801              		.loc 1 777 21 is_stmt 1 view .LVU459
 777:src-gen/Main/core/reactor_common.c ****                     if (undershot_by > 0) {
 1802              		.loc 1 777 68 is_stmt 0 view .LVU460
 1803 0164 C91A     		subs	r1, r1, r3
 1804              	.LVL167:
 778:src-gen/Main/core/reactor_common.c ****                         found->next = _lf_create_dummy_events(env, trigger, tag.time, e, undershot_
 1805              		.loc 1 778 21 is_stmt 1 view .LVU461
ARM GAS  /var/folders/2h/lww79zv53b510qlyvytqnvq40000gn/T//ccDbZlJP.s 			page 54


 778:src-gen/Main/core/reactor_common.c ****                         found->next = _lf_create_dummy_events(env, trigger, tag.time, e, undershot_
 1806              		.loc 1 778 24 is_stmt 0 view .LVU462
 1807 0166 0139     		subs	r1, r1, #1
 1808              	.LVL168:
 778:src-gen/Main/core/reactor_common.c ****                         found->next = _lf_create_dummy_events(env, trigger, tag.time, e, undershot_
 1809              		.loc 1 778 24 view .LVU463
 1810 0168 02D1     		bne	.L173
 781:src-gen/Main/core/reactor_common.c ****                     }
 1811              		.loc 1 781 25 is_stmt 1 view .LVU464
 781:src-gen/Main/core/reactor_common.c ****                     }
 1812              		.loc 1 781 37 is_stmt 0 view .LVU465
 1813 016a AC61     		str	r4, [r5, #24]
 1814              	.LVL169:
 1815              	.L146:
 783:src-gen/Main/core/reactor_common.c ****                 }
 1816              		.loc 1 783 21 is_stmt 1 view .LVU466
 783:src-gen/Main/core/reactor_common.c ****                 }
 1817              		.loc 1 783 28 is_stmt 0 view .LVU467
 1818 016c 0120     		movs	r0, #1
 1819 016e C1E7     		b	.L129
 1820              	.LVL170:
 1821              	.L173:
 779:src-gen/Main/core/reactor_common.c ****                     } else {
 1822              		.loc 1 779 25 is_stmt 1 view .LVU468
 779:src-gen/Main/core/reactor_common.c ****                     } else {
 1823              		.loc 1 779 39 is_stmt 0 view .LVU469
 1824 0170 0191     		str	r1, [sp, #4]
 1825 0172 0094     		str	r4, [sp]
 1826 0174 5246     		mov	r2, r10
 1827 0176 4B46     		mov	r3, r9
 1828              	.LVL171:
 779:src-gen/Main/core/reactor_common.c ****                     } else {
 1829              		.loc 1 779 39 view .LVU470
 1830 0178 4146     		mov	r1, r8
 1831              	.LVL172:
 779:src-gen/Main/core/reactor_common.c ****                     } else {
 1832              		.loc 1 779 39 view .LVU471
 1833 017a 3046     		mov	r0, r6
 1834 017c FFF7FEFF 		bl	_lf_create_dummy_events
 1835              	.LVL173:
 779:src-gen/Main/core/reactor_common.c ****                     } else {
 1836              		.loc 1 779 37 view .LVU472
 1837 0180 A861     		str	r0, [r5, #24]
 1838 0182 F3E7     		b	.L146
 1839              	.LVL174:
 1840              	.L171:
 779:src-gen/Main/core/reactor_common.c ****                     } else {
 1841              		.loc 1 779 37 view .LVU473
 1842              	.LBE21:
 789:src-gen/Main/core/reactor_common.c ****                 found->next = e;
 1843              		.loc 1 789 13 is_stmt 1 view .LVU474
 789:src-gen/Main/core/reactor_common.c ****                 found->next = e;
 1844              		.loc 1 789 22 is_stmt 0 view .LVU475
 1845 0184 A869     		ldr	r0, [r5, #24]
 789:src-gen/Main/core/reactor_common.c ****                 found->next = e;
 1846              		.loc 1 789 16 view .LVU476
 1847 0186 E0B1     		cbz	r0, .L174
ARM GAS  /var/folders/2h/lww79zv53b510qlyvytqnvq40000gn/T//ccDbZlJP.s 			page 55


 792:src-gen/Main/core/reactor_common.c ****                     case drop:
 1848              		.loc 1 792 17 is_stmt 1 view .LVU477
 792:src-gen/Main/core/reactor_common.c ****                     case drop:
 1849              		.loc 1 792 32 is_stmt 0 view .LVU478
 1850 0188 98F83820 		ldrb	r2, [r8, #56]	@ zero_extendqisi2
 792:src-gen/Main/core/reactor_common.c ****                     case drop:
 1851              		.loc 1 792 17 view .LVU479
 1852 018c 012A     		cmp	r2, #1
 1853 018e 1BD0     		beq	.L150
 1854 0190 022A     		cmp	r2, #2
 1855 0192 25D0     		beq	.L151
 806:src-gen/Main/core/reactor_common.c ****                     default:
 1856              		.loc 1 806 25 is_stmt 1 view .LVU480
 810:src-gen/Main/core/reactor_common.c ****                             // Scheduling e will incur a microstep at timeout,
 1857              		.loc 1 810 25 view .LVU481
 1858              	.LBB22:
 810:src-gen/Main/core/reactor_common.c ****                             // Scheduling e will incur a microstep at timeout,
 1859              		.loc 1 810 79 is_stmt 0 view .LVU482
 1860 0194 D5E90001 		ldrd	r0, [r5]
 810:src-gen/Main/core/reactor_common.c ****                             // Scheduling e will incur a microstep at timeout,
 1861              		.loc 1 810 67 view .LVU483
 1862 0198 CDE90C01 		strd	r0, [sp, #48]
 810:src-gen/Main/core/reactor_common.c ****                             // Scheduling e will incur a microstep at timeout,
 1863              		.loc 1 810 115 view .LVU484
 1864 019c 0133     		adds	r3, r3, #1
 1865              	.LVL175:
 810:src-gen/Main/core/reactor_common.c ****                             // Scheduling e will incur a microstep at timeout,
 1866              		.loc 1 810 67 view .LVU485
 1867 019e 0E93     		str	r3, [sp, #56]
 810:src-gen/Main/core/reactor_common.c ****                             // Scheduling e will incur a microstep at timeout,
 1868              		.loc 1 810 29 view .LVU486
 1869 01a0 10AB     		add	r3, sp, #64
 1870              	.LVL176:
 810:src-gen/Main/core/reactor_common.c ****                             // Scheduling e will incur a microstep at timeout,
 1871              		.loc 1 810 29 view .LVU487
 1872 01a2 13E90300 		ldmdb	r3, {r0, r1}
 1873 01a6 8DE80300 		stm	sp, {r0, r1}
 1874 01aa 0CAB     		add	r3, sp, #48
 1875 01ac 0CCB     		ldm	r3, {r2, r3}
 1876 01ae 3046     		mov	r0, r6
 1877 01b0 FFF7FEFF 		bl	_lf_is_tag_after_stop_tag
 1878              	.LVL177:
 810:src-gen/Main/core/reactor_common.c ****                             // Scheduling e will incur a microstep at timeout,
 1879              		.loc 1 810 28 view .LVU488
 1880 01b4 E8B9     		cbnz	r0, .L175
 1881              	.LBE22:
 816:src-gen/Main/core/reactor_common.c ****                             lf_print_error("_lf_schedule_at_tag: in-order contract violated.");
 1882              		.loc 1 816 25 is_stmt 1 view .LVU489
 816:src-gen/Main/core/reactor_common.c ****                             lf_print_error("_lf_schedule_at_tag: in-order contract violated.");
 1883              		.loc 1 816 34 is_stmt 0 view .LVU490
 1884 01b6 AB69     		ldr	r3, [r5, #24]
 816:src-gen/Main/core/reactor_common.c ****                             lf_print_error("_lf_schedule_at_tag: in-order contract violated.");
 1885              		.loc 1 816 40 view .LVU491
 1886 01b8 9A69     		ldr	r2, [r3, #24]
 816:src-gen/Main/core/reactor_common.c ****                             lf_print_error("_lf_schedule_at_tag: in-order contract violated.");
 1887              		.loc 1 816 28 view .LVU492
 1888 01ba 02BB     		cbnz	r2, .L176
ARM GAS  /var/folders/2h/lww79zv53b510qlyvytqnvq40000gn/T//ccDbZlJP.s 			page 56


 820:src-gen/Main/core/reactor_common.c ****                 }
 1889              		.loc 1 820 25 is_stmt 1 view .LVU493
 820:src-gen/Main/core/reactor_common.c ****                 }
 1890              		.loc 1 820 43 is_stmt 0 view .LVU494
 1891 01bc 9C61     		str	r4, [r3, #24]
 1892              	.LBE20:
 841:src-gen/Main/core/reactor_common.c **** }
 1893              		.loc 1 841 12 view .LVU495
 1894 01be 0120     		movs	r0, #1
 1895 01c0 98E7     		b	.L129
 1896              	.LVL178:
 1897              	.L174:
 1898              	.LBB24:
 790:src-gen/Main/core/reactor_common.c ****             } else {
 1899              		.loc 1 790 17 is_stmt 1 view .LVU496
 790:src-gen/Main/core/reactor_common.c ****             } else {
 1900              		.loc 1 790 29 is_stmt 0 view .LVU497
 1901 01c2 AC61     		str	r4, [r5, #24]
 1902              	.LBE24:
 841:src-gen/Main/core/reactor_common.c **** }
 1903              		.loc 1 841 12 view .LVU498
 1904 01c4 0120     		movs	r0, #1
 1905              	.LBB25:
 1906 01c6 95E7     		b	.L129
 1907              	.L150:
 794:src-gen/Main/core/reactor_common.c ****                             _lf_done_using(token);
 1908              		.loc 1 794 25 is_stmt 1 view .LVU499
 794:src-gen/Main/core/reactor_common.c ****                             _lf_done_using(token);
 1909              		.loc 1 794 40 is_stmt 0 view .LVU500
 1910 01c8 0369     		ldr	r3, [r0, #16]
 1911              	.LVL179:
 794:src-gen/Main/core/reactor_common.c ****                             _lf_done_using(token);
 1912              		.loc 1 794 28 view .LVU501
 1913 01ca BB42     		cmp	r3, r7
 1914 01cc 02D0     		beq	.L153
 795:src-gen/Main/core/reactor_common.c ****                         }
 1915              		.loc 1 795 29 is_stmt 1 view .LVU502
 1916 01ce 3846     		mov	r0, r7
 1917 01d0 FFF7FEFF 		bl	_lf_done_using
 1918              	.LVL180:
 1919              	.L153:
 797:src-gen/Main/core/reactor_common.c ****                         return 0;
 1920              		.loc 1 797 25 view .LVU503
 1921 01d4 2146     		mov	r1, r4
 1922 01d6 3046     		mov	r0, r6
 1923 01d8 FFF7FEFF 		bl	_lf_recycle_event
 1924              	.LVL181:
 798:src-gen/Main/core/reactor_common.c ****                         break;
 1925              		.loc 1 798 25 view .LVU504
 798:src-gen/Main/core/reactor_common.c ****                         break;
 1926              		.loc 1 798 32 is_stmt 0 view .LVU505
 1927 01dc 0020     		movs	r0, #0
 1928 01de 89E7     		b	.L129
 1929              	.LVL182:
 1930              	.L151:
 799:src-gen/Main/core/reactor_common.c ****                     case replace:
 1931              		.loc 1 799 25 is_stmt 1 view .LVU506
ARM GAS  /var/folders/2h/lww79zv53b510qlyvytqnvq40000gn/T//ccDbZlJP.s 			page 57


 803:src-gen/Main/core/reactor_common.c ****                         _lf_recycle_event(env, e);
 1932              		.loc 1 803 25 view .LVU507
 1933 01e0 3946     		mov	r1, r7
 1934 01e2 FFF7FEFF 		bl	_lf_replace_token
 1935              	.LVL183:
 804:src-gen/Main/core/reactor_common.c ****                         return 0;
 1936              		.loc 1 804 25 view .LVU508
 1937 01e6 2146     		mov	r1, r4
 1938 01e8 3046     		mov	r0, r6
 1939 01ea FFF7FEFF 		bl	_lf_recycle_event
 1940              	.LVL184:
 805:src-gen/Main/core/reactor_common.c ****                         break;
 1941              		.loc 1 805 25 view .LVU509
 805:src-gen/Main/core/reactor_common.c ****                         break;
 1942              		.loc 1 805 32 is_stmt 0 view .LVU510
 1943 01ee 0020     		movs	r0, #0
 1944 01f0 80E7     		b	.L129
 1945              	.LVL185:
 1946              	.L175:
 1947              	.LBB23:
 813:src-gen/Main/core/reactor_common.c ****                             return 0;
 1948              		.loc 1 813 29 is_stmt 1 view .LVU511
 1949 01f2 2146     		mov	r1, r4
 1950 01f4 3046     		mov	r0, r6
 1951 01f6 FFF7FEFF 		bl	_lf_recycle_event
 1952              	.LVL186:
 814:src-gen/Main/core/reactor_common.c ****                         }
 1953              		.loc 1 814 29 view .LVU512
 814:src-gen/Main/core/reactor_common.c ****                         }
 1954              		.loc 1 814 36 is_stmt 0 view .LVU513
 1955 01fa 0020     		movs	r0, #0
 1956 01fc 7AE7     		b	.L129
 1957              	.L176:
 814:src-gen/Main/core/reactor_common.c ****                         }
 1958              		.loc 1 814 36 view .LVU514
 1959              	.LBE23:
 817:src-gen/Main/core/reactor_common.c ****                             return -1;
 1960              		.loc 1 817 29 is_stmt 1 view .LVU515
 1961 01fe 1C48     		ldr	r0, .L179+20
 1962 0200 FFF7FEFF 		bl	lf_print_error
 1963              	.LVL187:
 818:src-gen/Main/core/reactor_common.c ****                         }
 1964              		.loc 1 818 29 view .LVU516
 818:src-gen/Main/core/reactor_common.c ****                         }
 1965              		.loc 1 818 36 is_stmt 0 view .LVU517
 1966 0204 4FF0FF30 		mov	r0, #-1
 1967 0208 74E7     		b	.L129
 1968              	.LVL188:
 1969              	.L135:
 818:src-gen/Main/core/reactor_common.c ****                         }
 1970              		.loc 1 818 36 view .LVU518
 1971              	.LBE25:
 1972              	.LBB26:
 826:src-gen/Main/core/reactor_common.c ****         if (tag.time == current_logical_tag.time) {
 1973              		.loc 1 826 9 is_stmt 1 view .LVU519
 826:src-gen/Main/core/reactor_common.c ****         if (tag.time == current_logical_tag.time) {
 1974              		.loc 1 826 21 is_stmt 0 view .LVU520
ARM GAS  /var/folders/2h/lww79zv53b510qlyvytqnvq40000gn/T//ccDbZlJP.s 			page 58


 1975 020a 1A99     		ldr	r1, [sp, #104]
 1976              	.LVL189:
 827:src-gen/Main/core/reactor_common.c ****             relative_microstep -= current_logical_tag.microstep;
 1977              		.loc 1 827 9 is_stmt 1 view .LVU521
 827:src-gen/Main/core/reactor_common.c ****             relative_microstep -= current_logical_tag.microstep;
 1978              		.loc 1 827 44 is_stmt 0 view .LVU522
 1979 020c 049A     		ldr	r2, [sp, #16]
 1980 020e 059B     		ldr	r3, [sp, #20]
 827:src-gen/Main/core/reactor_common.c ****             relative_microstep -= current_logical_tag.microstep;
 1981              		.loc 1 827 12 view .LVU523
 1982 0210 9945     		cmp	r9, r3
 1983 0212 08BF     		it	eq
 1984 0214 9245     		cmpeq	r10, r2
 1985 0216 0BD0     		beq	.L177
 826:src-gen/Main/core/reactor_common.c ****         if (tag.time == current_logical_tag.time) {
 1986              		.loc 1 826 21 view .LVU524
 1987 0218 0846     		mov	r0, r1
 1988              	.LVL190:
 1989              	.L156:
 830:src-gen/Main/core/reactor_common.c ****                 tag.microstep == 0) {
 1990              		.loc 1 830 9 is_stmt 1 view .LVU525
 830:src-gen/Main/core/reactor_common.c ****                 tag.microstep == 0) {
 1991              		.loc 1 830 12 is_stmt 0 view .LVU526
 1992 021a 9945     		cmp	r9, r3
 1993 021c 08BF     		it	eq
 1994 021e 9245     		cmpeq	r10, r2
 1995 0220 09D0     		beq	.L178
 1996              	.L157:
 830:src-gen/Main/core/reactor_common.c ****                 tag.microstep == 0) {
 1997              		.loc 1 830 83 discriminator 3 view .LVU527
 1998 0222 59B9     		cbnz	r1, .L159
 1999              	.L158:
 834:src-gen/Main/core/reactor_common.c ****         } else {
 2000              		.loc 1 834 13 is_stmt 1 view .LVU528
 2001 0224 2146     		mov	r1, r4
 2002 0226 B06A     		ldr	r0, [r6, #40]
 2003              	.LVL191:
 834:src-gen/Main/core/reactor_common.c ****         } else {
 2004              		.loc 1 834 13 is_stmt 0 view .LVU529
 2005 0228 FFF7FEFF 		bl	pqueue_insert
 2006              	.LVL192:
 2007              	.LBE26:
 841:src-gen/Main/core/reactor_common.c **** }
 2008              		.loc 1 841 12 view .LVU530
 2009 022c 0120     		movs	r0, #1
 2010              	.LBB27:
 834:src-gen/Main/core/reactor_common.c ****         } else {
 2011              		.loc 1 834 13 view .LVU531
 2012 022e 61E7     		b	.L129
 2013              	.LVL193:
 2014              	.L177:
 828:src-gen/Main/core/reactor_common.c ****         }
 2015              		.loc 1 828 13 is_stmt 1 view .LVU532
 828:src-gen/Main/core/reactor_common.c ****         }
 2016              		.loc 1 828 54 is_stmt 0 view .LVU533
 2017 0230 0698     		ldr	r0, [sp, #24]
 2018              	.LVL194:
ARM GAS  /var/folders/2h/lww79zv53b510qlyvytqnvq40000gn/T//ccDbZlJP.s 			page 59


 828:src-gen/Main/core/reactor_common.c ****         }
 2019              		.loc 1 828 32 view .LVU534
 2020 0232 081A     		subs	r0, r1, r0
 2021              	.LVL195:
 828:src-gen/Main/core/reactor_common.c ****         }
 2022              		.loc 1 828 32 view .LVU535
 2023 0234 F1E7     		b	.L156
 2024              	.L178:
 830:src-gen/Main/core/reactor_common.c ****                 tag.microstep == 0) {
 2025              		.loc 1 830 53 discriminator 1 view .LVU536
 2026 0236 0128     		cmp	r0, #1
 2027 0238 F3D1     		bne	.L157
 2028 023a F3E7     		b	.L158
 2029              	.L159:
 838:src-gen/Main/core/reactor_common.c ****         }
 2030              		.loc 1 838 13 is_stmt 1 view .LVU537
 2031 023c B56A     		ldr	r5, [r6, #40]
 2032              	.LVL196:
 838:src-gen/Main/core/reactor_common.c ****         }
 2033              		.loc 1 838 41 is_stmt 0 view .LVU538
 2034 023e 0190     		str	r0, [sp, #4]
 2035 0240 0094     		str	r4, [sp]
 2036 0242 5246     		mov	r2, r10
 2037 0244 4B46     		mov	r3, r9
 2038 0246 4146     		mov	r1, r8
 2039 0248 3046     		mov	r0, r6
 2040              	.LVL197:
 838:src-gen/Main/core/reactor_common.c ****         }
 2041              		.loc 1 838 41 view .LVU539
 2042 024a FFF7FEFF 		bl	_lf_create_dummy_events
 2043              	.LVL198:
 838:src-gen/Main/core/reactor_common.c ****         }
 2044              		.loc 1 838 41 view .LVU540
 2045 024e 0146     		mov	r1, r0
 838:src-gen/Main/core/reactor_common.c ****         }
 2046              		.loc 1 838 13 view .LVU541
 2047 0250 2846     		mov	r0, r5
 2048 0252 FFF7FEFF 		bl	pqueue_insert
 2049              	.LVL199:
 2050              	.LBE27:
 841:src-gen/Main/core/reactor_common.c **** }
 2051              		.loc 1 841 12 view .LVU542
 2052 0256 0120     		movs	r0, #1
 2053 0258 4CE7     		b	.L129
 2054              	.L180:
 2055 025a 00BF     		.align	2
 2056              	.L179:
 2057 025c 00000000 		.word	.LC0
 2058 0260 00000000 		.word	__func__.5
 2059 0264 1C000000 		.word	.LC1
 2060 0268 00000000 		.word	.LC3
 2061 026c 44000000 		.word	.LC4
 2062 0270 8C000000 		.word	.LC5
 2063              		.cfi_endproc
 2064              	.LFE152:
 2066              		.section	.rodata._lf_schedule.str1.4,"aMS",%progbits,1
 2067              		.align	2
ARM GAS  /var/folders/2h/lww79zv53b510qlyvytqnvq40000gn/T//ccDbZlJP.s 			page 60


 2068              	.LC6:
 2069 0000 6C665F73 		.ascii	"lf_schedule() called after stop tag.\000"
 2069      63686564 
 2069      756C6528 
 2069      29206361 
 2069      6C6C6564 
 2070 0025 000000   		.align	2
 2071              	.LC7:
 2072 0028 73636865 		.ascii	"schedule called with a negative extra_delay %lld. R"
 2072      64756C65 
 2072      2063616C 
 2072      6C656420 
 2072      77697468 
 2073 005b 65706C61 		.ascii	"eplacing with zero.\000"
 2073      63696E67 
 2073      20776974 
 2073      68207A65 
 2073      726F2E00 
 2074 006f 00       		.align	2
 2075              	.LC8:
 2076 0070 41747465 		.ascii	"Attempting to schedule an event earlier than curren"
 2076      6D707469 
 2076      6E672074 
 2076      6F207363 
 2076      68656475 
 2077 00a3 74207469 		.ascii	"t time by %lld nsec! Revising to the current time %"
 2077      6D652062 
 2077      7920256C 
 2077      6C64206E 
 2077      73656321 
 2078 00d6 6C6C642E 		.ascii	"lld.\000"
 2078      00
 2079              		.section	.text._lf_schedule,"ax",%progbits
 2080              		.align	1
 2081              		.global	_lf_schedule
 2082              		.syntax unified
 2083              		.thumb
 2084              		.thumb_func
 2086              	_lf_schedule:
 2087              	.LVL200:
 2088              	.LFB153:
 843:src-gen/Main/core/reactor_common.c **** 
 844:src-gen/Main/core/reactor_common.c **** /**
 845:src-gen/Main/core/reactor_common.c ****  * Schedule the specified trigger at env->current_tag.time plus the offset of the
 846:src-gen/Main/core/reactor_common.c ****  * specified trigger plus the delay. See schedule_token() in reactor.h for details.
 847:src-gen/Main/core/reactor_common.c ****  * This is the internal implementation shared by both the threaded
 848:src-gen/Main/core/reactor_common.c ****  * and non-threaded versions.
 849:src-gen/Main/core/reactor_common.c ****  *
 850:src-gen/Main/core/reactor_common.c ****  * The value is required to be either
 851:src-gen/Main/core/reactor_common.c ****  * NULL or a pointer to a token wrapping the payload. The token carries
 852:src-gen/Main/core/reactor_common.c ****  * a reference count, and when the reference count decrements to 0,
 853:src-gen/Main/core/reactor_common.c ****  * the will be freed. Hence, it is essential that the payload be in
 854:src-gen/Main/core/reactor_common.c ****  * memory allocated using malloc.
 855:src-gen/Main/core/reactor_common.c ****  *
 856:src-gen/Main/core/reactor_common.c ****  * There are three conditions under which this function will not
 857:src-gen/Main/core/reactor_common.c ****  * actually put an event on the event queue and decrement the reference count
 858:src-gen/Main/core/reactor_common.c ****  * of the token (if there is one), which could result in the payload being
ARM GAS  /var/folders/2h/lww79zv53b510qlyvytqnvq40000gn/T//ccDbZlJP.s 			page 61


 859:src-gen/Main/core/reactor_common.c ****  * freed. In all three cases, this function returns 0. Otherwise,
 860:src-gen/Main/core/reactor_common.c ****  * it returns a handle to the scheduled trigger, which is an integer
 861:src-gen/Main/core/reactor_common.c ****  * greater than 0.
 862:src-gen/Main/core/reactor_common.c ****  *
 863:src-gen/Main/core/reactor_common.c ****  * The first condition is that a stop has been requested and the trigger
 864:src-gen/Main/core/reactor_common.c ****  * offset plus the extra delay is greater than zero.
 865:src-gen/Main/core/reactor_common.c ****  * The second condition is that the trigger offset plus the extra delay
 866:src-gen/Main/core/reactor_common.c ****  * is greater that the requested stop time (timeout).
 867:src-gen/Main/core/reactor_common.c ****  * The third condition is that the trigger argument is null.
 868:src-gen/Main/core/reactor_common.c ****  *
 869:src-gen/Main/core/reactor_common.c ****  * @param env Environment in which we are executing.
 870:src-gen/Main/core/reactor_common.c ****  * @param trigger The trigger to be invoked at a later logical time.
 871:src-gen/Main/core/reactor_common.c ****  * @param extra_delay The logical time delay, which gets added to the
 872:src-gen/Main/core/reactor_common.c ****  *  trigger's minimum delay, if it has one. If this number is negative,
 873:src-gen/Main/core/reactor_common.c ****  *  then zero is used instead.
 874:src-gen/Main/core/reactor_common.c ****  * @param token The token wrapping the payload or NULL for no payload.
 875:src-gen/Main/core/reactor_common.c ****  * @return A handle to the event, or 0 if no new event was scheduled, or -1 for error.
 876:src-gen/Main/core/reactor_common.c ****  */
 877:src-gen/Main/core/reactor_common.c **** trigger_handle_t _lf_schedule(environment_t *env, trigger_t* trigger, interval_t extra_delay, lf_to
 2089              		.loc 1 877 114 is_stmt 1 view -0
 2090              		.cfi_startproc
 2091              		@ args = 4, pretend = 0, frame = 48
 2092              		@ frame_needed = 0, uses_anonymous_args = 0
 2093              		.loc 1 877 114 is_stmt 0 view .LVU544
 2094 0000 2DE9F04F 		push	{r4, r5, r6, r7, r8, r9, r10, fp, lr}
 2095              	.LCFI36:
 2096              		.cfi_def_cfa_offset 36
 2097              		.cfi_offset 4, -36
 2098              		.cfi_offset 5, -32
 2099              		.cfi_offset 6, -28
 2100              		.cfi_offset 7, -24
 2101              		.cfi_offset 8, -20
 2102              		.cfi_offset 9, -16
 2103              		.cfi_offset 10, -12
 2104              		.cfi_offset 11, -8
 2105              		.cfi_offset 14, -4
 2106 0004 8FB0     		sub	sp, sp, #60
 2107              	.LCFI37:
 2108              		.cfi_def_cfa_offset 96
 2109 0006 DDF860B0 		ldr	fp, [sp, #96]
 878:src-gen/Main/core/reactor_common.c ****     assert(env != GLOBAL_ENVIRONMENT);
 2110              		.loc 1 878 5 is_stmt 1 view .LVU545
 2111 000a 0028     		cmp	r0, #0
 2112 000c 00F09280 		beq	.L213
 2113 0010 0D46     		mov	r5, r1
 2114 0012 9046     		mov	r8, r2
 2115 0014 9A46     		mov	r10, r3
 2116 0016 0446     		mov	r4, r0
 879:src-gen/Main/core/reactor_common.c ****     if (_lf_is_tag_after_stop_tag(env, env->current_tag)) {
 2117              		.loc 1 879 5 view .LVU546
 2118              		.loc 1 879 9 is_stmt 0 view .LVU547
 2119 0018 00F11003 		add	r3, r0, #16
 2120 001c 93E80300 		ldm	r3, {r0, r1}
 2121              	.LVL201:
 2122              		.loc 1 879 9 view .LVU548
 2123 0020 8DE80300 		stm	sp, {r0, r1}
 2124 0024 04F10803 		add	r3, r4, #8
ARM GAS  /var/folders/2h/lww79zv53b510qlyvytqnvq40000gn/T//ccDbZlJP.s 			page 62


 2125 0028 0CCB     		ldm	r3, {r2, r3}
 2126              	.LVL202:
 2127              		.loc 1 879 9 view .LVU549
 2128 002a 2046     		mov	r0, r4
 2129 002c FFF7FEFF 		bl	_lf_is_tag_after_stop_tag
 2130              	.LVL203:
 2131              		.loc 1 879 8 view .LVU550
 2132 0030 0028     		cmp	r0, #0
 2133 0032 40F08680 		bne	.L214
 880:src-gen/Main/core/reactor_common.c ****         // If schedule is called after stop_tag
 881:src-gen/Main/core/reactor_common.c ****         // This is a critical condition.
 882:src-gen/Main/core/reactor_common.c ****         _lf_done_using(token);
 883:src-gen/Main/core/reactor_common.c ****         lf_print_warning("lf_schedule() called after stop tag.");
 884:src-gen/Main/core/reactor_common.c ****         return 0;
 885:src-gen/Main/core/reactor_common.c ****     }
 886:src-gen/Main/core/reactor_common.c **** 
 887:src-gen/Main/core/reactor_common.c ****     if (extra_delay < 0LL) {
 2134              		.loc 1 887 5 is_stmt 1 view .LVU551
 2135              		.loc 1 887 8 is_stmt 0 view .LVU552
 2136 0036 BAF1000F 		cmp	r10, #0
 2137 003a C0F28A80 		blt	.L215
 2138              	.LVL204:
 2139              	.L185:
 888:src-gen/Main/core/reactor_common.c ****         lf_print_warning("schedule called with a negative extra_delay " PRINTF_TIME ". Replacing wi
 889:src-gen/Main/core/reactor_common.c ****         extra_delay = 0LL;
 890:src-gen/Main/core/reactor_common.c ****     }
 891:src-gen/Main/core/reactor_common.c **** 
 892:src-gen/Main/core/reactor_common.c ****     LF_PRINT_DEBUG("_lf_schedule: scheduling trigger %p with delay " PRINTF_TIME " and token %p.",
 2140              		.loc 1 892 5 is_stmt 1 discriminator 3 view .LVU553
 2141              		.loc 1 892 5 discriminator 3 view .LVU554
 2142              		.loc 1 892 5 discriminator 3 view .LVU555
 893:src-gen/Main/core/reactor_common.c ****             trigger, extra_delay, token);
 894:src-gen/Main/core/reactor_common.c **** 
 895:src-gen/Main/core/reactor_common.c ****     // Increment the reference count of the token.
 896:src-gen/Main/core/reactor_common.c ****     if (token != NULL) {
 2143              		.loc 1 896 5 discriminator 3 view .LVU556
 2144              		.loc 1 896 8 is_stmt 0 discriminator 3 view .LVU557
 2145 003e BBF1000F 		cmp	fp, #0
 2146 0042 04D0     		beq	.L186
 897:src-gen/Main/core/reactor_common.c ****         token->ref_count++;
 2147              		.loc 1 897 9 is_stmt 1 view .LVU558
 2148              		.loc 1 897 14 is_stmt 0 view .LVU559
 2149 0044 DBF80C30 		ldr	r3, [fp, #12]
 2150              		.loc 1 897 25 view .LVU560
 2151 0048 0133     		adds	r3, r3, #1
 2152 004a CBF80C30 		str	r3, [fp, #12]
 898:src-gen/Main/core/reactor_common.c ****         LF_PRINT_DEBUG("_lf_schedule: Incremented ref_count of %p to %zu.",
 2153              		.loc 1 898 9 is_stmt 1 view .LVU561
 2154              		.loc 1 898 9 view .LVU562
 2155              	.L186:
 2156              		.loc 1 898 9 discriminator 3 view .LVU563
 899:src-gen/Main/core/reactor_common.c ****                 token, token->ref_count);
 900:src-gen/Main/core/reactor_common.c ****     }
 901:src-gen/Main/core/reactor_common.c **** 
 902:src-gen/Main/core/reactor_common.c ****     // The trigger argument could be null, meaning that nothing is triggered.
 903:src-gen/Main/core/reactor_common.c ****     // Doing this after incrementing the reference count ensures that the
 904:src-gen/Main/core/reactor_common.c ****     // payload will be freed, if there is one.
ARM GAS  /var/folders/2h/lww79zv53b510qlyvytqnvq40000gn/T//ccDbZlJP.s 			page 63


 905:src-gen/Main/core/reactor_common.c ****     if (trigger == NULL) {
 2157              		.loc 1 905 5 discriminator 3 view .LVU564
 2158              		.loc 1 905 8 is_stmt 0 discriminator 3 view .LVU565
 2159 004e 002D     		cmp	r5, #0
 2160 0050 00F08880 		beq	.L216
 906:src-gen/Main/core/reactor_common.c ****         _lf_done_using(token);
 907:src-gen/Main/core/reactor_common.c ****         return 0;
 908:src-gen/Main/core/reactor_common.c ****     }
 909:src-gen/Main/core/reactor_common.c **** 
 910:src-gen/Main/core/reactor_common.c ****     // Compute the tag (the logical timestamp for the future event).
 911:src-gen/Main/core/reactor_common.c ****     // We first do this assuming it is logical action and then, if it is a
 912:src-gen/Main/core/reactor_common.c ****     // physical action, modify it if physical time exceeds the result.
 913:src-gen/Main/core/reactor_common.c ****     interval_t delay = extra_delay;
 2161              		.loc 1 913 5 is_stmt 1 view .LVU566
 2162              	.LVL205:
 914:src-gen/Main/core/reactor_common.c ****     // Add the offset if this is not a timer because, in that case,
 915:src-gen/Main/core/reactor_common.c ****     // it is the minimum delay.
 916:src-gen/Main/core/reactor_common.c ****     if (!trigger->is_timer) {
 2163              		.loc 1 916 5 view .LVU567
 2164              		.loc 1 916 17 is_stmt 0 view .LVU568
 2165 0054 2B7F     		ldrb	r3, [r5, #28]	@ zero_extendqisi2
 2166              		.loc 1 916 8 view .LVU569
 2167 0056 33B9     		cbnz	r3, .L188
 917:src-gen/Main/core/reactor_common.c ****         delay += trigger->offset;
 2168              		.loc 1 917 9 is_stmt 1 view .LVU570
 2169              		.loc 1 917 25 is_stmt 0 view .LVU571
 2170 0058 2B6A     		ldr	r3, [r5, #32]
 2171 005a 6A6A     		ldr	r2, [r5, #36]
 2172              		.loc 1 917 15 view .LVU572
 2173 005c 13EB0803 		adds	r3, r3, r8
 2174 0060 9846     		mov	r8, r3
 2175              	.LVL206:
 2176              		.loc 1 917 15 view .LVU573
 2177 0062 42EB0A0A 		adc	r10, r2, r10
 2178              	.LVL207:
 2179              	.L188:
 918:src-gen/Main/core/reactor_common.c ****     }
 919:src-gen/Main/core/reactor_common.c ****     interval_t intended_time = env->current_tag.time + delay;
 2180              		.loc 1 919 5 is_stmt 1 view .LVU574
 2181              		.loc 1 919 48 is_stmt 0 view .LVU575
 2182 0066 A668     		ldr	r6, [r4, #8]
 2183 0068 E368     		ldr	r3, [r4, #12]
 2184              		.loc 1 919 16 view .LVU576
 2185 006a 16EB0806 		adds	r6, r6, r8
 2186 006e 43EB0A09 		adc	r9, r3, r10
 2187              	.LVL208:
 920:src-gen/Main/core/reactor_common.c ****     LF_PRINT_DEBUG("_lf_schedule: env->current_tag.time = " PRINTF_TIME ". Total logical delay = " 
 2188              		.loc 1 920 5 is_stmt 1 view .LVU577
 2189              		.loc 1 920 5 view .LVU578
 2190              		.loc 1 920 5 view .LVU579
 921:src-gen/Main/core/reactor_common.c ****             env->current_tag.time, delay);
 922:src-gen/Main/core/reactor_common.c ****     interval_t min_spacing = trigger->period;
 2191              		.loc 1 922 5 view .LVU580
 2192              		.loc 1 922 16 is_stmt 0 view .LVU581
 2193 0072 AB6A     		ldr	r3, [r5, #40]
 2194 0074 0393     		str	r3, [sp, #12]
 2195 0076 EB6A     		ldr	r3, [r5, #44]
ARM GAS  /var/folders/2h/lww79zv53b510qlyvytqnvq40000gn/T//ccDbZlJP.s 			page 64


 2196 0078 0493     		str	r3, [sp, #16]
 2197              	.LVL209:
 923:src-gen/Main/core/reactor_common.c **** 
 924:src-gen/Main/core/reactor_common.c ****     event_t* e = _lf_get_new_event(env);
 2198              		.loc 1 924 5 is_stmt 1 view .LVU582
 2199              		.loc 1 924 18 is_stmt 0 view .LVU583
 2200 007a 2046     		mov	r0, r4
 2201 007c FFF7FEFF 		bl	_lf_get_new_event
 2202              	.LVL210:
 2203              		.loc 1 924 18 view .LVU584
 2204 0080 0746     		mov	r7, r0
 2205              	.LVL211:
 925:src-gen/Main/core/reactor_common.c **** 
 926:src-gen/Main/core/reactor_common.c ****     // Initialize the next pointer.
 927:src-gen/Main/core/reactor_common.c ****     e->next = NULL;
 2206              		.loc 1 927 5 is_stmt 1 view .LVU585
 2207              		.loc 1 927 13 is_stmt 0 view .LVU586
 2208 0082 0023     		movs	r3, #0
 2209 0084 8361     		str	r3, [r0, #24]
 928:src-gen/Main/core/reactor_common.c **** 
 929:src-gen/Main/core/reactor_common.c ****     // Set the payload.
 930:src-gen/Main/core/reactor_common.c ****     e->token = token;
 2210              		.loc 1 930 5 is_stmt 1 view .LVU587
 2211              		.loc 1 930 14 is_stmt 0 view .LVU588
 2212 0086 C0F810B0 		str	fp, [r0, #16]
 931:src-gen/Main/core/reactor_common.c **** 
 932:src-gen/Main/core/reactor_common.c ****     // Make sure the event points to this trigger so when it is
 933:src-gen/Main/core/reactor_common.c ****     // dequeued, it will trigger this trigger.
 934:src-gen/Main/core/reactor_common.c ****     e->trigger = trigger;
 2213              		.loc 1 934 5 is_stmt 1 view .LVU589
 2214              		.loc 1 934 16 is_stmt 0 view .LVU590
 2215 008a 8560     		str	r5, [r0, #8]
 935:src-gen/Main/core/reactor_common.c **** 
 936:src-gen/Main/core/reactor_common.c ****     // If the trigger is physical, then we need to check whether
 937:src-gen/Main/core/reactor_common.c ****     // physical time is larger than the intended time and, if so,
 938:src-gen/Main/core/reactor_common.c ****     // modify the intended time.
 939:src-gen/Main/core/reactor_common.c ****     if (trigger->is_physical) {
 2216              		.loc 1 939 5 is_stmt 1 view .LVU591
 2217              		.loc 1 939 16 is_stmt 0 view .LVU592
 2218 008c 95F83030 		ldrb	r3, [r5, #48]	@ zero_extendqisi2
 2219              		.loc 1 939 8 view .LVU593
 2220 0090 002B     		cmp	r3, #0
 2221 0092 6CD1     		bne	.L217
 940:src-gen/Main/core/reactor_common.c ****         // Get the current physical time and assign it as the intended time.
 941:src-gen/Main/core/reactor_common.c ****         intended_time = lf_time_physical() + delay;
 942:src-gen/Main/core/reactor_common.c ****     } else {
 943:src-gen/Main/core/reactor_common.c ****         // FIXME: We need to verify that we are executing within a reaction?
 944:src-gen/Main/core/reactor_common.c ****         // See reactor_threaded.
 945:src-gen/Main/core/reactor_common.c ****         // If a logical action is scheduled asynchronously (which should never be
 946:src-gen/Main/core/reactor_common.c ****         // done) the computed tag can be smaller than the current tag, in which case
 947:src-gen/Main/core/reactor_common.c ****         // it needs to be adjusted.
 948:src-gen/Main/core/reactor_common.c ****         // FIXME: This can go away once:
 949:src-gen/Main/core/reactor_common.c ****         // - we have eliminated the possibility to have a negative additional delay; and
 950:src-gen/Main/core/reactor_common.c ****         // - we detect the asynchronous use of logical actions
 951:src-gen/Main/core/reactor_common.c ****         #ifndef NDEBUG
 952:src-gen/Main/core/reactor_common.c ****         if (intended_time < env->current_tag.time) {
 2222              		.loc 1 952 9 is_stmt 1 view .LVU594
ARM GAS  /var/folders/2h/lww79zv53b510qlyvytqnvq40000gn/T//ccDbZlJP.s 			page 65


 2223              		.loc 1 952 45 is_stmt 0 view .LVU595
 2224 0094 A168     		ldr	r1, [r4, #8]
 2225 0096 E368     		ldr	r3, [r4, #12]
 2226              		.loc 1 952 12 view .LVU596
 2227 0098 8E42     		cmp	r6, r1
 2228 009a 79EB0302 		sbcs	r2, r9, r3
 2229 009e 6DDB     		blt	.L218
 2230              	.LVL212:
 2231              	.L190:
 953:src-gen/Main/core/reactor_common.c ****             lf_print_warning("Attempting to schedule an event earlier than current time by " PRINTF
 954:src-gen/Main/core/reactor_common.c ****                     "Revising to the current time " PRINTF_TIME ".",
 955:src-gen/Main/core/reactor_common.c ****                     env->current_tag.time - intended_time, env->current_tag.time);
 956:src-gen/Main/core/reactor_common.c ****             intended_time = env->current_tag.time;
 957:src-gen/Main/core/reactor_common.c ****         }
 958:src-gen/Main/core/reactor_common.c ****         #endif
 959:src-gen/Main/core/reactor_common.c ****     }
 960:src-gen/Main/core/reactor_common.c **** 
 961:src-gen/Main/core/reactor_common.c **** #ifdef FEDERATED_DECENTRALIZED
 962:src-gen/Main/core/reactor_common.c ****     // Event inherits the original intended_tag of the trigger
 963:src-gen/Main/core/reactor_common.c ****     // set by the network stack (or the default, which is (NEVER,0))
 964:src-gen/Main/core/reactor_common.c ****     e->intended_tag = trigger->intended_tag;
 965:src-gen/Main/core/reactor_common.c **** #endif
 966:src-gen/Main/core/reactor_common.c **** 
 967:src-gen/Main/core/reactor_common.c ****     event_t* existing = (event_t*)(trigger->last);
 2232              		.loc 1 967 5 is_stmt 1 view .LVU597
 2233              		.loc 1 967 14 is_stmt 0 view .LVU598
 2234 00a0 D5F83480 		ldr	r8, [r5, #52]
 2235              	.LVL213:
 968:src-gen/Main/core/reactor_common.c ****     // Check for conflicts (a queued event with the same trigger and time).
 969:src-gen/Main/core/reactor_common.c ****     if (trigger->period < 0) {
 2236              		.loc 1 969 5 is_stmt 1 view .LVU599
 2237              		.loc 1 969 16 is_stmt 0 view .LVU600
 2238 00a4 EB6A     		ldr	r3, [r5, #44]
 2239              		.loc 1 969 8 view .LVU601
 2240 00a6 002B     		cmp	r3, #0
 2241 00a8 74DB     		blt	.L219
 970:src-gen/Main/core/reactor_common.c ****         // No minimum spacing defined.
 971:src-gen/Main/core/reactor_common.c ****         tag_t intended_tag = (tag_t) {.time = intended_time, .microstep = 0u};
 972:src-gen/Main/core/reactor_common.c ****         e->time = intended_tag.time;
 973:src-gen/Main/core/reactor_common.c ****         event_t* found = (event_t *)pqueue_find_equal_same_priority(env->event_q, e);
 974:src-gen/Main/core/reactor_common.c ****         // Check for conflicts. Let events pile up in super dense time.
 975:src-gen/Main/core/reactor_common.c ****         if (found != NULL) {
 976:src-gen/Main/core/reactor_common.c ****             intended_tag.microstep++;
 977:src-gen/Main/core/reactor_common.c ****             // Skip to the last node in the linked list.
 978:src-gen/Main/core/reactor_common.c ****             while(found->next != NULL) {
 979:src-gen/Main/core/reactor_common.c ****                 found = found->next;
 980:src-gen/Main/core/reactor_common.c ****                 intended_tag.microstep++;
 981:src-gen/Main/core/reactor_common.c ****             }
 982:src-gen/Main/core/reactor_common.c ****             if (_lf_is_tag_after_stop_tag(env, intended_tag)) {
 983:src-gen/Main/core/reactor_common.c ****                 LF_PRINT_DEBUG("Attempt to schedule an event after stop_tag was rejected.");
 984:src-gen/Main/core/reactor_common.c ****                 // Scheduling an event will incur a microstep
 985:src-gen/Main/core/reactor_common.c ****                 // after the stop tag.
 986:src-gen/Main/core/reactor_common.c ****                 _lf_recycle_event(env, e);
 987:src-gen/Main/core/reactor_common.c ****                 return 0;
 988:src-gen/Main/core/reactor_common.c ****             }
 989:src-gen/Main/core/reactor_common.c ****             // Hook the event into the list.
 990:src-gen/Main/core/reactor_common.c ****             found->next = e;
ARM GAS  /var/folders/2h/lww79zv53b510qlyvytqnvq40000gn/T//ccDbZlJP.s 			page 66


 991:src-gen/Main/core/reactor_common.c ****             return(0); // FIXME: return value
 992:src-gen/Main/core/reactor_common.c ****         }
 993:src-gen/Main/core/reactor_common.c ****         // If there are not conflicts, schedule as usual. If intended time is
 994:src-gen/Main/core/reactor_common.c ****         // equal to the current logical time, the event will effectively be
 995:src-gen/Main/core/reactor_common.c ****         // scheduled at the next microstep.
 996:src-gen/Main/core/reactor_common.c ****     } else if (!trigger->is_timer && existing != NULL) {
 2242              		.loc 1 996 12 is_stmt 1 view .LVU602
 2243              		.loc 1 996 24 is_stmt 0 view .LVU603
 2244 00aa 2B7F     		ldrb	r3, [r5, #28]	@ zero_extendqisi2
 2245              		.loc 1 996 15 view .LVU604
 2246 00ac 1BBB     		cbnz	r3, .L197
 2247              		.loc 1 996 35 discriminator 1 view .LVU605
 2248 00ae B8F1000F 		cmp	r8, #0
 2249 00b2 20D0     		beq	.L197
 2250              	.LBB28:
 997:src-gen/Main/core/reactor_common.c ****         // There exists a previously scheduled event. It determines the
 998:src-gen/Main/core/reactor_common.c ****         // earliest time at which the new event can be scheduled.
 999:src-gen/Main/core/reactor_common.c ****         // Check to see whether the event is too early.
1000:src-gen/Main/core/reactor_common.c ****         instant_t earliest_time = existing->time + min_spacing;
 2251              		.loc 1 1000 9 is_stmt 1 view .LVU606
 2252              		.loc 1 1000 43 is_stmt 0 view .LVU607
 2253 00b4 D8F80030 		ldr	r3, [r8]
 2254 00b8 D8F80420 		ldr	r2, [r8, #4]
 2255              		.loc 1 1000 19 view .LVU608
 2256 00bc 0399     		ldr	r1, [sp, #12]
 2257 00be 13EB010A 		adds	r10, r3, r1
 2258 00c2 0499     		ldr	r1, [sp, #16]
 2259 00c4 42EB0101 		adc	r1, r2, r1
 2260 00c8 0591     		str	r1, [sp, #20]
 2261              	.LVL214:
1001:src-gen/Main/core/reactor_common.c ****         LF_PRINT_DEBUG("There is a previously scheduled event; earliest possible time "
 2262              		.loc 1 1001 9 is_stmt 1 view .LVU609
 2263              		.loc 1 1001 9 view .LVU610
 2264              		.loc 1 1001 9 view .LVU611
1002:src-gen/Main/core/reactor_common.c ****                 "with min spacing: " PRINTF_TIME,
1003:src-gen/Main/core/reactor_common.c ****                 earliest_time);
1004:src-gen/Main/core/reactor_common.c ****         // If the event is early, see which policy applies.
1005:src-gen/Main/core/reactor_common.c ****         if (earliest_time >= intended_time) {
 2265              		.loc 1 1005 9 view .LVU612
 2266              		.loc 1 1005 12 is_stmt 0 view .LVU613
 2267 00ca B245     		cmp	r10, r6
 2268 00cc 71EB0901 		sbcs	r1, r1, r9
 2269              	.LVL215:
 2270              		.loc 1 1005 12 view .LVU614
 2271 00d0 11DB     		blt	.L197
1006:src-gen/Main/core/reactor_common.c ****             LF_PRINT_DEBUG("Event is early.");
 2272              		.loc 1 1006 13 is_stmt 1 discriminator 3 view .LVU615
 2273              		.loc 1 1006 13 discriminator 3 view .LVU616
 2274              		.loc 1 1006 13 discriminator 3 view .LVU617
1007:src-gen/Main/core/reactor_common.c ****             switch(trigger->policy) {
 2275              		.loc 1 1007 13 discriminator 3 view .LVU618
 2276              		.loc 1 1007 27 is_stmt 0 discriminator 3 view .LVU619
 2277 00d2 95F83810 		ldrb	r1, [r5, #56]	@ zero_extendqisi2
 2278              		.loc 1 1007 13 discriminator 3 view .LVU620
 2279 00d6 0129     		cmp	r1, #1
 2280 00d8 00F08A80 		beq	.L198
 2281              		.loc 1 1007 13 view .LVU621
ARM GAS  /var/folders/2h/lww79zv53b510qlyvytqnvq40000gn/T//ccDbZlJP.s 			page 67


 2282 00dc 0229     		cmp	r1, #2
 2283 00de 00F0A080 		beq	.L199
1008:src-gen/Main/core/reactor_common.c ****                 case drop:
1009:src-gen/Main/core/reactor_common.c ****                     LF_PRINT_DEBUG("Policy is drop. Dropping the event.");
1010:src-gen/Main/core/reactor_common.c ****                     if (min_spacing > 0 ||
1011:src-gen/Main/core/reactor_common.c ****                             pqueue_find_equal_same_priority(env->event_q, existing) != NULL) {
1012:src-gen/Main/core/reactor_common.c ****                         // Recycle the new event and the token.
1013:src-gen/Main/core/reactor_common.c ****                         if (existing->token != token) {
1014:src-gen/Main/core/reactor_common.c ****                             _lf_done_using(token);
1015:src-gen/Main/core/reactor_common.c ****                         }
1016:src-gen/Main/core/reactor_common.c ****                         _lf_recycle_event(env, e);
1017:src-gen/Main/core/reactor_common.c ****                         return(0);
1018:src-gen/Main/core/reactor_common.c ****                     }
1019:src-gen/Main/core/reactor_common.c ****                 case replace:
1020:src-gen/Main/core/reactor_common.c ****                     LF_PRINT_DEBUG("Policy is replace. Replacing the previous event.");
1021:src-gen/Main/core/reactor_common.c ****                     // If the existing event has not been handled yet, update
1022:src-gen/Main/core/reactor_common.c ****                     // it. WARNING: If provide a mechanism for unscheduling, we
1023:src-gen/Main/core/reactor_common.c ****                     // can no longer rely on the tag of the existing event to
1024:src-gen/Main/core/reactor_common.c ****                     // determine whether or not it has been recycled (the
1025:src-gen/Main/core/reactor_common.c ****                     // existing->time < env->current_tag.time case below).
1026:src-gen/Main/core/reactor_common.c ****                     // NOTE: Because microsteps are not explicit, if the tag of
1027:src-gen/Main/core/reactor_common.c ****                     // the preceding event is equal to the current time, then
1028:src-gen/Main/core/reactor_common.c ****                     // we search the event queue to figure out whether it has
1029:src-gen/Main/core/reactor_common.c ****                     // been handled yet.
1030:src-gen/Main/core/reactor_common.c ****                     if (existing->time > env->current_tag.time ||
1031:src-gen/Main/core/reactor_common.c ****                             (existing->time == env->current_tag.time &&
1032:src-gen/Main/core/reactor_common.c ****                             pqueue_find_equal_same_priority(env->event_q, existing) != NULL)) {
1033:src-gen/Main/core/reactor_common.c ****                         // Recycle the existing token and the new event
1034:src-gen/Main/core/reactor_common.c ****                         // and update the token of the existing event.
1035:src-gen/Main/core/reactor_common.c ****                         _lf_replace_token(existing, token);
1036:src-gen/Main/core/reactor_common.c ****                         _lf_recycle_event(env, e);
1037:src-gen/Main/core/reactor_common.c ****                         return(0);
1038:src-gen/Main/core/reactor_common.c ****                     }
1039:src-gen/Main/core/reactor_common.c ****                     // If the preceding event _has_ been handled, then adjust
1040:src-gen/Main/core/reactor_common.c ****                     // the tag to defer the event.
1041:src-gen/Main/core/reactor_common.c ****                     intended_time = earliest_time;
1042:src-gen/Main/core/reactor_common.c ****                     break;
1043:src-gen/Main/core/reactor_common.c ****                 default:
1044:src-gen/Main/core/reactor_common.c ****                     if (existing->time == env->current_tag.time &&
 2284              		.loc 1 1044 21 is_stmt 1 view .LVU622
 2285              		.loc 1 1044 59 is_stmt 0 view .LVU623
 2286 00e2 A068     		ldr	r0, [r4, #8]
 2287 00e4 E168     		ldr	r1, [r4, #12]
 2288              		.loc 1 1044 24 view .LVU624
 2289 00e6 8A42     		cmp	r2, r1
 2290 00e8 08BF     		it	eq
 2291 00ea 8342     		cmpeq	r3, r0
 2292 00ec 00F0BA80 		beq	.L220
1045:src-gen/Main/core/reactor_common.c ****                             pqueue_find_equal_same_priority(env->event_q, existing) != NULL) {
1046:src-gen/Main/core/reactor_common.c ****                         if (_lf_is_tag_after_stop_tag(env, (tag_t){.time=existing->time,.microstep=
1047:src-gen/Main/core/reactor_common.c ****                             // Scheduling e will incur a microstep at timeout, 
1048:src-gen/Main/core/reactor_common.c ****                             // which is illegal.
1049:src-gen/Main/core/reactor_common.c ****                             _lf_recycle_event(env, e);
1050:src-gen/Main/core/reactor_common.c ****                             return 0;
1051:src-gen/Main/core/reactor_common.c ****                         }
1052:src-gen/Main/core/reactor_common.c ****                         // If the last event hasn't been handled yet, insert
1053:src-gen/Main/core/reactor_common.c ****                         // the new event right behind.
ARM GAS  /var/folders/2h/lww79zv53b510qlyvytqnvq40000gn/T//ccDbZlJP.s 			page 68


1054:src-gen/Main/core/reactor_common.c ****                         existing->next = e;
1055:src-gen/Main/core/reactor_common.c ****                         return 0; // FIXME: return a value
1056:src-gen/Main/core/reactor_common.c ****                     } else {
1057:src-gen/Main/core/reactor_common.c ****                          // Adjust the tag.
1058:src-gen/Main/core/reactor_common.c ****                         intended_time = earliest_time;
 2293              		.loc 1 1058 39 view .LVU625
 2294 00f0 5646     		mov	r6, r10
 2295              	.LVL216:
 2296              		.loc 1 1058 39 view .LVU626
 2297 00f2 DDF81490 		ldr	r9, [sp, #20]
 2298              	.LVL217:
 2299              	.L197:
 2300              		.loc 1 1058 39 view .LVU627
 2301              	.LBE28:
1059:src-gen/Main/core/reactor_common.c ****                     }
1060:src-gen/Main/core/reactor_common.c ****                     break;
1061:src-gen/Main/core/reactor_common.c ****             }
1062:src-gen/Main/core/reactor_common.c ****         }
1063:src-gen/Main/core/reactor_common.c ****     }
1064:src-gen/Main/core/reactor_common.c **** 
1065:src-gen/Main/core/reactor_common.c ****     // Check if the intended time is in the future
1066:src-gen/Main/core/reactor_common.c ****     // This is a sanity check for the logic above
1067:src-gen/Main/core/reactor_common.c ****     // FIXME: This is a development assertion and might
1068:src-gen/Main/core/reactor_common.c ****     // not be necessary for end-user LF programs
1069:src-gen/Main/core/reactor_common.c ****     #ifndef NDEBUG
1070:src-gen/Main/core/reactor_common.c ****     if (intended_time < env->current_tag.time) {
 2302              		.loc 1 1070 5 is_stmt 1 view .LVU628
 2303              		.loc 1 1070 41 is_stmt 0 view .LVU629
 2304 00f6 A168     		ldr	r1, [r4, #8]
 2305 00f8 E368     		ldr	r3, [r4, #12]
 2306              		.loc 1 1070 8 view .LVU630
 2307 00fa 8E42     		cmp	r6, r1
 2308 00fc 79EB0302 		sbcs	r2, r9, r3
 2309 0100 C0F2D980 		blt	.L221
 2310              	.LVL218:
 2311              	.L205:
1071:src-gen/Main/core/reactor_common.c ****         lf_print_error("Attempting to schedule an event earlier than current time by " PRINTF_TIME 
1072:src-gen/Main/core/reactor_common.c ****                 "Revising to the current time " PRINTF_TIME ".",
1073:src-gen/Main/core/reactor_common.c ****                 env->current_tag.time - intended_time, env->current_tag.time);
1074:src-gen/Main/core/reactor_common.c ****         intended_time = env->current_tag.time;
1075:src-gen/Main/core/reactor_common.c ****     }
1076:src-gen/Main/core/reactor_common.c ****     #endif
1077:src-gen/Main/core/reactor_common.c **** 
1078:src-gen/Main/core/reactor_common.c ****     // Set the tag of the event.
1079:src-gen/Main/core/reactor_common.c ****     e->time = intended_time;
 2312              		.loc 1 1079 5 is_stmt 1 view .LVU631
 2313              		.loc 1 1079 13 is_stmt 0 view .LVU632
 2314 0104 3E60     		str	r6, [r7]
 2315 0106 C7F80490 		str	r9, [r7, #4]
1080:src-gen/Main/core/reactor_common.c **** 
1081:src-gen/Main/core/reactor_common.c ****     // Do not schedule events if if the event time is past the stop time
1082:src-gen/Main/core/reactor_common.c ****     // (current microsteps are checked earlier).
1083:src-gen/Main/core/reactor_common.c ****     LF_PRINT_DEBUG("Comparing event with elapsed time " PRINTF_TIME " against stop time " PRINTF_TI
 2316              		.loc 1 1083 5 is_stmt 1 view .LVU633
 2317              		.loc 1 1083 5 view .LVU634
 2318              		.loc 1 1083 5 view .LVU635
1084:src-gen/Main/core/reactor_common.c ****     if (e->time > env->stop_tag.time) {
ARM GAS  /var/folders/2h/lww79zv53b510qlyvytqnvq40000gn/T//ccDbZlJP.s 			page 69


 2319              		.loc 1 1084 5 view .LVU636
 2320              		.loc 1 1084 32 is_stmt 0 view .LVU637
 2321 010a A269     		ldr	r2, [r4, #24]
 2322 010c E369     		ldr	r3, [r4, #28]
 2323              		.loc 1 1084 8 view .LVU638
 2324 010e B242     		cmp	r2, r6
 2325 0110 73EB0903 		sbcs	r3, r3, r9
 2326 0114 C0F2DB80 		blt	.L222
1085:src-gen/Main/core/reactor_common.c ****         LF_PRINT_DEBUG("_lf_schedule: event time is past the timeout. Discarding event.");
1086:src-gen/Main/core/reactor_common.c ****         _lf_done_using(token);
1087:src-gen/Main/core/reactor_common.c ****         _lf_recycle_event(env, e);
1088:src-gen/Main/core/reactor_common.c ****         return(0);
1089:src-gen/Main/core/reactor_common.c ****     }
1090:src-gen/Main/core/reactor_common.c **** 
1091:src-gen/Main/core/reactor_common.c ****     // Store a pointer to the current event in order to check the min spacing
1092:src-gen/Main/core/reactor_common.c ****     // between this and the following event. Only necessary for actions
1093:src-gen/Main/core/reactor_common.c ****     // that actually specify a min spacing.
1094:src-gen/Main/core/reactor_common.c ****     trigger->last = (event_t*)e;
 2327              		.loc 1 1094 5 is_stmt 1 view .LVU639
 2328              		.loc 1 1094 19 is_stmt 0 view .LVU640
 2329 0118 6F63     		str	r7, [r5, #52]
1095:src-gen/Main/core/reactor_common.c **** 
1096:src-gen/Main/core/reactor_common.c ****     // Queue the event.
1097:src-gen/Main/core/reactor_common.c ****     // NOTE: There is no need for an explicit microstep because
1098:src-gen/Main/core/reactor_common.c ****     // when this is called, all events at the current tag
1099:src-gen/Main/core/reactor_common.c ****     // (time and microstep) have been pulled from the queue,
1100:src-gen/Main/core/reactor_common.c ****     // and any new events added at this tag will go into the reaction_q
1101:src-gen/Main/core/reactor_common.c ****     // rather than the event_q, so anything put in the event_q with this
1102:src-gen/Main/core/reactor_common.c ****     // same time will automatically be executed at the next microstep.
1103:src-gen/Main/core/reactor_common.c ****     LF_PRINT_LOG("Inserting event in the event queue with elapsed time " PRINTF_TIME ".",
 2330              		.loc 1 1103 5 is_stmt 1 view .LVU641
 2331              		.loc 1 1103 5 view .LVU642
 2332              		.loc 1 1103 5 view .LVU643
1104:src-gen/Main/core/reactor_common.c ****             e->time - start_time);
1105:src-gen/Main/core/reactor_common.c ****     pqueue_insert(env->event_q, e);
 2333              		.loc 1 1105 5 view .LVU644
 2334 011a 3946     		mov	r1, r7
 2335 011c A06A     		ldr	r0, [r4, #40]
 2336 011e FFF7FEFF 		bl	pqueue_insert
 2337              	.LVL219:
1106:src-gen/Main/core/reactor_common.c **** 
1107:src-gen/Main/core/reactor_common.c ****     tracepoint_schedule(env->trace, trigger, e->time - env->current_tag.time);
 2338              		.loc 1 1107 78 view .LVU645
1108:src-gen/Main/core/reactor_common.c **** 
1109:src-gen/Main/core/reactor_common.c ****     // FIXME: make a record of handle and implement unschedule.
1110:src-gen/Main/core/reactor_common.c ****     // NOTE: Rather than wrapping around to get a negative number,
1111:src-gen/Main/core/reactor_common.c ****     // we reset the handle on the assumption that much earlier
1112:src-gen/Main/core/reactor_common.c ****     // handles are irrelevant.
1113:src-gen/Main/core/reactor_common.c ****     int return_value = env->_lf_handle++;
 2339              		.loc 1 1113 5 view .LVU646
 2340              		.loc 1 1113 27 is_stmt 0 view .LVU647
 2341 0122 A06D     		ldr	r0, [r4, #88]
 2342              		.loc 1 1113 39 view .LVU648
 2343 0124 431C     		adds	r3, r0, #1
 2344 0126 A365     		str	r3, [r4, #88]
 2345              	.LVL220:
1114:src-gen/Main/core/reactor_common.c ****     if (env->_lf_handle < 0) {
ARM GAS  /var/folders/2h/lww79zv53b510qlyvytqnvq40000gn/T//ccDbZlJP.s 			page 70


 2346              		.loc 1 1114 5 is_stmt 1 view .LVU649
 2347              		.loc 1 1114 8 is_stmt 0 view .LVU650
 2348 0128 002B     		cmp	r3, #0
 2349 012a C0F2D980 		blt	.L223
 2350              	.LVL221:
 2351              	.L181:
1115:src-gen/Main/core/reactor_common.c ****         env->_lf_handle = 1;
1116:src-gen/Main/core/reactor_common.c ****     }
1117:src-gen/Main/core/reactor_common.c ****     return return_value;
1118:src-gen/Main/core/reactor_common.c **** }
 2352              		.loc 1 1118 1 view .LVU651
 2353 012e 0FB0     		add	sp, sp, #60
 2354              	.LCFI38:
 2355              		.cfi_remember_state
 2356              		.cfi_def_cfa_offset 36
 2357              		@ sp needed
 2358 0130 BDE8F08F 		pop	{r4, r5, r6, r7, r8, r9, r10, fp, pc}
 2359              	.LVL222:
 2360              	.L213:
 2361              	.LCFI39:
 2362              		.cfi_restore_state
 878:src-gen/Main/core/reactor_common.c ****     if (_lf_is_tag_after_stop_tag(env, env->current_tag)) {
 2363              		.loc 1 878 5 discriminator 1 view .LVU652
 2364 0134 6C4B     		ldr	r3, .L228
 2365 0136 6D4A     		ldr	r2, .L228+4
 2366              	.LVL223:
 878:src-gen/Main/core/reactor_common.c ****     if (_lf_is_tag_after_stop_tag(env, env->current_tag)) {
 2367              		.loc 1 878 5 discriminator 1 view .LVU653
 2368 0138 40F26E31 		movw	r1, #878
 2369              	.LVL224:
 878:src-gen/Main/core/reactor_common.c ****     if (_lf_is_tag_after_stop_tag(env, env->current_tag)) {
 2370              		.loc 1 878 5 discriminator 1 view .LVU654
 2371 013c 6C48     		ldr	r0, .L228+8
 2372              	.LVL225:
 878:src-gen/Main/core/reactor_common.c ****     if (_lf_is_tag_after_stop_tag(env, env->current_tag)) {
 2373              		.loc 1 878 5 discriminator 1 view .LVU655
 2374 013e FFF7FEFF 		bl	__assert_func
 2375              	.LVL226:
 2376              	.L214:
 882:src-gen/Main/core/reactor_common.c ****         lf_print_warning("lf_schedule() called after stop tag.");
 2377              		.loc 1 882 9 is_stmt 1 view .LVU656
 2378 0142 5846     		mov	r0, fp
 2379 0144 FFF7FEFF 		bl	_lf_done_using
 2380              	.LVL227:
 883:src-gen/Main/core/reactor_common.c ****         return 0;
 2381              		.loc 1 883 9 view .LVU657
 2382 0148 6A48     		ldr	r0, .L228+12
 2383 014a FFF7FEFF 		bl	lf_print_warning
 2384              	.LVL228:
 884:src-gen/Main/core/reactor_common.c ****     }
 2385              		.loc 1 884 9 view .LVU658
 884:src-gen/Main/core/reactor_common.c ****     }
 2386              		.loc 1 884 16 is_stmt 0 view .LVU659
 2387 014e 0020     		movs	r0, #0
 2388 0150 EDE7     		b	.L181
 2389              	.L215:
 888:src-gen/Main/core/reactor_common.c ****         extra_delay = 0LL;
ARM GAS  /var/folders/2h/lww79zv53b510qlyvytqnvq40000gn/T//ccDbZlJP.s 			page 71


 2390              		.loc 1 888 9 is_stmt 1 view .LVU660
 2391 0152 4246     		mov	r2, r8
 2392 0154 5346     		mov	r3, r10
 2393 0156 6848     		ldr	r0, .L228+16
 2394 0158 FFF7FEFF 		bl	lf_print_warning
 2395              	.LVL229:
 889:src-gen/Main/core/reactor_common.c ****     }
 2396              		.loc 1 889 9 view .LVU661
 889:src-gen/Main/core/reactor_common.c ****     }
 2397              		.loc 1 889 21 is_stmt 0 view .LVU662
 2398 015c 4FF00008 		mov	r8, #0
 2399 0160 C246     		mov	r10, r8
 2400 0162 6CE7     		b	.L185
 2401              	.LVL230:
 2402              	.L216:
 906:src-gen/Main/core/reactor_common.c ****         return 0;
 2403              		.loc 1 906 9 is_stmt 1 view .LVU663
 2404 0164 5846     		mov	r0, fp
 2405 0166 FFF7FEFF 		bl	_lf_done_using
 2406              	.LVL231:
 907:src-gen/Main/core/reactor_common.c ****     }
 2407              		.loc 1 907 9 view .LVU664
 907:src-gen/Main/core/reactor_common.c ****     }
 2408              		.loc 1 907 16 is_stmt 0 view .LVU665
 2409 016a 0020     		movs	r0, #0
 2410 016c DFE7     		b	.L181
 2411              	.LVL232:
 2412              	.L217:
 941:src-gen/Main/core/reactor_common.c ****     } else {
 2413              		.loc 1 941 9 is_stmt 1 view .LVU666
 941:src-gen/Main/core/reactor_common.c ****     } else {
 2414              		.loc 1 941 25 is_stmt 0 view .LVU667
 2415 016e FFF7FEFF 		bl	lf_time_physical
 2416              	.LVL233:
 941:src-gen/Main/core/reactor_common.c ****     } else {
 2417              		.loc 1 941 23 view .LVU668
 2418 0172 10EB0806 		adds	r6, r0, r8
 2419              	.LVL234:
 941:src-gen/Main/core/reactor_common.c ****     } else {
 2420              		.loc 1 941 23 view .LVU669
 2421 0176 4AEB0109 		adc	r9, r10, r1
 2422              	.LVL235:
 941:src-gen/Main/core/reactor_common.c ****     } else {
 2423              		.loc 1 941 23 view .LVU670
 2424 017a 91E7     		b	.L190
 2425              	.LVL236:
 2426              	.L218:
 953:src-gen/Main/core/reactor_common.c ****                     "Revising to the current time " PRINTF_TIME ".",
 2427              		.loc 1 953 13 is_stmt 1 view .LVU671
 2428 017c 8A1B     		subs	r2, r1, r6
 2429 017e 0091     		str	r1, [sp]
 2430 0180 0193     		str	r3, [sp, #4]
 2431 0182 63EB0903 		sbc	r3, r3, r9
 2432 0186 5D48     		ldr	r0, .L228+20
 2433              	.LVL237:
 953:src-gen/Main/core/reactor_common.c ****                     "Revising to the current time " PRINTF_TIME ".",
 2434              		.loc 1 953 13 is_stmt 0 view .LVU672
ARM GAS  /var/folders/2h/lww79zv53b510qlyvytqnvq40000gn/T//ccDbZlJP.s 			page 72


 2435 0188 FFF7FEFF 		bl	lf_print_warning
 2436              	.LVL238:
 956:src-gen/Main/core/reactor_common.c ****         }
 2437              		.loc 1 956 13 is_stmt 1 view .LVU673
 956:src-gen/Main/core/reactor_common.c ****         }
 2438              		.loc 1 956 27 is_stmt 0 view .LVU674
 2439 018c A668     		ldr	r6, [r4, #8]
 2440              	.LVL239:
 956:src-gen/Main/core/reactor_common.c ****         }
 2441              		.loc 1 956 27 view .LVU675
 2442 018e D4F80C90 		ldr	r9, [r4, #12]
 2443              	.LVL240:
 956:src-gen/Main/core/reactor_common.c ****         }
 2444              		.loc 1 956 27 view .LVU676
 2445 0192 85E7     		b	.L190
 2446              	.LVL241:
 2447              	.L219:
 2448              	.LBB31:
 971:src-gen/Main/core/reactor_common.c ****         e->time = intended_tag.time;
 2449              		.loc 1 971 9 is_stmt 1 view .LVU677
 971:src-gen/Main/core/reactor_common.c ****         e->time = intended_tag.time;
 2450              		.loc 1 971 15 is_stmt 0 view .LVU678
 2451 0194 0696     		str	r6, [sp, #24]
 2452 0196 CDF81C90 		str	r9, [sp, #28]
 2453 019a 0023     		movs	r3, #0
 2454 019c 0893     		str	r3, [sp, #32]
 972:src-gen/Main/core/reactor_common.c ****         event_t* found = (event_t *)pqueue_find_equal_same_priority(env->event_q, e);
 2455              		.loc 1 972 9 is_stmt 1 view .LVU679
 972:src-gen/Main/core/reactor_common.c ****         event_t* found = (event_t *)pqueue_find_equal_same_priority(env->event_q, e);
 2456              		.loc 1 972 17 is_stmt 0 view .LVU680
 2457 019e 3E60     		str	r6, [r7]
 2458 01a0 C7F80490 		str	r9, [r7, #4]
 973:src-gen/Main/core/reactor_common.c ****         // Check for conflicts. Let events pile up in super dense time.
 2459              		.loc 1 973 9 is_stmt 1 view .LVU681
 973:src-gen/Main/core/reactor_common.c ****         // Check for conflicts. Let events pile up in super dense time.
 2460              		.loc 1 973 37 is_stmt 0 view .LVU682
 2461 01a4 3946     		mov	r1, r7
 2462 01a6 A06A     		ldr	r0, [r4, #40]
 2463 01a8 FFF7FEFF 		bl	pqueue_find_equal_same_priority
 2464              	.LVL242:
 975:src-gen/Main/core/reactor_common.c ****             intended_tag.microstep++;
 2465              		.loc 1 975 9 is_stmt 1 view .LVU683
 975:src-gen/Main/core/reactor_common.c ****             intended_tag.microstep++;
 2466              		.loc 1 975 12 is_stmt 0 view .LVU684
 2467 01ac 8046     		mov	r8, r0
 2468              	.LVL243:
 975:src-gen/Main/core/reactor_common.c ****             intended_tag.microstep++;
 2469              		.loc 1 975 12 view .LVU685
 2470 01ae 0028     		cmp	r0, #0
 2471 01b0 A1D0     		beq	.L197
 976:src-gen/Main/core/reactor_common.c ****             // Skip to the last node in the linked list.
 2472              		.loc 1 976 13 is_stmt 1 view .LVU686
 976:src-gen/Main/core/reactor_common.c ****             // Skip to the last node in the linked list.
 2473              		.loc 1 976 35 is_stmt 0 view .LVU687
 2474 01b2 0123     		movs	r3, #1
 2475 01b4 0893     		str	r3, [sp, #32]
 978:src-gen/Main/core/reactor_common.c ****                 found = found->next;
ARM GAS  /var/folders/2h/lww79zv53b510qlyvytqnvq40000gn/T//ccDbZlJP.s 			page 73


 2476              		.loc 1 978 13 is_stmt 1 view .LVU688
 978:src-gen/Main/core/reactor_common.c ****                 found = found->next;
 2477              		.loc 1 978 18 is_stmt 0 view .LVU689
 2478 01b6 03E0     		b	.L193
 2479              	.LVL244:
 2480              	.L194:
 979:src-gen/Main/core/reactor_common.c ****                 intended_tag.microstep++;
 2481              		.loc 1 979 17 is_stmt 1 view .LVU690
 980:src-gen/Main/core/reactor_common.c ****             }
 2482              		.loc 1 980 17 view .LVU691
 980:src-gen/Main/core/reactor_common.c ****             }
 2483              		.loc 1 980 29 is_stmt 0 view .LVU692
 2484 01b8 089B     		ldr	r3, [sp, #32]
 980:src-gen/Main/core/reactor_common.c ****             }
 2485              		.loc 1 980 39 view .LVU693
 2486 01ba 0133     		adds	r3, r3, #1
 2487 01bc 0893     		str	r3, [sp, #32]
 979:src-gen/Main/core/reactor_common.c ****                 intended_tag.microstep++;
 2488              		.loc 1 979 23 view .LVU694
 2489 01be 9046     		mov	r8, r2
 2490              	.LVL245:
 2491              	.L193:
 978:src-gen/Main/core/reactor_common.c ****                 found = found->next;
 2492              		.loc 1 978 31 is_stmt 1 view .LVU695
 978:src-gen/Main/core/reactor_common.c ****                 found = found->next;
 2493              		.loc 1 978 24 is_stmt 0 view .LVU696
 2494 01c0 D8F81820 		ldr	r2, [r8, #24]
 978:src-gen/Main/core/reactor_common.c ****                 found = found->next;
 2495              		.loc 1 978 31 view .LVU697
 2496 01c4 002A     		cmp	r2, #0
 2497 01c6 F7D1     		bne	.L194
 982:src-gen/Main/core/reactor_common.c ****                 LF_PRINT_DEBUG("Attempt to schedule an event after stop_tag was rejected.");
 2498              		.loc 1 982 13 is_stmt 1 view .LVU698
 982:src-gen/Main/core/reactor_common.c ****                 LF_PRINT_DEBUG("Attempt to schedule an event after stop_tag was rejected.");
 2499              		.loc 1 982 17 is_stmt 0 view .LVU699
 2500 01c8 08AB     		add	r3, sp, #32
 2501 01ca 93E80300 		ldm	r3, {r0, r1}
 2502 01ce 8DE80300 		stm	sp, {r0, r1}
 2503 01d2 06AB     		add	r3, sp, #24
 2504 01d4 0CCB     		ldm	r3, {r2, r3}
 2505 01d6 2046     		mov	r0, r4
 2506 01d8 FFF7FEFF 		bl	_lf_is_tag_after_stop_tag
 2507              	.LVL246:
 982:src-gen/Main/core/reactor_common.c ****                 LF_PRINT_DEBUG("Attempt to schedule an event after stop_tag was rejected.");
 2508              		.loc 1 982 16 view .LVU700
 2509 01dc 18B9     		cbnz	r0, .L224
 990:src-gen/Main/core/reactor_common.c ****             return(0); // FIXME: return value
 2510              		.loc 1 990 13 is_stmt 1 view .LVU701
 990:src-gen/Main/core/reactor_common.c ****             return(0); // FIXME: return value
 2511              		.loc 1 990 25 is_stmt 0 view .LVU702
 2512 01de C8F81870 		str	r7, [r8, #24]
 991:src-gen/Main/core/reactor_common.c ****         }
 2513              		.loc 1 991 13 is_stmt 1 view .LVU703
 2514              	.L196:
 987:src-gen/Main/core/reactor_common.c ****             }
 2515              		.loc 1 987 24 is_stmt 0 discriminator 1 view .LVU704
 2516 01e2 0020     		movs	r0, #0
ARM GAS  /var/folders/2h/lww79zv53b510qlyvytqnvq40000gn/T//ccDbZlJP.s 			page 74


 2517 01e4 A3E7     		b	.L181
 2518              	.L224:
 983:src-gen/Main/core/reactor_common.c ****                 // Scheduling an event will incur a microstep
 2519              		.loc 1 983 17 is_stmt 1 discriminator 3 view .LVU705
 983:src-gen/Main/core/reactor_common.c ****                 // Scheduling an event will incur a microstep
 2520              		.loc 1 983 17 discriminator 3 view .LVU706
 983:src-gen/Main/core/reactor_common.c ****                 // Scheduling an event will incur a microstep
 2521              		.loc 1 983 17 discriminator 3 view .LVU707
 986:src-gen/Main/core/reactor_common.c ****                 return 0;
 2522              		.loc 1 986 17 discriminator 3 view .LVU708
 2523 01e6 3946     		mov	r1, r7
 2524 01e8 2046     		mov	r0, r4
 2525 01ea FFF7FEFF 		bl	_lf_recycle_event
 2526              	.LVL247:
 987:src-gen/Main/core/reactor_common.c ****             }
 2527              		.loc 1 987 17 discriminator 3 view .LVU709
 987:src-gen/Main/core/reactor_common.c ****             }
 2528              		.loc 1 987 24 is_stmt 0 discriminator 3 view .LVU710
 2529 01ee F8E7     		b	.L196
 2530              	.LVL248:
 2531              	.L198:
 987:src-gen/Main/core/reactor_common.c ****             }
 2532              		.loc 1 987 24 discriminator 3 view .LVU711
 2533              	.LBE31:
 2534              	.LBB32:
1009:src-gen/Main/core/reactor_common.c ****                     if (min_spacing > 0 ||
 2535              		.loc 1 1009 21 is_stmt 1 discriminator 3 view .LVU712
1009:src-gen/Main/core/reactor_common.c ****                     if (min_spacing > 0 ||
 2536              		.loc 1 1009 21 discriminator 3 view .LVU713
1009:src-gen/Main/core/reactor_common.c ****                     if (min_spacing > 0 ||
 2537              		.loc 1 1009 21 discriminator 3 view .LVU714
1010:src-gen/Main/core/reactor_common.c ****                             pqueue_find_equal_same_priority(env->event_q, existing) != NULL) {
 2538              		.loc 1 1010 21 discriminator 3 view .LVU715
1010:src-gen/Main/core/reactor_common.c ****                             pqueue_find_equal_same_priority(env->event_q, existing) != NULL) {
 2539              		.loc 1 1010 24 is_stmt 0 discriminator 3 view .LVU716
 2540 01f0 039B     		ldr	r3, [sp, #12]
 2541 01f2 012B     		cmp	r3, #1
 2542 01f4 049B     		ldr	r3, [sp, #16]
 2543 01f6 73F10003 		sbcs	r3, r3, #0
 2544 01fa 0CDB     		blt	.L225
 2545              	.L201:
1013:src-gen/Main/core/reactor_common.c ****                             _lf_done_using(token);
 2546              		.loc 1 1013 25 is_stmt 1 view .LVU717
1013:src-gen/Main/core/reactor_common.c ****                             _lf_done_using(token);
 2547              		.loc 1 1013 37 is_stmt 0 view .LVU718
 2548 01fc D8F81030 		ldr	r3, [r8, #16]
1013:src-gen/Main/core/reactor_common.c ****                             _lf_done_using(token);
 2549              		.loc 1 1013 28 view .LVU719
 2550 0200 5B45     		cmp	r3, fp
 2551 0202 02D0     		beq	.L202
1014:src-gen/Main/core/reactor_common.c ****                         }
 2552              		.loc 1 1014 29 is_stmt 1 view .LVU720
 2553 0204 5846     		mov	r0, fp
 2554 0206 FFF7FEFF 		bl	_lf_done_using
 2555              	.LVL249:
 2556              	.L202:
1016:src-gen/Main/core/reactor_common.c ****                         return(0);
ARM GAS  /var/folders/2h/lww79zv53b510qlyvytqnvq40000gn/T//ccDbZlJP.s 			page 75


 2557              		.loc 1 1016 25 view .LVU721
 2558 020a 3946     		mov	r1, r7
 2559 020c 2046     		mov	r0, r4
 2560 020e FFF7FEFF 		bl	_lf_recycle_event
 2561              	.LVL250:
1017:src-gen/Main/core/reactor_common.c ****                     }
 2562              		.loc 1 1017 25 view .LVU722
1017:src-gen/Main/core/reactor_common.c ****                     }
 2563              		.loc 1 1017 31 is_stmt 0 view .LVU723
 2564 0212 0020     		movs	r0, #0
 2565 0214 8BE7     		b	.L181
 2566              	.L225:
1011:src-gen/Main/core/reactor_common.c ****                         // Recycle the new event and the token.
 2567              		.loc 1 1011 29 discriminator 1 view .LVU724
 2568 0216 4146     		mov	r1, r8
 2569 0218 A06A     		ldr	r0, [r4, #40]
 2570 021a FFF7FEFF 		bl	pqueue_find_equal_same_priority
 2571              	.LVL251:
1010:src-gen/Main/core/reactor_common.c ****                             pqueue_find_equal_same_priority(env->event_q, existing) != NULL) {
 2572              		.loc 1 1010 41 discriminator 1 view .LVU725
 2573 021e 0028     		cmp	r0, #0
 2574 0220 ECD1     		bne	.L201
 2575              	.L199:
1020:src-gen/Main/core/reactor_common.c ****                     // If the existing event has not been handled yet, update
 2576              		.loc 1 1020 21 is_stmt 1 discriminator 3 view .LVU726
1020:src-gen/Main/core/reactor_common.c ****                     // If the existing event has not been handled yet, update
 2577              		.loc 1 1020 21 discriminator 3 view .LVU727
1020:src-gen/Main/core/reactor_common.c ****                     // If the existing event has not been handled yet, update
 2578              		.loc 1 1020 21 discriminator 3 view .LVU728
1030:src-gen/Main/core/reactor_common.c ****                             (existing->time == env->current_tag.time &&
 2579              		.loc 1 1030 21 discriminator 3 view .LVU729
1030:src-gen/Main/core/reactor_common.c ****                             (existing->time == env->current_tag.time &&
 2580              		.loc 1 1030 33 is_stmt 0 discriminator 3 view .LVU730
 2581 0222 D8F80000 		ldr	r0, [r8]
 2582 0226 D8F80420 		ldr	r2, [r8, #4]
1030:src-gen/Main/core/reactor_common.c ****                             (existing->time == env->current_tag.time &&
 2583              		.loc 1 1030 58 discriminator 3 view .LVU731
 2584 022a A168     		ldr	r1, [r4, #8]
 2585 022c E368     		ldr	r3, [r4, #12]
1030:src-gen/Main/core/reactor_common.c ****                             (existing->time == env->current_tag.time &&
 2586              		.loc 1 1030 24 discriminator 3 view .LVU732
 2587 022e 8142     		cmp	r1, r0
 2588 0230 73EB0206 		sbcs	r6, r3, r2
 2589              	.LVL252:
1030:src-gen/Main/core/reactor_common.c ****                             (existing->time == env->current_tag.time &&
 2590              		.loc 1 1030 24 discriminator 3 view .LVU733
 2591 0234 0CDB     		blt	.L203
1030:src-gen/Main/core/reactor_common.c ****                             (existing->time == env->current_tag.time &&
 2592              		.loc 1 1030 64 discriminator 1 view .LVU734
 2593 0236 9A42     		cmp	r2, r3
 2594 0238 08BF     		it	eq
 2595 023a 8842     		cmpeq	r0, r1
 2596 023c 03D0     		beq	.L226
1041:src-gen/Main/core/reactor_common.c ****                     break;
 2597              		.loc 1 1041 35 view .LVU735
 2598 023e 5646     		mov	r6, r10
 2599 0240 DDF81490 		ldr	r9, [sp, #20]
ARM GAS  /var/folders/2h/lww79zv53b510qlyvytqnvq40000gn/T//ccDbZlJP.s 			page 76


 2600 0244 57E7     		b	.L197
 2601              	.L226:
1032:src-gen/Main/core/reactor_common.c ****                         // Recycle the existing token and the new event
 2602              		.loc 1 1032 29 view .LVU736
 2603 0246 4146     		mov	r1, r8
 2604 0248 A06A     		ldr	r0, [r4, #40]
 2605 024a FFF7FEFF 		bl	pqueue_find_equal_same_priority
 2606              	.LVL253:
1031:src-gen/Main/core/reactor_common.c ****                             pqueue_find_equal_same_priority(env->event_q, existing) != NULL)) {
 2607              		.loc 1 1031 70 view .LVU737
 2608 024e 50B3     		cbz	r0, .L208
 2609              	.L203:
1035:src-gen/Main/core/reactor_common.c ****                         _lf_recycle_event(env, e);
 2610              		.loc 1 1035 25 is_stmt 1 view .LVU738
 2611 0250 5946     		mov	r1, fp
 2612 0252 4046     		mov	r0, r8
 2613 0254 FFF7FEFF 		bl	_lf_replace_token
 2614              	.LVL254:
1036:src-gen/Main/core/reactor_common.c ****                         return(0);
 2615              		.loc 1 1036 25 view .LVU739
 2616 0258 3946     		mov	r1, r7
 2617 025a 2046     		mov	r0, r4
 2618 025c FFF7FEFF 		bl	_lf_recycle_event
 2619              	.LVL255:
1037:src-gen/Main/core/reactor_common.c ****                     }
 2620              		.loc 1 1037 25 view .LVU740
1037:src-gen/Main/core/reactor_common.c ****                     }
 2621              		.loc 1 1037 31 is_stmt 0 view .LVU741
 2622 0260 0020     		movs	r0, #0
 2623 0262 64E7     		b	.L181
 2624              	.LVL256:
 2625              	.L220:
1045:src-gen/Main/core/reactor_common.c ****                         if (_lf_is_tag_after_stop_tag(env, (tag_t){.time=existing->time,.microstep=
 2626              		.loc 1 1045 29 discriminator 1 view .LVU742
 2627 0264 4146     		mov	r1, r8
 2628 0266 A06A     		ldr	r0, [r4, #40]
 2629 0268 FFF7FEFF 		bl	pqueue_find_equal_same_priority
 2630              	.LVL257:
1044:src-gen/Main/core/reactor_common.c ****                             pqueue_find_equal_same_priority(env->event_q, existing) != NULL) {
 2631              		.loc 1 1044 65 discriminator 1 view .LVU743
 2632 026c F8B1     		cbz	r0, .L210
1046:src-gen/Main/core/reactor_common.c ****                             // Scheduling e will incur a microstep at timeout, 
 2633              		.loc 1 1046 25 is_stmt 1 view .LVU744
 2634              	.LBB29:
1046:src-gen/Main/core/reactor_common.c ****                             // Scheduling e will incur a microstep at timeout, 
 2635              		.loc 1 1046 82 is_stmt 0 view .LVU745
 2636 026e D8E90023 		ldrd	r2, [r8]
1046:src-gen/Main/core/reactor_common.c ****                             // Scheduling e will incur a microstep at timeout, 
 2637              		.loc 1 1046 67 view .LVU746
 2638 0272 CDE90A23 		strd	r2, [sp, #40]
1046:src-gen/Main/core/reactor_common.c ****                             // Scheduling e will incur a microstep at timeout, 
 2639              		.loc 1 1046 116 view .LVU747
 2640 0276 2369     		ldr	r3, [r4, #16]
1046:src-gen/Main/core/reactor_common.c ****                             // Scheduling e will incur a microstep at timeout, 
 2641              		.loc 1 1046 126 view .LVU748
 2642 0278 0133     		adds	r3, r3, #1
1046:src-gen/Main/core/reactor_common.c ****                             // Scheduling e will incur a microstep at timeout, 
ARM GAS  /var/folders/2h/lww79zv53b510qlyvytqnvq40000gn/T//ccDbZlJP.s 			page 77


 2643              		.loc 1 1046 67 view .LVU749
 2644 027a 0C93     		str	r3, [sp, #48]
1046:src-gen/Main/core/reactor_common.c ****                             // Scheduling e will incur a microstep at timeout, 
 2645              		.loc 1 1046 29 view .LVU750
 2646 027c 0EAB     		add	r3, sp, #56
 2647 027e 13E90300 		ldmdb	r3, {r0, r1}
 2648 0282 8DE80300 		stm	sp, {r0, r1}
 2649 0286 0AAB     		add	r3, sp, #40
 2650 0288 0CCB     		ldm	r3, {r2, r3}
 2651 028a 2046     		mov	r0, r4
 2652 028c FFF7FEFF 		bl	_lf_is_tag_after_stop_tag
 2653              	.LVL258:
1046:src-gen/Main/core/reactor_common.c ****                             // Scheduling e will incur a microstep at timeout, 
 2654              		.loc 1 1046 28 view .LVU751
 2655 0290 18B9     		cbnz	r0, .L227
 2656              	.LBE29:
1054:src-gen/Main/core/reactor_common.c ****                         return 0; // FIXME: return a value
 2657              		.loc 1 1054 25 is_stmt 1 view .LVU752
1054:src-gen/Main/core/reactor_common.c ****                         return 0; // FIXME: return a value
 2658              		.loc 1 1054 40 is_stmt 0 view .LVU753
 2659 0292 C8F81870 		str	r7, [r8, #24]
1055:src-gen/Main/core/reactor_common.c ****                     } else {
 2660              		.loc 1 1055 25 is_stmt 1 view .LVU754
1055:src-gen/Main/core/reactor_common.c ****                     } else {
 2661              		.loc 1 1055 32 is_stmt 0 view .LVU755
 2662 0296 0020     		movs	r0, #0
 2663 0298 49E7     		b	.L181
 2664              	.L227:
 2665              	.LBB30:
1049:src-gen/Main/core/reactor_common.c ****                             return 0;
 2666              		.loc 1 1049 29 is_stmt 1 view .LVU756
 2667 029a 3946     		mov	r1, r7
 2668 029c 2046     		mov	r0, r4
 2669 029e FFF7FEFF 		bl	_lf_recycle_event
 2670              	.LVL259:
1050:src-gen/Main/core/reactor_common.c ****                         }
 2671              		.loc 1 1050 29 view .LVU757
1050:src-gen/Main/core/reactor_common.c ****                         }
 2672              		.loc 1 1050 36 is_stmt 0 view .LVU758
 2673 02a2 0020     		movs	r0, #0
 2674 02a4 43E7     		b	.L181
 2675              	.LVL260:
 2676              	.L208:
1050:src-gen/Main/core/reactor_common.c ****                         }
 2677              		.loc 1 1050 36 view .LVU759
 2678              	.LBE30:
1041:src-gen/Main/core/reactor_common.c ****                     break;
 2679              		.loc 1 1041 35 view .LVU760
 2680 02a6 5646     		mov	r6, r10
 2681 02a8 DDF81490 		ldr	r9, [sp, #20]
 2682 02ac 23E7     		b	.L197
 2683              	.LVL261:
 2684              	.L210:
1058:src-gen/Main/core/reactor_common.c ****                     }
 2685              		.loc 1 1058 39 view .LVU761
 2686 02ae 5646     		mov	r6, r10
 2687              	.LVL262:
ARM GAS  /var/folders/2h/lww79zv53b510qlyvytqnvq40000gn/T//ccDbZlJP.s 			page 78


1058:src-gen/Main/core/reactor_common.c ****                     }
 2688              		.loc 1 1058 39 view .LVU762
 2689 02b0 DDF81490 		ldr	r9, [sp, #20]
 2690 02b4 1FE7     		b	.L197
 2691              	.LVL263:
 2692              	.L221:
1058:src-gen/Main/core/reactor_common.c ****                     }
 2693              		.loc 1 1058 39 view .LVU763
 2694              	.LBE32:
1071:src-gen/Main/core/reactor_common.c ****                 "Revising to the current time " PRINTF_TIME ".",
 2695              		.loc 1 1071 9 is_stmt 1 view .LVU764
 2696 02b6 8A1B     		subs	r2, r1, r6
 2697 02b8 0091     		str	r1, [sp]
 2698 02ba 0193     		str	r3, [sp, #4]
 2699 02bc 63EB0903 		sbc	r3, r3, r9
 2700 02c0 0E48     		ldr	r0, .L228+20
 2701 02c2 FFF7FEFF 		bl	lf_print_error
 2702              	.LVL264:
1074:src-gen/Main/core/reactor_common.c ****     }
 2703              		.loc 1 1074 9 view .LVU765
1074:src-gen/Main/core/reactor_common.c ****     }
 2704              		.loc 1 1074 23 is_stmt 0 view .LVU766
 2705 02c6 A668     		ldr	r6, [r4, #8]
 2706              	.LVL265:
1074:src-gen/Main/core/reactor_common.c ****     }
 2707              		.loc 1 1074 23 view .LVU767
 2708 02c8 D4F80C90 		ldr	r9, [r4, #12]
 2709              	.LVL266:
1074:src-gen/Main/core/reactor_common.c ****     }
 2710              		.loc 1 1074 23 view .LVU768
 2711 02cc 1AE7     		b	.L205
 2712              	.L222:
1085:src-gen/Main/core/reactor_common.c ****         _lf_done_using(token);
 2713              		.loc 1 1085 9 is_stmt 1 discriminator 3 view .LVU769
1085:src-gen/Main/core/reactor_common.c ****         _lf_done_using(token);
 2714              		.loc 1 1085 9 discriminator 3 view .LVU770
1085:src-gen/Main/core/reactor_common.c ****         _lf_done_using(token);
 2715              		.loc 1 1085 9 discriminator 3 view .LVU771
1086:src-gen/Main/core/reactor_common.c ****         _lf_recycle_event(env, e);
 2716              		.loc 1 1086 9 discriminator 3 view .LVU772
 2717 02ce 5846     		mov	r0, fp
 2718 02d0 FFF7FEFF 		bl	_lf_done_using
 2719              	.LVL267:
1087:src-gen/Main/core/reactor_common.c ****         return(0);
 2720              		.loc 1 1087 9 discriminator 3 view .LVU773
 2721 02d4 3946     		mov	r1, r7
 2722 02d6 2046     		mov	r0, r4
 2723 02d8 FFF7FEFF 		bl	_lf_recycle_event
 2724              	.LVL268:
1088:src-gen/Main/core/reactor_common.c ****     }
 2725              		.loc 1 1088 9 discriminator 3 view .LVU774
1088:src-gen/Main/core/reactor_common.c ****     }
 2726              		.loc 1 1088 15 is_stmt 0 discriminator 3 view .LVU775
 2727 02dc 0020     		movs	r0, #0
 2728 02de 26E7     		b	.L181
 2729              	.LVL269:
 2730              	.L223:
ARM GAS  /var/folders/2h/lww79zv53b510qlyvytqnvq40000gn/T//ccDbZlJP.s 			page 79


1115:src-gen/Main/core/reactor_common.c ****     }
 2731              		.loc 1 1115 9 is_stmt 1 view .LVU776
1115:src-gen/Main/core/reactor_common.c ****     }
 2732              		.loc 1 1115 25 is_stmt 0 view .LVU777
 2733 02e0 0123     		movs	r3, #1
 2734 02e2 A365     		str	r3, [r4, #88]
 2735 02e4 23E7     		b	.L181
 2736              	.L229:
 2737 02e6 00BF     		.align	2
 2738              	.L228:
 2739 02e8 00000000 		.word	.LC0
 2740 02ec 00000000 		.word	__func__.4
 2741 02f0 1C000000 		.word	.LC1
 2742 02f4 00000000 		.word	.LC6
 2743 02f8 28000000 		.word	.LC7
 2744 02fc 70000000 		.word	.LC8
 2745              		.cfi_endproc
 2746              	.LFE153:
 2748              		.section	.text._lf_pop_events,"ax",%progbits
 2749              		.align	1
 2750              		.global	_lf_pop_events
 2751              		.syntax unified
 2752              		.thumb
 2753              		.thumb_func
 2755              	_lf_pop_events:
 2756              	.LVL270:
 2757              	.LFB143:
 329:src-gen/Main/core/reactor_common.c ****     assert(env != GLOBAL_ENVIRONMENT);
 2758              		.loc 1 329 41 is_stmt 1 view -0
 2759              		.cfi_startproc
 2760              		@ args = 0, pretend = 0, frame = 0
 2761              		@ frame_needed = 0, uses_anonymous_args = 0
 329:src-gen/Main/core/reactor_common.c ****     assert(env != GLOBAL_ENVIRONMENT);
 2762              		.loc 1 329 41 is_stmt 0 view .LVU779
 2763 0000 F0B5     		push	{r4, r5, r6, r7, lr}
 2764              	.LCFI40:
 2765              		.cfi_def_cfa_offset 20
 2766              		.cfi_offset 4, -20
 2767              		.cfi_offset 5, -16
 2768              		.cfi_offset 6, -12
 2769              		.cfi_offset 7, -8
 2770              		.cfi_offset 14, -4
 2771 0002 83B0     		sub	sp, sp, #12
 2772              	.LCFI41:
 2773              		.cfi_def_cfa_offset 32
 330:src-gen/Main/core/reactor_common.c **** #ifdef MODAL_REACTORS
 2774              		.loc 1 330 5 is_stmt 1 view .LVU780
 2775 0004 20B1     		cbz	r0, .L246
 2776 0006 0646     		mov	r6, r0
 335:src-gen/Main/core/reactor_common.c ****     while(event != NULL && event->time == env->current_tag.time) {
 2777              		.loc 1 335 5 view .LVU781
 335:src-gen/Main/core/reactor_common.c ****     while(event != NULL && event->time == env->current_tag.time) {
 2778              		.loc 1 335 32 is_stmt 0 view .LVU782
 2779 0008 806A     		ldr	r0, [r0, #40]
 2780              	.LVL271:
 335:src-gen/Main/core/reactor_common.c ****     while(event != NULL && event->time == env->current_tag.time) {
 2781              		.loc 1 335 32 view .LVU783
ARM GAS  /var/folders/2h/lww79zv53b510qlyvytqnvq40000gn/T//ccDbZlJP.s 			page 80


 2782 000a FFF7FEFF 		bl	pqueue_peek
 2783              	.LVL272:
 336:src-gen/Main/core/reactor_common.c ****         event = (event_t*)pqueue_pop(env->event_q);
 2784              		.loc 1 336 5 is_stmt 1 view .LVU784
 336:src-gen/Main/core/reactor_common.c ****         event = (event_t*)pqueue_pop(env->event_q);
 2785              		.loc 1 336 10 is_stmt 0 view .LVU785
 2786 000e 0DE0     		b	.L232
 2787              	.LVL273:
 2788              	.L246:
 330:src-gen/Main/core/reactor_common.c **** #ifdef MODAL_REACTORS
 2789              		.loc 1 330 5 discriminator 1 view .LVU786
 2790 0010 394B     		ldr	r3, .L249
 2791 0012 3A4A     		ldr	r2, .L249+4
 2792 0014 4FF4A571 		mov	r1, #330
 2793 0018 3948     		ldr	r0, .L249+8
 2794              	.LVL274:
 330:src-gen/Main/core/reactor_common.c **** #ifdef MODAL_REACTORS
 2795              		.loc 1 330 5 discriminator 1 view .LVU787
 2796 001a FFF7FEFF 		bl	__assert_func
 2797              	.LVL275:
 2798              	.L234:
 2799              	.LBB33:
 345:src-gen/Main/core/reactor_common.c ****             // Peek at the next event in the event queue.
 2800              		.loc 1 345 13 is_stmt 1 view .LVU788
 2801 001e 2946     		mov	r1, r5
 2802 0020 3046     		mov	r0, r6
 2803 0022 FFF7FEFF 		bl	_lf_recycle_event
 2804              	.LVL276:
 347:src-gen/Main/core/reactor_common.c ****             continue;
 2805              		.loc 1 347 13 view .LVU789
 347:src-gen/Main/core/reactor_common.c ****             continue;
 2806              		.loc 1 347 31 is_stmt 0 view .LVU790
 2807 0026 B06A     		ldr	r0, [r6, #40]
 2808 0028 FFF7FEFF 		bl	pqueue_peek
 2809              	.LVL277:
 348:src-gen/Main/core/reactor_common.c ****         }
 2810              		.loc 1 348 13 is_stmt 1 view .LVU791
 2811              	.L232:
 348:src-gen/Main/core/reactor_common.c ****         }
 2812              		.loc 1 348 13 is_stmt 0 view .LVU792
 2813              	.LBE33:
 336:src-gen/Main/core/reactor_common.c ****         event = (event_t*)pqueue_pop(env->event_q);
 2814              		.loc 1 336 25 is_stmt 1 view .LVU793
 2815 002c 0028     		cmp	r0, #0
 2816 002e 5BD0     		beq	.L243
 336:src-gen/Main/core/reactor_common.c ****         event = (event_t*)pqueue_pop(env->event_q);
 2817              		.loc 1 336 33 is_stmt 0 discriminator 1 view .LVU794
 2818 0030 0468     		ldr	r4, [r0]
 2819 0032 4268     		ldr	r2, [r0, #4]
 336:src-gen/Main/core/reactor_common.c ****         event = (event_t*)pqueue_pop(env->event_q);
 2820              		.loc 1 336 59 discriminator 1 view .LVU795
 2821 0034 B168     		ldr	r1, [r6, #8]
 2822 0036 F368     		ldr	r3, [r6, #12]
 336:src-gen/Main/core/reactor_common.c ****         event = (event_t*)pqueue_pop(env->event_q);
 2823              		.loc 1 336 25 discriminator 1 view .LVU796
 2824 0038 9A42     		cmp	r2, r3
 2825 003a 08BF     		it	eq
ARM GAS  /var/folders/2h/lww79zv53b510qlyvytqnvq40000gn/T//ccDbZlJP.s 			page 81


 2826 003c 8C42     		cmpeq	r4, r1
 2827 003e 53D1     		bne	.L243
 2828              	.LBB37:
 337:src-gen/Main/core/reactor_common.c **** 
 2829              		.loc 1 337 9 is_stmt 1 view .LVU797
 337:src-gen/Main/core/reactor_common.c **** 
 2830              		.loc 1 337 27 is_stmt 0 view .LVU798
 2831 0040 B06A     		ldr	r0, [r6, #40]
 2832              	.LVL278:
 337:src-gen/Main/core/reactor_common.c **** 
 2833              		.loc 1 337 27 view .LVU799
 2834 0042 FFF7FEFF 		bl	pqueue_pop
 2835              	.LVL279:
 2836 0046 0546     		mov	r5, r0
 2837              	.LVL280:
 339:src-gen/Main/core/reactor_common.c ****             LF_PRINT_DEBUG("Popped dummy event from the event queue.");
 2838              		.loc 1 339 9 is_stmt 1 view .LVU800
 339:src-gen/Main/core/reactor_common.c ****             LF_PRINT_DEBUG("Popped dummy event from the event queue.");
 2839              		.loc 1 339 18 is_stmt 0 view .LVU801
 2840 0048 037D     		ldrb	r3, [r0, #20]	@ zero_extendqisi2
 339:src-gen/Main/core/reactor_common.c ****             LF_PRINT_DEBUG("Popped dummy event from the event queue.");
 2841              		.loc 1 339 12 view .LVU802
 2842 004a 33B1     		cbz	r3, .L233
 340:src-gen/Main/core/reactor_common.c ****             if (event->next != NULL) {
 2843              		.loc 1 340 13 is_stmt 1 discriminator 3 view .LVU803
 340:src-gen/Main/core/reactor_common.c ****             if (event->next != NULL) {
 2844              		.loc 1 340 13 discriminator 3 view .LVU804
 340:src-gen/Main/core/reactor_common.c ****             if (event->next != NULL) {
 2845              		.loc 1 340 13 discriminator 3 view .LVU805
 341:src-gen/Main/core/reactor_common.c ****                 LF_PRINT_DEBUG("Putting event from the event queue for the next microstep.");
 2846              		.loc 1 341 13 discriminator 3 view .LVU806
 341:src-gen/Main/core/reactor_common.c ****                 LF_PRINT_DEBUG("Putting event from the event queue for the next microstep.");
 2847              		.loc 1 341 22 is_stmt 0 discriminator 3 view .LVU807
 2848 004c 8169     		ldr	r1, [r0, #24]
 341:src-gen/Main/core/reactor_common.c ****                 LF_PRINT_DEBUG("Putting event from the event queue for the next microstep.");
 2849              		.loc 1 341 16 discriminator 3 view .LVU808
 2850 004e 0029     		cmp	r1, #0
 2851 0050 E5D0     		beq	.L234
 342:src-gen/Main/core/reactor_common.c ****                 pqueue_insert(env->next_q, event->next);
 2852              		.loc 1 342 17 is_stmt 1 discriminator 3 view .LVU809
 342:src-gen/Main/core/reactor_common.c ****                 pqueue_insert(env->next_q, event->next);
 2853              		.loc 1 342 17 discriminator 3 view .LVU810
 342:src-gen/Main/core/reactor_common.c ****                 pqueue_insert(env->next_q, event->next);
 2854              		.loc 1 342 17 discriminator 3 view .LVU811
 343:src-gen/Main/core/reactor_common.c ****             }
 2855              		.loc 1 343 17 discriminator 3 view .LVU812
 2856 0052 306B     		ldr	r0, [r6, #48]
 2857              	.LVL281:
 343:src-gen/Main/core/reactor_common.c ****             }
 2858              		.loc 1 343 17 is_stmt 0 discriminator 3 view .LVU813
 2859 0054 FFF7FEFF 		bl	pqueue_insert
 2860              	.LVL282:
 2861 0058 E1E7     		b	.L234
 2862              	.LVL283:
 2863              	.L233:
 359:src-gen/Main/core/reactor_common.c **** 
 2864              		.loc 1 359 9 is_stmt 1 view .LVU814
ARM GAS  /var/folders/2h/lww79zv53b510qlyvytqnvq40000gn/T//ccDbZlJP.s 			page 82


 359:src-gen/Main/core/reactor_common.c **** 
 2865              		.loc 1 359 21 is_stmt 0 view .LVU815
 2866 005a 0769     		ldr	r7, [r0, #16]
 2867              	.LVL284:
 362:src-gen/Main/core/reactor_common.c ****             reaction_t *reaction = event->trigger->reactions[i];
 2868              		.loc 1 362 9 is_stmt 1 view .LVU816
 2869              	.LBB34:
 362:src-gen/Main/core/reactor_common.c ****             reaction_t *reaction = event->trigger->reactions[i];
 2870              		.loc 1 362 14 view .LVU817
 362:src-gen/Main/core/reactor_common.c ****             reaction_t *reaction = event->trigger->reactions[i];
 2871              		.loc 1 362 18 is_stmt 0 view .LVU818
 2872 005c 0024     		movs	r4, #0
 362:src-gen/Main/core/reactor_common.c ****             reaction_t *reaction = event->trigger->reactions[i];
 2873              		.loc 1 362 9 view .LVU819
 2874 005e 00E0     		b	.L236
 2875              	.LVL285:
 2876              	.L237:
 2877              	.LBB35:
 399:src-gen/Main/core/reactor_common.c ****             }
 2878              		.loc 1 399 17 is_stmt 1 discriminator 3 view .LVU820
 2879              	.LBE35:
 362:src-gen/Main/core/reactor_common.c ****             reaction_t *reaction = event->trigger->reactions[i];
 2880              		.loc 1 362 67 discriminator 3 view .LVU821
 2881 0060 0134     		adds	r4, r4, #1
 2882              	.LVL286:
 2883              	.L236:
 362:src-gen/Main/core/reactor_common.c ****             reaction_t *reaction = event->trigger->reactions[i];
 2884              		.loc 1 362 27 discriminator 2 view .LVU822
 362:src-gen/Main/core/reactor_common.c ****             reaction_t *reaction = event->trigger->reactions[i];
 2885              		.loc 1 362 34 is_stmt 0 discriminator 2 view .LVU823
 2886 0062 AB68     		ldr	r3, [r5, #8]
 362:src-gen/Main/core/reactor_common.c ****             reaction_t *reaction = event->trigger->reactions[i];
 2887              		.loc 1 362 43 discriminator 2 view .LVU824
 2888 0064 9A69     		ldr	r2, [r3, #24]
 362:src-gen/Main/core/reactor_common.c ****             reaction_t *reaction = event->trigger->reactions[i];
 2889              		.loc 1 362 27 discriminator 2 view .LVU825
 2890 0066 A242     		cmp	r2, r4
 2891 0068 0CDD     		ble	.L247
 2892              	.LBB36:
 363:src-gen/Main/core/reactor_common.c ****             // Do not enqueue this reaction twice.
 2893              		.loc 1 363 13 is_stmt 1 view .LVU826
 363:src-gen/Main/core/reactor_common.c ****             // Do not enqueue this reaction twice.
 2894              		.loc 1 363 50 is_stmt 0 view .LVU827
 2895 006a 5B69     		ldr	r3, [r3, #20]
 363:src-gen/Main/core/reactor_common.c ****             // Do not enqueue this reaction twice.
 2896              		.loc 1 363 25 view .LVU828
 2897 006c 53F82410 		ldr	r1, [r3, r4, lsl #2]
 2898              	.LVL287:
 365:src-gen/Main/core/reactor_common.c **** #ifdef FEDERATED_DECENTRALIZED
 2899              		.loc 1 365 13 is_stmt 1 view .LVU829
 365:src-gen/Main/core/reactor_common.c **** #ifdef FEDERATED_DECENTRALIZED
 2900              		.loc 1 365 25 is_stmt 0 view .LVU830
 2901 0070 91F83830 		ldrb	r3, [r1, #56]	@ zero_extendqisi2
 365:src-gen/Main/core/reactor_common.c **** #ifdef FEDERATED_DECENTRALIZED
 2902              		.loc 1 365 16 view .LVU831
 2903 0074 002B     		cmp	r3, #0
 2904 0076 F3D1     		bne	.L237
ARM GAS  /var/folders/2h/lww79zv53b510qlyvytqnvq40000gn/T//ccDbZlJP.s 			page 83


 396:src-gen/Main/core/reactor_common.c ****                 _lf_trigger_reaction(env, reaction, -1);
 2905              		.loc 1 396 17 is_stmt 1 discriminator 3 view .LVU832
 396:src-gen/Main/core/reactor_common.c ****                 _lf_trigger_reaction(env, reaction, -1);
 2906              		.loc 1 396 17 discriminator 3 view .LVU833
 396:src-gen/Main/core/reactor_common.c ****                 _lf_trigger_reaction(env, reaction, -1);
 2907              		.loc 1 396 17 discriminator 3 view .LVU834
 397:src-gen/Main/core/reactor_common.c ****             } else {
 2908              		.loc 1 397 17 discriminator 3 view .LVU835
 2909 0078 4FF0FF32 		mov	r2, #-1
 2910 007c 3046     		mov	r0, r6
 2911 007e FFF7FEFF 		bl	_lf_trigger_reaction
 2912              	.LVL288:
 397:src-gen/Main/core/reactor_common.c ****             } else {
 2913              		.loc 1 397 17 is_stmt 0 discriminator 3 view .LVU836
 2914 0082 EDE7     		b	.L237
 2915              	.LVL289:
 2916              	.L247:
 397:src-gen/Main/core/reactor_common.c ****             } else {
 2917              		.loc 1 397 17 discriminator 3 view .LVU837
 2918              	.LBE36:
 2919              	.LBE34:
 404:src-gen/Main/core/reactor_common.c **** 
 2920              		.loc 1 404 9 is_stmt 1 view .LVU838
 404:src-gen/Main/core/reactor_common.c **** 
 2921              		.loc 1 404 32 is_stmt 0 view .LVU839
 2922 0084 0122     		movs	r2, #1
 2923 0086 83F83920 		strb	r2, [r3, #57]
 407:src-gen/Main/core/reactor_common.c ****             // Reschedule the trigger.
 2924              		.loc 1 407 9 is_stmt 1 view .LVU840
 407:src-gen/Main/core/reactor_common.c ****             // Reschedule the trigger.
 2925              		.loc 1 407 18 is_stmt 0 view .LVU841
 2926 008a A968     		ldr	r1, [r5, #8]
 407:src-gen/Main/core/reactor_common.c ****             // Reschedule the trigger.
 2927              		.loc 1 407 27 view .LVU842
 2928 008c 0B7F     		ldrb	r3, [r1, #28]	@ zero_extendqisi2
 407:src-gen/Main/core/reactor_common.c ****             // Reschedule the trigger.
 2929              		.loc 1 407 12 view .LVU843
 2930 008e 2BB1     		cbz	r3, .L239
 407:src-gen/Main/core/reactor_common.c ****             // Reschedule the trigger.
 2931              		.loc 1 407 55 discriminator 1 view .LVU844
 2932 0090 8A6A     		ldr	r2, [r1, #40]
 2933 0092 CB6A     		ldr	r3, [r1, #44]
 407:src-gen/Main/core/reactor_common.c ****             // Reschedule the trigger.
 2934              		.loc 1 407 38 discriminator 1 view .LVU845
 2935 0094 012A     		cmp	r2, #1
 2936 0096 73F10000 		sbcs	r0, r3, #0
 2937 009a 17DA     		bge	.L248
 2938              	.L239:
 415:src-gen/Main/core/reactor_common.c **** 
 2939              		.loc 1 415 9 is_stmt 1 view .LVU846
 2940 009c 3946     		mov	r1, r7
 2941 009e A868     		ldr	r0, [r5, #8]
 2942 00a0 FFF7FEFF 		bl	_lf_replace_template_token
 2943              	.LVL290:
 421:src-gen/Main/core/reactor_common.c **** 
 2944              		.loc 1 421 9 view .LVU847
 2945 00a4 3846     		mov	r0, r7
ARM GAS  /var/folders/2h/lww79zv53b510qlyvytqnvq40000gn/T//ccDbZlJP.s 			page 84


 2946 00a6 FFF7FEFF 		bl	_lf_done_using
 2947              	.LVL291:
 424:src-gen/Main/core/reactor_common.c **** 
 2948              		.loc 1 424 9 view .LVU848
 424:src-gen/Main/core/reactor_common.c **** 
 2949              		.loc 1 424 14 is_stmt 0 view .LVU849
 2950 00aa AB68     		ldr	r3, [r5, #8]
 424:src-gen/Main/core/reactor_common.c **** 
 2951              		.loc 1 424 32 view .LVU850
 2952 00ac 0122     		movs	r2, #1
 2953 00ae 83F83920 		strb	r2, [r3, #57]
 427:src-gen/Main/core/reactor_common.c ****             // Insert the next event into the next queue.
 2954              		.loc 1 427 9 is_stmt 1 view .LVU851
 427:src-gen/Main/core/reactor_common.c ****             // Insert the next event into the next queue.
 2955              		.loc 1 427 18 is_stmt 0 view .LVU852
 2956 00b2 A969     		ldr	r1, [r5, #24]
 427:src-gen/Main/core/reactor_common.c ****             // Insert the next event into the next queue.
 2957              		.loc 1 427 12 view .LVU853
 2958 00b4 11B1     		cbz	r1, .L240
 429:src-gen/Main/core/reactor_common.c ****         }
 2959              		.loc 1 429 13 is_stmt 1 view .LVU854
 2960 00b6 306B     		ldr	r0, [r6, #48]
 2961 00b8 FFF7FEFF 		bl	pqueue_insert
 2962              	.LVL292:
 2963              	.L240:
 432:src-gen/Main/core/reactor_common.c **** 
 2964              		.loc 1 432 9 view .LVU855
 2965 00bc 2946     		mov	r1, r5
 2966 00be 3046     		mov	r0, r6
 2967 00c0 FFF7FEFF 		bl	_lf_recycle_event
 2968              	.LVL293:
 435:src-gen/Main/core/reactor_common.c ****     };
 2969              		.loc 1 435 9 view .LVU856
 435:src-gen/Main/core/reactor_common.c ****     };
 2970              		.loc 1 435 27 is_stmt 0 view .LVU857
 2971 00c4 B06A     		ldr	r0, [r6, #40]
 2972 00c6 FFF7FEFF 		bl	pqueue_peek
 2973              	.LVL294:
 435:src-gen/Main/core/reactor_common.c ****     };
 2974              		.loc 1 435 27 view .LVU858
 2975 00ca AFE7     		b	.L232
 2976              	.LVL295:
 2977              	.L248:
 409:src-gen/Main/core/reactor_common.c ****         }
 2978              		.loc 1 409 13 is_stmt 1 view .LVU859
 2979 00cc 0020     		movs	r0, #0
 2980 00ce 0090     		str	r0, [sp]
 2981 00d0 3046     		mov	r0, r6
 2982 00d2 FFF7FEFF 		bl	_lf_schedule
 2983              	.LVL296:
 2984 00d6 E1E7     		b	.L239
 2985              	.LVL297:
 2986              	.L244:
 409:src-gen/Main/core/reactor_common.c ****         }
 2987              		.loc 1 409 13 is_stmt 0 view .LVU860
 2988              	.LBE37:
 443:src-gen/Main/core/reactor_common.c ****     }
ARM GAS  /var/folders/2h/lww79zv53b510qlyvytqnvq40000gn/T//ccDbZlJP.s 			page 85


 2989              		.loc 1 443 9 is_stmt 1 view .LVU861
 2990 00d8 B46A     		ldr	r4, [r6, #40]
 2991 00da 306B     		ldr	r0, [r6, #48]
 2992 00dc FFF7FEFF 		bl	pqueue_pop
 2993              	.LVL298:
 2994 00e0 0146     		mov	r1, r0
 2995 00e2 2046     		mov	r0, r4
 2996 00e4 FFF7FEFF 		bl	pqueue_insert
 2997              	.LVL299:
 2998              	.L243:
 442:src-gen/Main/core/reactor_common.c ****         pqueue_insert(env->event_q, pqueue_pop(env->next_q));
 2999              		.loc 1 442 36 view .LVU862
 442:src-gen/Main/core/reactor_common.c ****         pqueue_insert(env->event_q, pqueue_pop(env->next_q));
 3000              		.loc 1 442 11 is_stmt 0 view .LVU863
 3001 00e8 306B     		ldr	r0, [r6, #48]
 3002 00ea FFF7FEFF 		bl	pqueue_peek
 3003              	.LVL300:
 442:src-gen/Main/core/reactor_common.c ****         pqueue_insert(env->event_q, pqueue_pop(env->next_q));
 3004              		.loc 1 442 36 view .LVU864
 3005 00ee 0028     		cmp	r0, #0
 3006 00f0 F2D1     		bne	.L244
 445:src-gen/Main/core/reactor_common.c **** 
 3007              		.loc 1 445 1 view .LVU865
 3008 00f2 03B0     		add	sp, sp, #12
 3009              	.LCFI42:
 3010              		.cfi_def_cfa_offset 20
 3011              		@ sp needed
 3012 00f4 F0BD     		pop	{r4, r5, r6, r7, pc}
 3013              	.LVL301:
 3014              	.L250:
 445:src-gen/Main/core/reactor_common.c **** 
 3015              		.loc 1 445 1 view .LVU866
 3016 00f6 00BF     		.align	2
 3017              	.L249:
 3018 00f8 00000000 		.word	.LC0
 3019 00fc 00000000 		.word	__func__.12
 3020 0100 1C000000 		.word	.LC1
 3021              		.cfi_endproc
 3022              	.LFE143:
 3024              		.section	.rodata._lf_insert_reactions_for_trigger.str1.4,"aMS",%progbits,1
 3025              		.align	2
 3026              	.LC9:
 3027 0000 5F6C665F 		.ascii	"_lf_schedule_init_reactions() called with a NULL tr"
 3027      73636865 
 3027      64756C65 
 3027      5F696E69 
 3027      745F7265 
 3028 0033 69676765 		.ascii	"igger\000"
 3028      7200
 3029 0039 000000   		.align	2
 3030              	.LC10:
 3031 003c 5F6C665F 		.ascii	"_lf_schedule_init_reactions() called on a timer or "
 3031      73636865 
 3031      64756C65 
 3031      5F696E69 
 3031      745F7265 
 3032 006f 70687973 		.ascii	"physical action.\000"
ARM GAS  /var/folders/2h/lww79zv53b510qlyvytqnvq40000gn/T//ccDbZlJP.s 			page 86


 3032      6963616C 
 3032      20616374 
 3032      696F6E2E 
 3032      00
 3033              		.section	.text._lf_insert_reactions_for_trigger,"ax",%progbits
 3034              		.align	1
 3035              		.global	_lf_insert_reactions_for_trigger
 3036              		.syntax unified
 3037              		.thumb
 3038              		.thumb_func
 3040              	_lf_insert_reactions_for_trigger:
 3041              	.LVL302:
 3042              	.LFB154:
1119:src-gen/Main/core/reactor_common.c **** 
1120:src-gen/Main/core/reactor_common.c **** /**
1121:src-gen/Main/core/reactor_common.c ****  * Insert reactions triggered by trigger to the reaction queue...
1122:src-gen/Main/core/reactor_common.c ****  *
1123:src-gen/Main/core/reactor_common.c ****  * @param env Environment in which we are executing.
1124:src-gen/Main/core/reactor_common.c ****  * @param trigger The trigger
1125:src-gen/Main/core/reactor_common.c ****  * @param token The token wrapping the payload or NULL for no payload.
1126:src-gen/Main/core/reactor_common.c ****  * @return 1 if successful, or 0 if no new reaction was scheduled because the function
1127:src-gen/Main/core/reactor_common.c ****  *  was called incorrectly.
1128:src-gen/Main/core/reactor_common.c ****  */
1129:src-gen/Main/core/reactor_common.c **** trigger_handle_t _lf_insert_reactions_for_trigger(environment_t* env, trigger_t* trigger, lf_token_
 3043              		.loc 1 1129 110 is_stmt 1 view -0
 3044              		.cfi_startproc
 3045              		@ args = 0, pretend = 0, frame = 0
 3046              		@ frame_needed = 0, uses_anonymous_args = 0
 3047              		.loc 1 1129 110 is_stmt 0 view .LVU868
 3048 0000 70B5     		push	{r4, r5, r6, lr}
 3049              	.LCFI43:
 3050              		.cfi_def_cfa_offset 16
 3051              		.cfi_offset 4, -16
 3052              		.cfi_offset 5, -12
 3053              		.cfi_offset 6, -8
 3054              		.cfi_offset 14, -4
1130:src-gen/Main/core/reactor_common.c ****     assert(env != GLOBAL_ENVIRONMENT);
 3055              		.loc 1 1130 5 is_stmt 1 view .LVU869
 3056 0002 68B1     		cbz	r0, .L261
 3057 0004 0C46     		mov	r4, r1
 3058 0006 1546     		mov	r5, r2
 3059 0008 0646     		mov	r6, r0
1131:src-gen/Main/core/reactor_common.c ****     // The trigger argument could be null, meaning that nothing is triggered.
1132:src-gen/Main/core/reactor_common.c ****     // Doing this after incrementing the reference count ensures that the
1133:src-gen/Main/core/reactor_common.c ****     // payload will be freed, if there is one.
1134:src-gen/Main/core/reactor_common.c ****     if (trigger == NULL) {
 3060              		.loc 1 1134 5 view .LVU870
 3061              		.loc 1 1134 8 is_stmt 0 view .LVU871
 3062 000a 81B1     		cbz	r1, .L262
1135:src-gen/Main/core/reactor_common.c ****         lf_print_warning("_lf_schedule_init_reactions() called with a NULL trigger");
1136:src-gen/Main/core/reactor_common.c ****         _lf_done_using(token);
1137:src-gen/Main/core/reactor_common.c ****         return 0;
1138:src-gen/Main/core/reactor_common.c ****     }
1139:src-gen/Main/core/reactor_common.c **** 
1140:src-gen/Main/core/reactor_common.c ****     // Check to see if the trigger is not a timer
1141:src-gen/Main/core/reactor_common.c ****     // and not a physical action
1142:src-gen/Main/core/reactor_common.c ****     if (trigger->is_timer || trigger->is_physical) {
ARM GAS  /var/folders/2h/lww79zv53b510qlyvytqnvq40000gn/T//ccDbZlJP.s 			page 87


 3063              		.loc 1 1142 5 is_stmt 1 view .LVU872
 3064              		.loc 1 1142 16 is_stmt 0 view .LVU873
 3065 000c 0B7F     		ldrb	r3, [r1, #28]	@ zero_extendqisi2
 3066              		.loc 1 1142 8 view .LVU874
 3067 000e 13B9     		cbnz	r3, .L255
 3068              		.loc 1 1142 37 discriminator 1 view .LVU875
 3069 0010 91F83030 		ldrb	r3, [r1, #48]	@ zero_extendqisi2
 3070              		.loc 1 1142 27 discriminator 1 view .LVU876
 3071 0014 9BB1     		cbz	r3, .L256
 3072              	.L255:
1143:src-gen/Main/core/reactor_common.c ****         lf_print_warning("_lf_schedule_init_reactions() called on a timer or physical action.");
 3073              		.loc 1 1143 9 is_stmt 1 view .LVU877
 3074 0016 1948     		ldr	r0, .L264
 3075              	.LVL303:
 3076              		.loc 1 1143 9 is_stmt 0 view .LVU878
 3077 0018 FFF7FEFF 		bl	lf_print_warning
 3078              	.LVL304:
1144:src-gen/Main/core/reactor_common.c ****         return 0;
 3079              		.loc 1 1144 9 is_stmt 1 view .LVU879
 3080              		.loc 1 1144 16 is_stmt 0 view .LVU880
 3081 001c 0020     		movs	r0, #0
 3082              	.LVL305:
 3083              	.L251:
1145:src-gen/Main/core/reactor_common.c ****     }
1146:src-gen/Main/core/reactor_common.c **** 
1147:src-gen/Main/core/reactor_common.c **** #ifdef MODAL_REACTORS
1148:src-gen/Main/core/reactor_common.c ****     // If this trigger is associated with an inactive mode, it should not trigger any reaction.
1149:src-gen/Main/core/reactor_common.c ****     if (!_lf_mode_is_active(trigger->mode)) {
1150:src-gen/Main/core/reactor_common.c ****         LF_PRINT_DEBUG("Suppressing reactions of trigger due inactivity of mode %s.", trigger->mode
1151:src-gen/Main/core/reactor_common.c ****         return 1;
1152:src-gen/Main/core/reactor_common.c ****     }
1153:src-gen/Main/core/reactor_common.c **** #endif
1154:src-gen/Main/core/reactor_common.c **** 
1155:src-gen/Main/core/reactor_common.c ****     // Check if the trigger has violated the STP offset
1156:src-gen/Main/core/reactor_common.c ****     bool is_STP_violated = false;
1157:src-gen/Main/core/reactor_common.c **** #ifdef FEDERATED
1158:src-gen/Main/core/reactor_common.c ****     if (lf_tag_compare(trigger->intended_tag, env->current_tag) < 0) {
1159:src-gen/Main/core/reactor_common.c ****         is_STP_violated = true;
1160:src-gen/Main/core/reactor_common.c ****     }
1161:src-gen/Main/core/reactor_common.c **** #ifdef FEDERATED_CENTRALIZED
1162:src-gen/Main/core/reactor_common.c ****     // Check for STP violation in the centralized coordination, which is a
1163:src-gen/Main/core/reactor_common.c ****     // critical error.
1164:src-gen/Main/core/reactor_common.c ****     if (is_STP_violated) {
1165:src-gen/Main/core/reactor_common.c ****         lf_print_error_and_exit("Attempted to insert reactions for a trigger that had an intended t
1166:src-gen/Main/core/reactor_common.c ****                              "This should not happen under centralized coordination. Intended tag: 
1167:src-gen/Main/core/reactor_common.c ****                              trigger->intended_tag.time - lf_time_start(),
1168:src-gen/Main/core/reactor_common.c ****                              trigger->intended_tag.microstep,
1169:src-gen/Main/core/reactor_common.c ****                              lf_time_logical_elapsed(env), 
1170:src-gen/Main/core/reactor_common.c ****                              env->current_tag.microstep);
1171:src-gen/Main/core/reactor_common.c ****     }
1172:src-gen/Main/core/reactor_common.c **** #endif
1173:src-gen/Main/core/reactor_common.c **** #endif
1174:src-gen/Main/core/reactor_common.c **** 
1175:src-gen/Main/core/reactor_common.c ****     // Copy the token pointer into the trigger struct so that the
1176:src-gen/Main/core/reactor_common.c ****     // reactions can access it. This overwrites the previous template token,
1177:src-gen/Main/core/reactor_common.c ****     // for which we decrement the reference count.
1178:src-gen/Main/core/reactor_common.c ****     _lf_replace_template_token((token_template_t*)trigger, token);
ARM GAS  /var/folders/2h/lww79zv53b510qlyvytqnvq40000gn/T//ccDbZlJP.s 			page 88


1179:src-gen/Main/core/reactor_common.c **** 
1180:src-gen/Main/core/reactor_common.c ****     // Mark the trigger present.
1181:src-gen/Main/core/reactor_common.c ****     trigger->status = present;
1182:src-gen/Main/core/reactor_common.c **** 
1183:src-gen/Main/core/reactor_common.c ****     // Push the corresponding reactions for this trigger
1184:src-gen/Main/core/reactor_common.c ****     // onto the reaction queue.
1185:src-gen/Main/core/reactor_common.c ****     for (int i = 0; i < trigger->number_of_reactions; i++) {
1186:src-gen/Main/core/reactor_common.c ****         reaction_t* reaction = trigger->reactions[i];
1187:src-gen/Main/core/reactor_common.c **** #ifdef MODAL_REACTORS
1188:src-gen/Main/core/reactor_common.c ****         // Check if reaction is disabled by mode inactivity
1189:src-gen/Main/core/reactor_common.c ****         if (!_lf_mode_is_active(reaction->mode)) {
1190:src-gen/Main/core/reactor_common.c ****             LF_PRINT_DEBUG("Suppressing reaction %s due inactivity of mode %s.", reaction->name, re
1191:src-gen/Main/core/reactor_common.c ****             continue; // Suppress reaction by preventing entering reaction queue
1192:src-gen/Main/core/reactor_common.c ****         }
1193:src-gen/Main/core/reactor_common.c **** #endif
1194:src-gen/Main/core/reactor_common.c ****         // Do not enqueue this reaction twice.
1195:src-gen/Main/core/reactor_common.c ****         if (reaction->status == inactive) {
1196:src-gen/Main/core/reactor_common.c ****             reaction->is_STP_violated = is_STP_violated;
1197:src-gen/Main/core/reactor_common.c ****             _lf_trigger_reaction(env, reaction, -1);
1198:src-gen/Main/core/reactor_common.c ****             LF_PRINT_LOG("Enqueued reaction %s at time " PRINTF_TIME ".", reaction->name, lf_time_l
1199:src-gen/Main/core/reactor_common.c ****         }
1200:src-gen/Main/core/reactor_common.c ****     }
1201:src-gen/Main/core/reactor_common.c **** 
1202:src-gen/Main/core/reactor_common.c ****     return 1;
1203:src-gen/Main/core/reactor_common.c **** }
 3084              		.loc 1 1203 1 view .LVU881
 3085 001e 70BD     		pop	{r4, r5, r6, pc}
 3086              	.LVL306:
 3087              	.L261:
1130:src-gen/Main/core/reactor_common.c ****     // The trigger argument could be null, meaning that nothing is triggered.
 3088              		.loc 1 1130 5 discriminator 1 view .LVU882
 3089 0020 174B     		ldr	r3, .L264+4
 3090 0022 184A     		ldr	r2, .L264+8
 3091              	.LVL307:
1130:src-gen/Main/core/reactor_common.c ****     // The trigger argument could be null, meaning that nothing is triggered.
 3092              		.loc 1 1130 5 discriminator 1 view .LVU883
 3093 0024 40F26A41 		movw	r1, #1130
 3094              	.LVL308:
1130:src-gen/Main/core/reactor_common.c ****     // The trigger argument could be null, meaning that nothing is triggered.
 3095              		.loc 1 1130 5 discriminator 1 view .LVU884
 3096 0028 1748     		ldr	r0, .L264+12
 3097              	.LVL309:
1130:src-gen/Main/core/reactor_common.c ****     // The trigger argument could be null, meaning that nothing is triggered.
 3098              		.loc 1 1130 5 discriminator 1 view .LVU885
 3099 002a FFF7FEFF 		bl	__assert_func
 3100              	.LVL310:
 3101              	.L262:
1135:src-gen/Main/core/reactor_common.c ****         _lf_done_using(token);
 3102              		.loc 1 1135 9 is_stmt 1 view .LVU886
 3103 002e 1748     		ldr	r0, .L264+16
 3104              	.LVL311:
1135:src-gen/Main/core/reactor_common.c ****         _lf_done_using(token);
 3105              		.loc 1 1135 9 is_stmt 0 view .LVU887
 3106 0030 FFF7FEFF 		bl	lf_print_warning
 3107              	.LVL312:
1136:src-gen/Main/core/reactor_common.c ****         return 0;
 3108              		.loc 1 1136 9 is_stmt 1 view .LVU888
ARM GAS  /var/folders/2h/lww79zv53b510qlyvytqnvq40000gn/T//ccDbZlJP.s 			page 89


 3109 0034 2846     		mov	r0, r5
 3110 0036 FFF7FEFF 		bl	_lf_done_using
 3111              	.LVL313:
1137:src-gen/Main/core/reactor_common.c ****     }
 3112              		.loc 1 1137 9 view .LVU889
1137:src-gen/Main/core/reactor_common.c ****     }
 3113              		.loc 1 1137 16 is_stmt 0 view .LVU890
 3114 003a 0020     		movs	r0, #0
 3115 003c EFE7     		b	.L251
 3116              	.LVL314:
 3117              	.L256:
1156:src-gen/Main/core/reactor_common.c **** #ifdef FEDERATED
 3118              		.loc 1 1156 5 is_stmt 1 view .LVU891
1178:src-gen/Main/core/reactor_common.c **** 
 3119              		.loc 1 1178 5 view .LVU892
 3120 003e 1146     		mov	r1, r2
 3121              	.LVL315:
1178:src-gen/Main/core/reactor_common.c **** 
 3122              		.loc 1 1178 5 is_stmt 0 view .LVU893
 3123 0040 2046     		mov	r0, r4
 3124              	.LVL316:
1178:src-gen/Main/core/reactor_common.c **** 
 3125              		.loc 1 1178 5 view .LVU894
 3126 0042 FFF7FEFF 		bl	_lf_replace_template_token
 3127              	.LVL317:
1181:src-gen/Main/core/reactor_common.c **** 
 3128              		.loc 1 1181 5 is_stmt 1 view .LVU895
1181:src-gen/Main/core/reactor_common.c **** 
 3129              		.loc 1 1181 21 is_stmt 0 view .LVU896
 3130 0046 0123     		movs	r3, #1
 3131 0048 84F83930 		strb	r3, [r4, #57]
1185:src-gen/Main/core/reactor_common.c ****         reaction_t* reaction = trigger->reactions[i];
 3132              		.loc 1 1185 5 is_stmt 1 view .LVU897
 3133              	.LBB38:
1185:src-gen/Main/core/reactor_common.c ****         reaction_t* reaction = trigger->reactions[i];
 3134              		.loc 1 1185 10 view .LVU898
 3135              	.LVL318:
1185:src-gen/Main/core/reactor_common.c ****         reaction_t* reaction = trigger->reactions[i];
 3136              		.loc 1 1185 14 is_stmt 0 view .LVU899
 3137 004c 0025     		movs	r5, #0
 3138              	.LVL319:
1185:src-gen/Main/core/reactor_common.c ****         reaction_t* reaction = trigger->reactions[i];
 3139              		.loc 1 1185 5 view .LVU900
 3140 004e 00E0     		b	.L257
 3141              	.LVL320:
 3142              	.L258:
 3143              	.LBB39:
1198:src-gen/Main/core/reactor_common.c ****         }
 3144              		.loc 1 1198 13 is_stmt 1 discriminator 3 view .LVU901
 3145              	.LBE39:
1185:src-gen/Main/core/reactor_common.c ****         reaction_t* reaction = trigger->reactions[i];
 3146              		.loc 1 1185 56 discriminator 3 view .LVU902
 3147 0050 0135     		adds	r5, r5, #1
 3148              	.LVL321:
 3149              	.L257:
1185:src-gen/Main/core/reactor_common.c ****         reaction_t* reaction = trigger->reactions[i];
 3150              		.loc 1 1185 23 discriminator 2 view .LVU903
ARM GAS  /var/folders/2h/lww79zv53b510qlyvytqnvq40000gn/T//ccDbZlJP.s 			page 90


1185:src-gen/Main/core/reactor_common.c ****         reaction_t* reaction = trigger->reactions[i];
 3151              		.loc 1 1185 32 is_stmt 0 discriminator 2 view .LVU904
 3152 0052 A369     		ldr	r3, [r4, #24]
1185:src-gen/Main/core/reactor_common.c ****         reaction_t* reaction = trigger->reactions[i];
 3153              		.loc 1 1185 23 discriminator 2 view .LVU905
 3154 0054 9D42     		cmp	r5, r3
 3155 0056 0EDA     		bge	.L263
 3156              	.LBB40:
1186:src-gen/Main/core/reactor_common.c **** #ifdef MODAL_REACTORS
 3157              		.loc 1 1186 9 is_stmt 1 view .LVU906
1186:src-gen/Main/core/reactor_common.c **** #ifdef MODAL_REACTORS
 3158              		.loc 1 1186 39 is_stmt 0 view .LVU907
 3159 0058 6369     		ldr	r3, [r4, #20]
1186:src-gen/Main/core/reactor_common.c **** #ifdef MODAL_REACTORS
 3160              		.loc 1 1186 21 view .LVU908
 3161 005a 53F82510 		ldr	r1, [r3, r5, lsl #2]
 3162              	.LVL322:
1195:src-gen/Main/core/reactor_common.c ****             reaction->is_STP_violated = is_STP_violated;
 3163              		.loc 1 1195 9 is_stmt 1 view .LVU909
1195:src-gen/Main/core/reactor_common.c ****             reaction->is_STP_violated = is_STP_violated;
 3164              		.loc 1 1195 21 is_stmt 0 view .LVU910
 3165 005e 91F83830 		ldrb	r3, [r1, #56]	@ zero_extendqisi2
1195:src-gen/Main/core/reactor_common.c ****             reaction->is_STP_violated = is_STP_violated;
 3166              		.loc 1 1195 12 view .LVU911
 3167 0062 002B     		cmp	r3, #0
 3168 0064 F4D1     		bne	.L258
1196:src-gen/Main/core/reactor_common.c ****             _lf_trigger_reaction(env, reaction, -1);
 3169              		.loc 1 1196 13 is_stmt 1 view .LVU912
1196:src-gen/Main/core/reactor_common.c ****             _lf_trigger_reaction(env, reaction, -1);
 3170              		.loc 1 1196 39 is_stmt 0 view .LVU913
 3171 0066 81F84830 		strb	r3, [r1, #72]
1197:src-gen/Main/core/reactor_common.c ****             LF_PRINT_LOG("Enqueued reaction %s at time " PRINTF_TIME ".", reaction->name, lf_time_l
 3172              		.loc 1 1197 13 is_stmt 1 view .LVU914
 3173 006a 4FF0FF32 		mov	r2, #-1
 3174 006e 3046     		mov	r0, r6
 3175 0070 FFF7FEFF 		bl	_lf_trigger_reaction
 3176              	.LVL323:
1198:src-gen/Main/core/reactor_common.c ****         }
 3177              		.loc 1 1198 13 view .LVU915
1198:src-gen/Main/core/reactor_common.c ****         }
 3178              		.loc 1 1198 13 view .LVU916
 3179 0074 ECE7     		b	.L258
 3180              	.LVL324:
 3181              	.L263:
1198:src-gen/Main/core/reactor_common.c ****         }
 3182              		.loc 1 1198 13 is_stmt 0 view .LVU917
 3183              	.LBE40:
 3184              	.LBE38:
1202:src-gen/Main/core/reactor_common.c **** }
 3185              		.loc 1 1202 12 view .LVU918
 3186 0076 0120     		movs	r0, #1
 3187 0078 D1E7     		b	.L251
 3188              	.L265:
 3189 007a 00BF     		.align	2
 3190              	.L264:
 3191 007c 3C000000 		.word	.LC10
 3192 0080 00000000 		.word	.LC0
ARM GAS  /var/folders/2h/lww79zv53b510qlyvytqnvq40000gn/T//ccDbZlJP.s 			page 91


 3193 0084 00000000 		.word	__func__.3
 3194 0088 1C000000 		.word	.LC1
 3195 008c 00000000 		.word	.LC9
 3196              		.cfi_endproc
 3197              	.LFE154:
 3199              		.section	.rodata._lf_schedule_token.str1.4,"aMS",%progbits,1
 3200              		.align	2
 3201              	.LC11:
 3202 0000 436F756C 		.ascii	"Could not enter critical section\000"
 3202      64206E6F 
 3202      7420656E 
 3202      74657220 
 3202      63726974 
 3203 0021 000000   		.align	2
 3204              	.LC12:
 3205 0024 436F756C 		.ascii	"Could not leave critical section\000"
 3205      64206E6F 
 3205      74206C65 
 3205      61766520 
 3205      63726974 
 3206              		.section	.text._lf_schedule_token,"ax",%progbits
 3207              		.align	1
 3208              		.global	_lf_schedule_token
 3209              		.syntax unified
 3210              		.thumb
 3211              		.thumb_func
 3213              	_lf_schedule_token:
 3214              	.LVL325:
 3215              	.LFB155:
1204:src-gen/Main/core/reactor_common.c **** 
1205:src-gen/Main/core/reactor_common.c **** /**
1206:src-gen/Main/core/reactor_common.c ****  * Schedule the specified trigger at env->current_tag.time plus the offset of the
1207:src-gen/Main/core/reactor_common.c ****  * specified trigger plus the delay.
1208:src-gen/Main/core/reactor_common.c ****  * See reactor.h for documentation.
1209:src-gen/Main/core/reactor_common.c ****  */
1210:src-gen/Main/core/reactor_common.c **** trigger_handle_t _lf_schedule_token(lf_action_base_t* action, interval_t extra_delay, lf_token_t* t
 3216              		.loc 1 1210 106 is_stmt 1 view -0
 3217              		.cfi_startproc
 3218              		@ args = 4, pretend = 0, frame = 0
 3219              		@ frame_needed = 0, uses_anonymous_args = 0
 3220              		.loc 1 1210 106 is_stmt 0 view .LVU920
 3221 0000 F0B5     		push	{r4, r5, r6, r7, lr}
 3222              	.LCFI44:
 3223              		.cfi_def_cfa_offset 20
 3224              		.cfi_offset 4, -20
 3225              		.cfi_offset 5, -16
 3226              		.cfi_offset 6, -12
 3227              		.cfi_offset 7, -8
 3228              		.cfi_offset 14, -4
 3229 0002 83B0     		sub	sp, sp, #12
 3230              	.LCFI45:
 3231              		.cfi_def_cfa_offset 32
 3232 0004 0546     		mov	r5, r0
 3233 0006 1746     		mov	r7, r2
 3234 0008 1E46     		mov	r6, r3
1211:src-gen/Main/core/reactor_common.c ****     environment_t* env = action->parent->environment;
 3235              		.loc 1 1211 5 is_stmt 1 view .LVU921
ARM GAS  /var/folders/2h/lww79zv53b510qlyvytqnvq40000gn/T//ccDbZlJP.s 			page 92


 3236              		.loc 1 1211 32 is_stmt 0 view .LVU922
 3237 000a C369     		ldr	r3, [r0, #28]
 3238              		.loc 1 1211 20 view .LVU923
 3239 000c 9C68     		ldr	r4, [r3, #8]
 3240              	.LVL326:
1212:src-gen/Main/core/reactor_common.c ****     
1213:src-gen/Main/core/reactor_common.c ****     if (lf_critical_section_enter(env) != 0) {
 3241              		.loc 1 1213 5 is_stmt 1 view .LVU924
 3242              		.loc 1 1213 9 is_stmt 0 view .LVU925
 3243 000e 2046     		mov	r0, r4
 3244              	.LVL327:
 3245              		.loc 1 1213 9 view .LVU926
 3246 0010 FFF7FEFF 		bl	lf_critical_section_enter
 3247              	.LVL328:
 3248              		.loc 1 1213 8 view .LVU927
 3249 0014 90B9     		cbnz	r0, .L270
 3250              	.L267:
1214:src-gen/Main/core/reactor_common.c ****         lf_print_error_and_exit("Could not enter critical section");
1215:src-gen/Main/core/reactor_common.c ****     }
1216:src-gen/Main/core/reactor_common.c ****     int return_value = _lf_schedule(env, action->trigger, extra_delay, token);
 3251              		.loc 1 1216 5 is_stmt 1 view .LVU928
 3252              		.loc 1 1216 24 is_stmt 0 view .LVU929
 3253 0016 089B     		ldr	r3, [sp, #32]
 3254 0018 0093     		str	r3, [sp]
 3255 001a 3A46     		mov	r2, r7
 3256 001c 3346     		mov	r3, r6
 3257 001e A969     		ldr	r1, [r5, #24]
 3258 0020 2046     		mov	r0, r4
 3259 0022 FFF7FEFF 		bl	_lf_schedule
 3260              	.LVL329:
 3261 0026 0546     		mov	r5, r0
 3262              	.LVL330:
1217:src-gen/Main/core/reactor_common.c ****     // Notify the main thread in case it is waiting for physical time to elapse.
1218:src-gen/Main/core/reactor_common.c ****     lf_notify_of_event(env);
 3263              		.loc 1 1218 5 is_stmt 1 view .LVU930
 3264 0028 2046     		mov	r0, r4
 3265              	.LVL331:
 3266              		.loc 1 1218 5 is_stmt 0 view .LVU931
 3267 002a FFF7FEFF 		bl	lf_notify_of_event
 3268              	.LVL332:
1219:src-gen/Main/core/reactor_common.c ****     if(lf_critical_section_exit(env) != 0) {
 3269              		.loc 1 1219 5 is_stmt 1 view .LVU932
 3270              		.loc 1 1219 8 is_stmt 0 view .LVU933
 3271 002e 2046     		mov	r0, r4
 3272 0030 FFF7FEFF 		bl	lf_critical_section_exit
 3273              	.LVL333:
 3274              		.loc 1 1219 7 view .LVU934
 3275 0034 30B9     		cbnz	r0, .L271
 3276              	.L266:
1220:src-gen/Main/core/reactor_common.c ****         lf_print_error_and_exit("Could not leave critical section");
1221:src-gen/Main/core/reactor_common.c ****     }
1222:src-gen/Main/core/reactor_common.c ****     return return_value;
1223:src-gen/Main/core/reactor_common.c **** }
 3277              		.loc 1 1223 1 view .LVU935
 3278 0036 2846     		mov	r0, r5
 3279 0038 03B0     		add	sp, sp, #12
 3280              	.LCFI46:
ARM GAS  /var/folders/2h/lww79zv53b510qlyvytqnvq40000gn/T//ccDbZlJP.s 			page 93


 3281              		.cfi_remember_state
 3282              		.cfi_def_cfa_offset 20
 3283              		@ sp needed
 3284 003a F0BD     		pop	{r4, r5, r6, r7, pc}
 3285              	.LVL334:
 3286              	.L270:
 3287              	.LCFI47:
 3288              		.cfi_restore_state
1214:src-gen/Main/core/reactor_common.c ****     }
 3289              		.loc 1 1214 9 is_stmt 1 view .LVU936
 3290 003c 0348     		ldr	r0, .L272
 3291 003e FFF7FEFF 		bl	lf_print_error_and_exit
 3292              	.LVL335:
 3293 0042 E8E7     		b	.L267
 3294              	.LVL336:
 3295              	.L271:
1220:src-gen/Main/core/reactor_common.c ****         lf_print_error_and_exit("Could not leave critical section");
 3296              		.loc 1 1220 9 view .LVU937
 3297 0044 0248     		ldr	r0, .L272+4
 3298 0046 FFF7FEFF 		bl	lf_print_error_and_exit
 3299              	.LVL337:
1222:src-gen/Main/core/reactor_common.c **** }
 3300              		.loc 1 1222 5 view .LVU938
1222:src-gen/Main/core/reactor_common.c **** }
 3301              		.loc 1 1222 12 is_stmt 0 view .LVU939
 3302 004a F4E7     		b	.L266
 3303              	.L273:
 3304              		.align	2
 3305              	.L272:
 3306 004c 00000000 		.word	.LC11
 3307 0050 24000000 		.word	.LC12
 3308              		.cfi_endproc
 3309              	.LFE155:
 3311              		.section	.rodata._lf_schedule_copy.str1.4,"aMS",%progbits,1
 3312              		.align	2
 3313              	.LC13:
 3314 0000 73636865 		.ascii	"schedule: Invalid element size.\000"
 3314      64756C65 
 3314      3A20496E 
 3314      76616C69 
 3314      6420656C 
 3315              		.section	.text._lf_schedule_copy,"ax",%progbits
 3316              		.align	1
 3317              		.global	_lf_schedule_copy
 3318              		.syntax unified
 3319              		.thumb
 3320              		.thumb_func
 3322              	_lf_schedule_copy:
 3323              	.LVL338:
 3324              	.LFB156:
1224:src-gen/Main/core/reactor_common.c **** 
1225:src-gen/Main/core/reactor_common.c **** /**
1226:src-gen/Main/core/reactor_common.c ****  * Schedule an action to occur with the specified value and time offset
1227:src-gen/Main/core/reactor_common.c ****  * with a copy of the specified value.
1228:src-gen/Main/core/reactor_common.c ****  * See reactor.h for documentation.
1229:src-gen/Main/core/reactor_common.c ****  */
1230:src-gen/Main/core/reactor_common.c **** trigger_handle_t _lf_schedule_copy(lf_action_base_t* action, interval_t offset, void* value, size_t
ARM GAS  /var/folders/2h/lww79zv53b510qlyvytqnvq40000gn/T//ccDbZlJP.s 			page 94


 3325              		.loc 1 1230 109 is_stmt 1 view -0
 3326              		.cfi_startproc
 3327              		@ args = 8, pretend = 0, frame = 0
 3328              		@ frame_needed = 0, uses_anonymous_args = 0
 3329              		.loc 1 1230 109 is_stmt 0 view .LVU941
 3330 0000 2DE9F047 		push	{r4, r5, r6, r7, r8, r9, r10, lr}
 3331              	.LCFI48:
 3332              		.cfi_def_cfa_offset 32
 3333              		.cfi_offset 4, -32
 3334              		.cfi_offset 5, -28
 3335              		.cfi_offset 6, -24
 3336              		.cfi_offset 7, -20
 3337              		.cfi_offset 8, -16
 3338              		.cfi_offset 9, -12
 3339              		.cfi_offset 10, -8
 3340              		.cfi_offset 14, -4
 3341 0004 82B0     		sub	sp, sp, #8
 3342              	.LCFI49:
 3343              		.cfi_def_cfa_offset 40
 3344 0006 0446     		mov	r4, r0
 3345 0008 9046     		mov	r8, r2
 3346 000a 1F46     		mov	r7, r3
 3347 000c DDF82890 		ldr	r9, [sp, #40]
 3348 0010 DDF82CA0 		ldr	r10, [sp, #44]
1231:src-gen/Main/core/reactor_common.c ****     if (value == NULL) {
 3349              		.loc 1 1231 5 is_stmt 1 view .LVU942
 3350              		.loc 1 1231 8 is_stmt 0 view .LVU943
 3351 0014 B9F1000F 		cmp	r9, #0
 3352 0018 27D0     		beq	.L281
1232:src-gen/Main/core/reactor_common.c ****         return _lf_schedule_token(action, offset, NULL);
1233:src-gen/Main/core/reactor_common.c ****     }
1234:src-gen/Main/core/reactor_common.c ****     environment_t* env = action->parent->environment;
 3353              		.loc 1 1234 5 is_stmt 1 view .LVU944
 3354              		.loc 1 1234 32 is_stmt 0 view .LVU945
 3355 001a C369     		ldr	r3, [r0, #28]
 3356              		.loc 1 1234 20 view .LVU946
 3357 001c 9D68     		ldr	r5, [r3, #8]
 3358              	.LVL339:
1235:src-gen/Main/core/reactor_common.c ****     token_template_t* template = (token_template_t*)action;
 3359              		.loc 1 1235 5 is_stmt 1 view .LVU947
1236:src-gen/Main/core/reactor_common.c ****     if (action == NULL || template->type.element_size <= 0) {
 3360              		.loc 1 1236 5 view .LVU948
 3361              		.loc 1 1236 8 is_stmt 0 view .LVU949
 3362 001e 58B3     		cbz	r0, .L277
 3363              		.loc 1 1236 41 discriminator 1 view .LVU950
 3364 0020 0368     		ldr	r3, [r0]
 3365              		.loc 1 1236 24 discriminator 1 view .LVU951
 3366 0022 4BB3     		cbz	r3, .L277
1237:src-gen/Main/core/reactor_common.c ****         lf_print_error("schedule: Invalid element size.");
1238:src-gen/Main/core/reactor_common.c ****         return -1;
1239:src-gen/Main/core/reactor_common.c ****     }
1240:src-gen/Main/core/reactor_common.c ****     if (lf_critical_section_enter(env) != 0) {
 3367              		.loc 1 1240 5 is_stmt 1 view .LVU952
 3368              		.loc 1 1240 9 is_stmt 0 view .LVU953
 3369 0024 2846     		mov	r0, r5
 3370              	.LVL340:
 3371              		.loc 1 1240 9 view .LVU954
ARM GAS  /var/folders/2h/lww79zv53b510qlyvytqnvq40000gn/T//ccDbZlJP.s 			page 95


 3372 0026 FFF7FEFF 		bl	lf_critical_section_enter
 3373              	.LVL341:
 3374              		.loc 1 1240 8 view .LVU955
 3375 002a 58BB     		cbnz	r0, .L282
 3376              	.L279:
1241:src-gen/Main/core/reactor_common.c ****         lf_print_error_and_exit("Could not enter critical section");
1242:src-gen/Main/core/reactor_common.c ****     }
1243:src-gen/Main/core/reactor_common.c ****     // Initialize token with an array size of length and a reference count of 0.
1244:src-gen/Main/core/reactor_common.c ****     lf_token_t* token = _lf_initialize_token(template, length);
 3377              		.loc 1 1244 5 is_stmt 1 view .LVU956
 3378              		.loc 1 1244 25 is_stmt 0 view .LVU957
 3379 002c 5146     		mov	r1, r10
 3380 002e 2046     		mov	r0, r4
 3381 0030 FFF7FEFF 		bl	_lf_initialize_token
 3382              	.LVL342:
 3383 0034 0646     		mov	r6, r0
 3384              	.LVL343:
1245:src-gen/Main/core/reactor_common.c ****     // Copy the value into the newly allocated memory.
1246:src-gen/Main/core/reactor_common.c ****     memcpy(token->value, value, template->type.element_size * length);
 3385              		.loc 1 1246 5 is_stmt 1 view .LVU958
 3386              		.loc 1 1246 47 is_stmt 0 view .LVU959
 3387 0036 2268     		ldr	r2, [r4]
 3388              		.loc 1 1246 5 view .LVU960
 3389 0038 0AFB02F2 		mul	r2, r10, r2
 3390 003c 4946     		mov	r1, r9
 3391 003e 0068     		ldr	r0, [r0]
 3392              	.LVL344:
 3393              		.loc 1 1246 5 view .LVU961
 3394 0040 FFF7FEFF 		bl	memcpy
 3395              	.LVL345:
1247:src-gen/Main/core/reactor_common.c ****     // The schedule function will increment the reference count.
1248:src-gen/Main/core/reactor_common.c ****     trigger_handle_t result = _lf_schedule(env, action->trigger, offset, token);
 3396              		.loc 1 1248 5 is_stmt 1 view .LVU962
 3397              		.loc 1 1248 31 is_stmt 0 view .LVU963
 3398 0044 0096     		str	r6, [sp]
 3399 0046 4246     		mov	r2, r8
 3400 0048 3B46     		mov	r3, r7
 3401 004a A169     		ldr	r1, [r4, #24]
 3402 004c 2846     		mov	r0, r5
 3403 004e FFF7FEFF 		bl	_lf_schedule
 3404              	.LVL346:
 3405 0052 0446     		mov	r4, r0
 3406              	.LVL347:
1249:src-gen/Main/core/reactor_common.c ****     // Notify the main thread in case it is waiting for physical time to elapse.
1250:src-gen/Main/core/reactor_common.c ****     lf_notify_of_event(env);
 3407              		.loc 1 1250 5 is_stmt 1 view .LVU964
 3408 0054 2846     		mov	r0, r5
 3409              	.LVL348:
 3410              		.loc 1 1250 5 is_stmt 0 view .LVU965
 3411 0056 FFF7FEFF 		bl	lf_notify_of_event
 3412              	.LVL349:
1251:src-gen/Main/core/reactor_common.c ****     if(lf_critical_section_exit(env) != 0) {
 3413              		.loc 1 1251 5 is_stmt 1 view .LVU966
 3414              		.loc 1 1251 8 is_stmt 0 view .LVU967
 3415 005a 2846     		mov	r0, r5
 3416 005c FFF7FEFF 		bl	lf_critical_section_exit
 3417              	.LVL350:
ARM GAS  /var/folders/2h/lww79zv53b510qlyvytqnvq40000gn/T//ccDbZlJP.s 			page 96


 3418              		.loc 1 1251 7 view .LVU968
 3419 0060 A0B9     		cbnz	r0, .L283
 3420              	.LVL351:
 3421              	.L274:
1252:src-gen/Main/core/reactor_common.c ****         lf_print_error_and_exit("Could not leave critical section");
1253:src-gen/Main/core/reactor_common.c ****     }
1254:src-gen/Main/core/reactor_common.c ****     return result;
1255:src-gen/Main/core/reactor_common.c **** }
 3422              		.loc 1 1255 1 view .LVU969
 3423 0062 2046     		mov	r0, r4
 3424 0064 02B0     		add	sp, sp, #8
 3425              	.LCFI50:
 3426              		.cfi_remember_state
 3427              		.cfi_def_cfa_offset 32
 3428              		@ sp needed
 3429 0066 BDE8F087 		pop	{r4, r5, r6, r7, r8, r9, r10, pc}
 3430              	.LVL352:
 3431              	.L281:
 3432              	.LCFI51:
 3433              		.cfi_restore_state
1232:src-gen/Main/core/reactor_common.c ****     }
 3434              		.loc 1 1232 9 is_stmt 1 view .LVU970
1232:src-gen/Main/core/reactor_common.c ****     }
 3435              		.loc 1 1232 16 is_stmt 0 view .LVU971
 3436 006a 0023     		movs	r3, #0
 3437 006c 0093     		str	r3, [sp]
 3438 006e 3B46     		mov	r3, r7
 3439 0070 FFF7FEFF 		bl	_lf_schedule_token
 3440              	.LVL353:
1232:src-gen/Main/core/reactor_common.c ****     }
 3441              		.loc 1 1232 16 view .LVU972
 3442 0074 0446     		mov	r4, r0
 3443              	.LVL354:
1232:src-gen/Main/core/reactor_common.c ****     }
 3444              		.loc 1 1232 16 view .LVU973
 3445 0076 F4E7     		b	.L274
 3446              	.LVL355:
 3447              	.L277:
1237:src-gen/Main/core/reactor_common.c ****         return -1;
 3448              		.loc 1 1237 9 is_stmt 1 view .LVU974
 3449 0078 0648     		ldr	r0, .L284
 3450              	.LVL356:
1237:src-gen/Main/core/reactor_common.c ****         return -1;
 3451              		.loc 1 1237 9 is_stmt 0 view .LVU975
 3452 007a FFF7FEFF 		bl	lf_print_error
 3453              	.LVL357:
1238:src-gen/Main/core/reactor_common.c ****     }
 3454              		.loc 1 1238 9 is_stmt 1 view .LVU976
1238:src-gen/Main/core/reactor_common.c ****     }
 3455              		.loc 1 1238 16 is_stmt 0 view .LVU977
 3456 007e 4FF0FF34 		mov	r4, #-1
 3457              	.LVL358:
1238:src-gen/Main/core/reactor_common.c ****     }
 3458              		.loc 1 1238 16 view .LVU978
 3459 0082 EEE7     		b	.L274
 3460              	.LVL359:
 3461              	.L282:
ARM GAS  /var/folders/2h/lww79zv53b510qlyvytqnvq40000gn/T//ccDbZlJP.s 			page 97


1241:src-gen/Main/core/reactor_common.c ****     }
 3462              		.loc 1 1241 9 is_stmt 1 view .LVU979
 3463 0084 0448     		ldr	r0, .L284+4
 3464 0086 FFF7FEFF 		bl	lf_print_error_and_exit
 3465              	.LVL360:
 3466 008a CFE7     		b	.L279
 3467              	.LVL361:
 3468              	.L283:
1252:src-gen/Main/core/reactor_common.c ****     }
 3469              		.loc 1 1252 9 view .LVU980
 3470 008c 0348     		ldr	r0, .L284+8
 3471 008e FFF7FEFF 		bl	lf_print_error_and_exit
 3472              	.LVL362:
 3473 0092 E6E7     		b	.L274
 3474              	.L285:
 3475              		.align	2
 3476              	.L284:
 3477 0094 00000000 		.word	.LC13
 3478 0098 00000000 		.word	.LC11
 3479 009c 24000000 		.word	.LC12
 3480              		.cfi_endproc
 3481              	.LFE156:
 3483              		.section	.text._lf_schedule_value,"ax",%progbits
 3484              		.align	1
 3485              		.global	_lf_schedule_value
 3486              		.syntax unified
 3487              		.thumb
 3488              		.thumb_func
 3490              	_lf_schedule_value:
 3491              	.LVL363:
 3492              	.LFB157:
1256:src-gen/Main/core/reactor_common.c **** 
1257:src-gen/Main/core/reactor_common.c **** 
1258:src-gen/Main/core/reactor_common.c **** /**
1259:src-gen/Main/core/reactor_common.c ****  * Variant of schedule_token that creates a token to carry the specified value.
1260:src-gen/Main/core/reactor_common.c ****  * See reactor.h for documentation.
1261:src-gen/Main/core/reactor_common.c ****  */
1262:src-gen/Main/core/reactor_common.c **** trigger_handle_t _lf_schedule_value(lf_action_base_t* action, interval_t extra_delay, void* value, 
 3493              		.loc 1 1262 115 view -0
 3494              		.cfi_startproc
 3495              		@ args = 8, pretend = 0, frame = 0
 3496              		@ frame_needed = 0, uses_anonymous_args = 0
 3497              		.loc 1 1262 115 is_stmt 0 view .LVU982
 3498 0000 F0B5     		push	{r4, r5, r6, r7, lr}
 3499              	.LCFI52:
 3500              		.cfi_def_cfa_offset 20
 3501              		.cfi_offset 4, -20
 3502              		.cfi_offset 5, -16
 3503              		.cfi_offset 6, -12
 3504              		.cfi_offset 7, -8
 3505              		.cfi_offset 14, -4
 3506 0002 83B0     		sub	sp, sp, #12
 3507              	.LCFI53:
 3508              		.cfi_def_cfa_offset 32
 3509 0004 0446     		mov	r4, r0
 3510 0006 1746     		mov	r7, r2
 3511 0008 1E46     		mov	r6, r3
ARM GAS  /var/folders/2h/lww79zv53b510qlyvytqnvq40000gn/T//ccDbZlJP.s 			page 98


1263:src-gen/Main/core/reactor_common.c ****     token_template_t* template = (token_template_t*)action;
 3512              		.loc 1 1263 5 is_stmt 1 view .LVU983
 3513              	.LVL364:
1264:src-gen/Main/core/reactor_common.c ****     environment_t* env = action->parent->environment;
 3514              		.loc 1 1264 5 view .LVU984
 3515              		.loc 1 1264 32 is_stmt 0 view .LVU985
 3516 000a C369     		ldr	r3, [r0, #28]
 3517              		.loc 1 1264 20 view .LVU986
 3518 000c 9D68     		ldr	r5, [r3, #8]
 3519              	.LVL365:
1265:src-gen/Main/core/reactor_common.c ****     if (lf_critical_section_enter(env) != 0) {
 3520              		.loc 1 1265 5 is_stmt 1 view .LVU987
 3521              		.loc 1 1265 9 is_stmt 0 view .LVU988
 3522 000e 2846     		mov	r0, r5
 3523              	.LVL366:
 3524              		.loc 1 1265 9 view .LVU989
 3525 0010 FFF7FEFF 		bl	lf_critical_section_enter
 3526              	.LVL367:
 3527              		.loc 1 1265 8 view .LVU990
 3528 0014 B0B9     		cbnz	r0, .L290
 3529              	.L287:
1266:src-gen/Main/core/reactor_common.c ****         lf_print_error_and_exit("Could not enter critical section");
1267:src-gen/Main/core/reactor_common.c ****     }
1268:src-gen/Main/core/reactor_common.c ****     lf_token_t* token = _lf_initialize_token_with_value(template, value, length);
 3530              		.loc 1 1268 5 is_stmt 1 view .LVU991
 3531              		.loc 1 1268 25 is_stmt 0 view .LVU992
 3532 0016 099A     		ldr	r2, [sp, #36]
 3533 0018 0899     		ldr	r1, [sp, #32]
 3534 001a 2046     		mov	r0, r4
 3535 001c FFF7FEFF 		bl	_lf_initialize_token_with_value
 3536              	.LVL368:
1269:src-gen/Main/core/reactor_common.c ****     int return_value = _lf_schedule(env, action->trigger, extra_delay, token);
 3537              		.loc 1 1269 5 is_stmt 1 view .LVU993
 3538              		.loc 1 1269 24 is_stmt 0 view .LVU994
 3539 0020 0090     		str	r0, [sp]
 3540 0022 3A46     		mov	r2, r7
 3541 0024 3346     		mov	r3, r6
 3542 0026 A169     		ldr	r1, [r4, #24]
 3543 0028 2846     		mov	r0, r5
 3544              	.LVL369:
 3545              		.loc 1 1269 24 view .LVU995
 3546 002a FFF7FEFF 		bl	_lf_schedule
 3547              	.LVL370:
 3548              		.loc 1 1269 24 view .LVU996
 3549 002e 0446     		mov	r4, r0
 3550              	.LVL371:
1270:src-gen/Main/core/reactor_common.c ****     // Notify the main thread in case it is waiting for physical time to elapse.
1271:src-gen/Main/core/reactor_common.c ****     lf_notify_of_event(env);
 3551              		.loc 1 1271 5 is_stmt 1 view .LVU997
 3552 0030 2846     		mov	r0, r5
 3553              	.LVL372:
 3554              		.loc 1 1271 5 is_stmt 0 view .LVU998
 3555 0032 FFF7FEFF 		bl	lf_notify_of_event
 3556              	.LVL373:
1272:src-gen/Main/core/reactor_common.c ****     if(lf_critical_section_exit(env) != 0) {
 3557              		.loc 1 1272 5 is_stmt 1 view .LVU999
 3558              		.loc 1 1272 8 is_stmt 0 view .LVU1000
ARM GAS  /var/folders/2h/lww79zv53b510qlyvytqnvq40000gn/T//ccDbZlJP.s 			page 99


 3559 0036 2846     		mov	r0, r5
 3560 0038 FFF7FEFF 		bl	lf_critical_section_exit
 3561              	.LVL374:
 3562              		.loc 1 1272 7 view .LVU1001
 3563 003c 30B9     		cbnz	r0, .L291
 3564              	.L286:
1273:src-gen/Main/core/reactor_common.c ****         lf_print_error_and_exit("Could not leave critical section");
1274:src-gen/Main/core/reactor_common.c ****     }
1275:src-gen/Main/core/reactor_common.c ****     return return_value;
1276:src-gen/Main/core/reactor_common.c **** }
 3565              		.loc 1 1276 1 view .LVU1002
 3566 003e 2046     		mov	r0, r4
 3567 0040 03B0     		add	sp, sp, #12
 3568              	.LCFI54:
 3569              		.cfi_remember_state
 3570              		.cfi_def_cfa_offset 20
 3571              		@ sp needed
 3572 0042 F0BD     		pop	{r4, r5, r6, r7, pc}
 3573              	.LVL375:
 3574              	.L290:
 3575              	.LCFI55:
 3576              		.cfi_restore_state
1266:src-gen/Main/core/reactor_common.c ****     }
 3577              		.loc 1 1266 9 is_stmt 1 view .LVU1003
 3578 0044 0348     		ldr	r0, .L292
 3579 0046 FFF7FEFF 		bl	lf_print_error_and_exit
 3580              	.LVL376:
 3581 004a E4E7     		b	.L287
 3582              	.LVL377:
 3583              	.L291:
1273:src-gen/Main/core/reactor_common.c ****         lf_print_error_and_exit("Could not leave critical section");
 3584              		.loc 1 1273 9 view .LVU1004
 3585 004c 0248     		ldr	r0, .L292+4
 3586 004e FFF7FEFF 		bl	lf_print_error_and_exit
 3587              	.LVL378:
1275:src-gen/Main/core/reactor_common.c **** }
 3588              		.loc 1 1275 5 view .LVU1005
1275:src-gen/Main/core/reactor_common.c **** }
 3589              		.loc 1 1275 12 is_stmt 0 view .LVU1006
 3590 0052 F4E7     		b	.L286
 3591              	.L293:
 3592              		.align	2
 3593              	.L292:
 3594 0054 00000000 		.word	.LC11
 3595 0058 24000000 		.word	.LC12
 3596              		.cfi_endproc
 3597              	.LFE157:
 3599              		.section	.rodata._lf_advance_logical_time.str1.4,"aMS",%progbits,1
 3600              		.align	2
 3601              	.LC14:
 3602 0000 5F6C665F 		.ascii	"_lf_advance_logical_time(): Attempted to move time "
 3602      61647661 
 3602      6E63655F 
 3602      6C6F6769 
 3602      63616C5F 
 3603 0033 746F2025 		.ascii	"to %lld, which is past the head of the event queue,"
 3603      6C6C642C 
ARM GAS  /var/folders/2h/lww79zv53b510qlyvytqnvq40000gn/T//ccDbZlJP.s 			page 100


 3603      20776869 
 3603      63682069 
 3603      73207061 
 3604 0066 20256C6C 		.ascii	" %lld.\000"
 3604      642E00
 3605 006d 000000   		.align	2
 3606              	.LC15:
 3607 0070 5F6C665F 		.ascii	"_lf_advance_logical_time(): Attempted to move tag b"
 3607      61647661 
 3607      6E63655F 
 3607      6C6F6769 
 3607      63616C5F 
 3608 00a3 61636B20 		.ascii	"ack in time.\000"
 3608      696E2074 
 3608      696D652E 
 3608      00
 3609              		.section	.text._lf_advance_logical_time,"ax",%progbits
 3610              		.align	1
 3611              		.global	_lf_advance_logical_time
 3612              		.syntax unified
 3613              		.thumb
 3614              		.thumb_func
 3616              	_lf_advance_logical_time:
 3617              	.LVL379:
 3618              	.LFB158:
1277:src-gen/Main/core/reactor_common.c **** 
1278:src-gen/Main/core/reactor_common.c **** void _lf_advance_logical_time(environment_t *env, instant_t next_time) {
 3619              		.loc 1 1278 72 is_stmt 1 view -0
 3620              		.cfi_startproc
 3621              		@ args = 0, pretend = 0, frame = 0
 3622              		@ frame_needed = 0, uses_anonymous_args = 0
 3623              		.loc 1 1278 72 is_stmt 0 view .LVU1008
 3624 0000 F0B5     		push	{r4, r5, r6, r7, lr}
 3625              	.LCFI56:
 3626              		.cfi_def_cfa_offset 20
 3627              		.cfi_offset 4, -20
 3628              		.cfi_offset 5, -16
 3629              		.cfi_offset 6, -12
 3630              		.cfi_offset 7, -8
 3631              		.cfi_offset 14, -4
 3632 0002 83B0     		sub	sp, sp, #12
 3633              	.LCFI57:
 3634              		.cfi_def_cfa_offset 32
1279:src-gen/Main/core/reactor_common.c ****     assert(env != GLOBAL_ENVIRONMENT);
 3635              		.loc 1 1279 5 is_stmt 1 view .LVU1009
 3636 0004 C0B1     		cbz	r0, .L301
 3637 0006 1446     		mov	r4, r2
 3638 0008 1E46     		mov	r6, r3
 3639 000a 0546     		mov	r5, r0
1280:src-gen/Main/core/reactor_common.c **** 
1281:src-gen/Main/core/reactor_common.c ****     // FIXME: The following checks that _lf_advance_logical_time()
1282:src-gen/Main/core/reactor_common.c ****     // is being called correctly. Namely, check if logical time
1283:src-gen/Main/core/reactor_common.c ****     // is being pushed past the head of the event queue. This should
1284:src-gen/Main/core/reactor_common.c ****     // never happen if _lf_advance_logical_time() is called correctly.
1285:src-gen/Main/core/reactor_common.c ****     // This is commented out because it will add considerable overhead
1286:src-gen/Main/core/reactor_common.c ****     // to the ordinary execution of LF programs. Instead, there might
1287:src-gen/Main/core/reactor_common.c ****     // be a need for a target property that enables these kinds of logic
ARM GAS  /var/folders/2h/lww79zv53b510qlyvytqnvq40000gn/T//ccDbZlJP.s 			page 101


1288:src-gen/Main/core/reactor_common.c ****     // assertions for development purposes only.
1289:src-gen/Main/core/reactor_common.c ****     #ifndef NDEBUG
1290:src-gen/Main/core/reactor_common.c ****     event_t* next_event = (event_t*)pqueue_peek(env->event_q);
 3640              		.loc 1 1290 5 view .LVU1010
 3641              		.loc 1 1290 37 is_stmt 0 view .LVU1011
 3642 000c 806A     		ldr	r0, [r0, #40]
 3643              	.LVL380:
 3644              		.loc 1 1290 37 view .LVU1012
 3645 000e FFF7FEFF 		bl	pqueue_peek
 3646              	.LVL381:
1291:src-gen/Main/core/reactor_common.c ****     if (next_event != NULL) {
 3647              		.loc 1 1291 5 is_stmt 1 view .LVU1013
 3648              		.loc 1 1291 8 is_stmt 0 view .LVU1014
 3649 0012 28B1     		cbz	r0, .L296
1292:src-gen/Main/core/reactor_common.c ****         if (next_time > next_event->time) {
 3650              		.loc 1 1292 9 is_stmt 1 view .LVU1015
 3651              		.loc 1 1292 35 is_stmt 0 view .LVU1016
 3652 0014 0168     		ldr	r1, [r0]
 3653 0016 4068     		ldr	r0, [r0, #4]
 3654              	.LVL382:
 3655              		.loc 1 1292 12 view .LVU1017
 3656 0018 A142     		cmp	r1, r4
 3657 001a 70EB0603 		sbcs	r3, r0, r6
 3658 001e 12DB     		blt	.L302
 3659              	.L296:
1293:src-gen/Main/core/reactor_common.c ****             lf_print_error_and_exit("_lf_advance_logical_time(): Attempted to move time to " PRINTF
1294:src-gen/Main/core/reactor_common.c ****                     "past the head of the event queue, " PRINTF_TIME ".",
1295:src-gen/Main/core/reactor_common.c ****                     next_time - start_time, next_event->time - start_time);
1296:src-gen/Main/core/reactor_common.c ****         }
1297:src-gen/Main/core/reactor_common.c ****     }
1298:src-gen/Main/core/reactor_common.c ****     #endif
1299:src-gen/Main/core/reactor_common.c ****     if (env->current_tag.time < next_time) {
 3660              		.loc 1 1299 5 is_stmt 1 view .LVU1018
 3661              		.loc 1 1299 25 is_stmt 0 view .LVU1019
 3662 0020 AA68     		ldr	r2, [r5, #8]
 3663 0022 EB68     		ldr	r3, [r5, #12]
 3664              		.loc 1 1299 8 view .LVU1020
 3665 0024 A242     		cmp	r2, r4
 3666 0026 73EB0601 		sbcs	r1, r3, r6
 3667 002a 1CDA     		bge	.L297
1300:src-gen/Main/core/reactor_common.c ****         env->current_tag.time = next_time;
 3668              		.loc 1 1300 9 is_stmt 1 view .LVU1021
 3669              		.loc 1 1300 31 is_stmt 0 view .LVU1022
 3670 002c AC60     		str	r4, [r5, #8]
 3671 002e EE60     		str	r6, [r5, #12]
1301:src-gen/Main/core/reactor_common.c ****         env->current_tag.microstep = 0;
 3672              		.loc 1 1301 9 is_stmt 1 view .LVU1023
 3673              		.loc 1 1301 36 is_stmt 0 view .LVU1024
 3674 0030 0023     		movs	r3, #0
 3675 0032 2B61     		str	r3, [r5, #16]
 3676              	.L294:
1302:src-gen/Main/core/reactor_common.c ****     } else if (env->current_tag.time == next_time) {
1303:src-gen/Main/core/reactor_common.c ****         env->current_tag.microstep++;
1304:src-gen/Main/core/reactor_common.c ****     } else {
1305:src-gen/Main/core/reactor_common.c ****         lf_print_error_and_exit("_lf_advance_logical_time(): Attempted to move tag back in time.");
1306:src-gen/Main/core/reactor_common.c ****     }
1307:src-gen/Main/core/reactor_common.c ****     LF_PRINT_LOG("Advanced (elapsed) tag to " PRINTF_TAG " at physical time " PRINTF_TIME,
ARM GAS  /var/folders/2h/lww79zv53b510qlyvytqnvq40000gn/T//ccDbZlJP.s 			page 102


1308:src-gen/Main/core/reactor_common.c ****         next_time - start_time, env->current_tag.microstep, lf_time_physical_elapsed());
1309:src-gen/Main/core/reactor_common.c **** }
 3677              		.loc 1 1309 1 view .LVU1025
 3678 0034 03B0     		add	sp, sp, #12
 3679              	.LCFI58:
 3680              		.cfi_remember_state
 3681              		.cfi_def_cfa_offset 20
 3682              		@ sp needed
 3683 0036 F0BD     		pop	{r4, r5, r6, r7, pc}
 3684              	.LVL383:
 3685              	.L301:
 3686              	.LCFI59:
 3687              		.cfi_restore_state
1279:src-gen/Main/core/reactor_common.c **** 
 3688              		.loc 1 1279 5 discriminator 1 view .LVU1026
 3689 0038 114B     		ldr	r3, .L303
 3690 003a 124A     		ldr	r2, .L303+4
 3691              	.LVL384:
1279:src-gen/Main/core/reactor_common.c **** 
 3692              		.loc 1 1279 5 discriminator 1 view .LVU1027
 3693 003c 40F2FF41 		movw	r1, #1279
 3694 0040 1148     		ldr	r0, .L303+8
 3695              	.LVL385:
1279:src-gen/Main/core/reactor_common.c **** 
 3696              		.loc 1 1279 5 discriminator 1 view .LVU1028
 3697 0042 FFF7FEFF 		bl	__assert_func
 3698              	.LVL386:
 3699              	.L302:
1293:src-gen/Main/core/reactor_common.c ****                     "past the head of the event queue, " PRINTF_TIME ".",
 3700              		.loc 1 1293 13 is_stmt 1 view .LVU1029
 3701 0046 114B     		ldr	r3, .L303+12
 3702 0048 1F68     		ldr	r7, [r3]
 3703 004a D3F804C0 		ldr	ip, [r3, #4]
 3704 004e E21B     		subs	r2, r4, r7
 3705 0050 66EB0C03 		sbc	r3, r6, ip
 3706 0054 C91B     		subs	r1, r1, r7
 3707 0056 60EB0C00 		sbc	r0, r0, ip
 3708 005a 0091     		str	r1, [sp]
 3709 005c 0190     		str	r0, [sp, #4]
 3710 005e 0C48     		ldr	r0, .L303+16
 3711 0060 FFF7FEFF 		bl	lf_print_error_and_exit
 3712              	.LVL387:
 3713 0064 DCE7     		b	.L296
 3714              	.L297:
1302:src-gen/Main/core/reactor_common.c ****     } else if (env->current_tag.time == next_time) {
 3715              		.loc 1 1302 12 view .LVU1030
1302:src-gen/Main/core/reactor_common.c ****     } else if (env->current_tag.time == next_time) {
 3716              		.loc 1 1302 15 is_stmt 0 view .LVU1031
 3717 0066 B342     		cmp	r3, r6
 3718 0068 08BF     		it	eq
 3719 006a A242     		cmpeq	r2, r4
 3720 006c 03D1     		bne	.L299
1303:src-gen/Main/core/reactor_common.c ****     } else {
 3721              		.loc 1 1303 9 is_stmt 1 view .LVU1032
1303:src-gen/Main/core/reactor_common.c ****     } else {
 3722              		.loc 1 1303 25 is_stmt 0 view .LVU1033
 3723 006e 2B69     		ldr	r3, [r5, #16]
ARM GAS  /var/folders/2h/lww79zv53b510qlyvytqnvq40000gn/T//ccDbZlJP.s 			page 103


1303:src-gen/Main/core/reactor_common.c ****     } else {
 3724              		.loc 1 1303 35 view .LVU1034
 3725 0070 0133     		adds	r3, r3, #1
 3726 0072 2B61     		str	r3, [r5, #16]
 3727 0074 DEE7     		b	.L294
 3728              	.L299:
1305:src-gen/Main/core/reactor_common.c ****     }
 3729              		.loc 1 1305 9 is_stmt 1 view .LVU1035
 3730 0076 0748     		ldr	r0, .L303+20
 3731 0078 FFF7FEFF 		bl	lf_print_error_and_exit
 3732              	.LVL388:
1307:src-gen/Main/core/reactor_common.c ****         next_time - start_time, env->current_tag.microstep, lf_time_physical_elapsed());
 3733              		.loc 1 1307 5 view .LVU1036
1307:src-gen/Main/core/reactor_common.c ****         next_time - start_time, env->current_tag.microstep, lf_time_physical_elapsed());
 3734              		.loc 1 1307 5 view .LVU1037
1307:src-gen/Main/core/reactor_common.c ****         next_time - start_time, env->current_tag.microstep, lf_time_physical_elapsed());
 3735              		.loc 1 1307 5 view .LVU1038
 3736              		.loc 1 1309 1 is_stmt 0 view .LVU1039
 3737 007c DAE7     		b	.L294
 3738              	.L304:
 3739 007e 00BF     		.align	2
 3740              	.L303:
 3741 0080 00000000 		.word	.LC0
 3742 0084 00000000 		.word	__func__.2
 3743 0088 1C000000 		.word	.LC1
 3744 008c 00000000 		.word	start_time
 3745 0090 00000000 		.word	.LC14
 3746 0094 70000000 		.word	.LC15
 3747              		.cfi_endproc
 3748              	.LFE158:
 3750              		.section	.rodata._lf_schedule_int.str1.4,"aMS",%progbits,1
 3751              		.align	2
 3752              	.LC16:
 3753 0000 41637469 		.ascii	"Action type is not an integer. element_size is %zu\000"
 3753      6F6E2074 
 3753      79706520 
 3753      6973206E 
 3753      6F742061 
 3754              		.section	.text._lf_schedule_int,"ax",%progbits
 3755              		.align	1
 3756              		.global	_lf_schedule_int
 3757              		.syntax unified
 3758              		.thumb
 3759              		.thumb_func
 3761              	_lf_schedule_int:
 3762              	.LVL389:
 3763              	.LFB159:
1310:src-gen/Main/core/reactor_common.c **** 
1311:src-gen/Main/core/reactor_common.c **** /**
1312:src-gen/Main/core/reactor_common.c ****  * Variant of schedule_value when the value is an integer.
1313:src-gen/Main/core/reactor_common.c ****  * See reactor.h for documentation.
1314:src-gen/Main/core/reactor_common.c ****  * @param action Pointer to an action on the self struct.
1315:src-gen/Main/core/reactor_common.c ****  */
1316:src-gen/Main/core/reactor_common.c **** trigger_handle_t _lf_schedule_int(lf_action_base_t* action, interval_t extra_delay, int value) {
 3764              		.loc 1 1316 96 is_stmt 1 view -0
 3765              		.cfi_startproc
 3766              		@ args = 4, pretend = 0, frame = 0
ARM GAS  /var/folders/2h/lww79zv53b510qlyvytqnvq40000gn/T//ccDbZlJP.s 			page 104


 3767              		@ frame_needed = 0, uses_anonymous_args = 0
 3768              		.loc 1 1316 96 is_stmt 0 view .LVU1041
 3769 0000 70B5     		push	{r4, r5, r6, lr}
 3770              	.LCFI60:
 3771              		.cfi_def_cfa_offset 16
 3772              		.cfi_offset 4, -16
 3773              		.cfi_offset 5, -12
 3774              		.cfi_offset 6, -8
 3775              		.cfi_offset 14, -4
 3776 0002 82B0     		sub	sp, sp, #8
 3777              	.LCFI61:
 3778              		.cfi_def_cfa_offset 24
1317:src-gen/Main/core/reactor_common.c ****     token_template_t* template = (token_template_t*)action;
 3779              		.loc 1 1317 5 is_stmt 1 view .LVU1042
 3780              	.LVL390:
1318:src-gen/Main/core/reactor_common.c **** 
1319:src-gen/Main/core/reactor_common.c ****     // NOTE: This doesn't acquire the mutex lock in the multithreaded version
1320:src-gen/Main/core/reactor_common.c ****     // until schedule_value is called. This should be OK because the element_size
1321:src-gen/Main/core/reactor_common.c ****     // does not change dynamically.
1322:src-gen/Main/core/reactor_common.c ****     if (template->type.element_size != sizeof(int)) {
 3781              		.loc 1 1322 5 view .LVU1043
 3782              		.loc 1 1322 23 is_stmt 0 view .LVU1044
 3783 0004 0168     		ldr	r1, [r0]
 3784              		.loc 1 1322 8 view .LVU1045
 3785 0006 0429     		cmp	r1, #4
 3786 0008 11D1     		bne	.L309
 3787 000a 0446     		mov	r4, r0
 3788 000c 1646     		mov	r6, r2
 3789 000e 1D46     		mov	r5, r3
1323:src-gen/Main/core/reactor_common.c ****         lf_print_error("Action type is not an integer. element_size is %zu", template->type.element
1324:src-gen/Main/core/reactor_common.c ****         return -1;
1325:src-gen/Main/core/reactor_common.c ****     }
1326:src-gen/Main/core/reactor_common.c ****     int* container = (int*)malloc(sizeof(int));
 3790              		.loc 1 1326 5 is_stmt 1 view .LVU1046
 3791              		.loc 1 1326 28 is_stmt 0 view .LVU1047
 3792 0010 0420     		movs	r0, #4
 3793              	.LVL391:
 3794              		.loc 1 1326 28 view .LVU1048
 3795 0012 FFF7FEFF 		bl	malloc
 3796              	.LVL392:
1327:src-gen/Main/core/reactor_common.c ****     *container = value;
 3797              		.loc 1 1327 5 is_stmt 1 view .LVU1049
 3798              		.loc 1 1327 16 is_stmt 0 view .LVU1050
 3799 0016 069B     		ldr	r3, [sp, #24]
 3800 0018 0360     		str	r3, [r0]
1328:src-gen/Main/core/reactor_common.c ****     return _lf_schedule_value(action, extra_delay, container, 1);
 3801              		.loc 1 1328 5 is_stmt 1 view .LVU1051
 3802              		.loc 1 1328 12 is_stmt 0 view .LVU1052
 3803 001a 0123     		movs	r3, #1
 3804 001c 0193     		str	r3, [sp, #4]
 3805 001e 0090     		str	r0, [sp]
 3806 0020 3246     		mov	r2, r6
 3807 0022 2B46     		mov	r3, r5
 3808 0024 2046     		mov	r0, r4
 3809              	.LVL393:
 3810              		.loc 1 1328 12 view .LVU1053
 3811 0026 FFF7FEFF 		bl	_lf_schedule_value
ARM GAS  /var/folders/2h/lww79zv53b510qlyvytqnvq40000gn/T//ccDbZlJP.s 			page 105


 3812              	.LVL394:
 3813              	.L305:
1329:src-gen/Main/core/reactor_common.c **** }
 3814              		.loc 1 1329 1 view .LVU1054
 3815 002a 02B0     		add	sp, sp, #8
 3816              	.LCFI62:
 3817              		.cfi_remember_state
 3818              		.cfi_def_cfa_offset 16
 3819              		@ sp needed
 3820 002c 70BD     		pop	{r4, r5, r6, pc}
 3821              	.LVL395:
 3822              	.L309:
 3823              	.LCFI63:
 3824              		.cfi_restore_state
1323:src-gen/Main/core/reactor_common.c ****         return -1;
 3825              		.loc 1 1323 9 is_stmt 1 view .LVU1055
 3826 002e 0348     		ldr	r0, .L310
 3827              	.LVL396:
1323:src-gen/Main/core/reactor_common.c ****         return -1;
 3828              		.loc 1 1323 9 is_stmt 0 view .LVU1056
 3829 0030 FFF7FEFF 		bl	lf_print_error
 3830              	.LVL397:
1324:src-gen/Main/core/reactor_common.c ****     }
 3831              		.loc 1 1324 9 is_stmt 1 view .LVU1057
1324:src-gen/Main/core/reactor_common.c ****     }
 3832              		.loc 1 1324 16 is_stmt 0 view .LVU1058
 3833 0034 4FF0FF30 		mov	r0, #-1
 3834 0038 F7E7     		b	.L305
 3835              	.L311:
 3836 003a 00BF     		.align	2
 3837              	.L310:
 3838 003c 00000000 		.word	.LC16
 3839              		.cfi_endproc
 3840              	.LFE159:
 3842              		.section	.text._lf_invoke_reaction,"ax",%progbits
 3843              		.align	1
 3844              		.global	_lf_invoke_reaction
 3845              		.syntax unified
 3846              		.thumb
 3847              		.thumb_func
 3849              	_lf_invoke_reaction:
 3850              	.LVL398:
 3851              	.LFB160:
1330:src-gen/Main/core/reactor_common.c **** 
1331:src-gen/Main/core/reactor_common.c **** /**
1332:src-gen/Main/core/reactor_common.c **** 
1333:src-gen/Main/core/reactor_common.c ****  * Invoke the given reaction
1334:src-gen/Main/core/reactor_common.c ****  *
1335:src-gen/Main/core/reactor_common.c ****  * @param env Environment in which we are executing.
1336:src-gen/Main/core/reactor_common.c ****  * @param reaction The reaction that has just executed.
1337:src-gen/Main/core/reactor_common.c ****  * @param worker The thread number of the worker thread or 0 for unthreaded execution (for tracing)
1338:src-gen/Main/core/reactor_common.c ****  */
1339:src-gen/Main/core/reactor_common.c **** void _lf_invoke_reaction(environment_t* env, reaction_t* reaction, int worker) {
 3852              		.loc 1 1339 80 is_stmt 1 view -0
 3853              		.cfi_startproc
 3854              		@ args = 0, pretend = 0, frame = 0
 3855              		@ frame_needed = 0, uses_anonymous_args = 0
ARM GAS  /var/folders/2h/lww79zv53b510qlyvytqnvq40000gn/T//ccDbZlJP.s 			page 106


 3856              		.loc 1 1339 80 is_stmt 0 view .LVU1060
 3857 0000 10B5     		push	{r4, lr}
 3858              	.LCFI64:
 3859              		.cfi_def_cfa_offset 8
 3860              		.cfi_offset 4, -8
 3861              		.cfi_offset 14, -4
1340:src-gen/Main/core/reactor_common.c ****     assert(env != GLOBAL_ENVIRONMENT);
 3862              		.loc 1 1340 5 is_stmt 1 view .LVU1061
 3863 0002 48B1     		cbz	r0, .L315
 3864 0004 0C46     		mov	r4, r1
1341:src-gen/Main/core/reactor_common.c **** 
1342:src-gen/Main/core/reactor_common.c **** #ifdef LF_THREADED
1343:src-gen/Main/core/reactor_common.c ****     if (((self_base_t*) reaction->self)->reactor_mutex != NULL) {
1344:src-gen/Main/core/reactor_common.c ****         lf_mutex_lock((lf_mutex_t*)((self_base_t*)reaction->self)->reactor_mutex);
1345:src-gen/Main/core/reactor_common.c ****     }
1346:src-gen/Main/core/reactor_common.c **** #endif
1347:src-gen/Main/core/reactor_common.c **** 
1348:src-gen/Main/core/reactor_common.c ****     tracepoint_reaction_starts(env->trace, reaction, worker);
 3865              		.loc 1 1348 61 view .LVU1062
1349:src-gen/Main/core/reactor_common.c ****     ((self_base_t*) reaction->self)->executing_reaction = reaction;
 3866              		.loc 1 1349 5 view .LVU1063
 3867              		.loc 1 1349 29 is_stmt 0 view .LVU1064
 3868 0006 4B68     		ldr	r3, [r1, #4]
 3869              		.loc 1 1349 57 view .LVU1065
 3870 0008 5960     		str	r1, [r3, #4]
1350:src-gen/Main/core/reactor_common.c ****     reaction->function(reaction->self);
 3871              		.loc 1 1350 5 is_stmt 1 view .LVU1066
 3872              		.loc 1 1350 13 is_stmt 0 view .LVU1067
 3873 000a 0B68     		ldr	r3, [r1]
 3874              		.loc 1 1350 5 view .LVU1068
 3875 000c 4868     		ldr	r0, [r1, #4]
 3876              	.LVL399:
 3877              		.loc 1 1350 5 view .LVU1069
 3878 000e 9847     		blx	r3
 3879              	.LVL400:
1351:src-gen/Main/core/reactor_common.c ****     ((self_base_t*) reaction->self)->executing_reaction = NULL;
 3880              		.loc 1 1351 5 is_stmt 1 view .LVU1070
 3881              		.loc 1 1351 29 is_stmt 0 view .LVU1071
 3882 0010 6368     		ldr	r3, [r4, #4]
 3883              		.loc 1 1351 57 view .LVU1072
 3884 0012 0022     		movs	r2, #0
 3885 0014 5A60     		str	r2, [r3, #4]
1352:src-gen/Main/core/reactor_common.c ****     tracepoint_reaction_ends(env->trace, reaction, worker);
 3886              		.loc 1 1352 59 is_stmt 1 view .LVU1073
1353:src-gen/Main/core/reactor_common.c **** 
1354:src-gen/Main/core/reactor_common.c **** 
1355:src-gen/Main/core/reactor_common.c **** #ifdef LF_THREADED
1356:src-gen/Main/core/reactor_common.c ****     if (((self_base_t*) reaction->self)->reactor_mutex != NULL) {
1357:src-gen/Main/core/reactor_common.c ****         lf_mutex_unlock((lf_mutex_t*)((self_base_t*)reaction->self)->reactor_mutex);
1358:src-gen/Main/core/reactor_common.c ****     }
1359:src-gen/Main/core/reactor_common.c **** #endif
1360:src-gen/Main/core/reactor_common.c **** }
 3887              		.loc 1 1360 1 is_stmt 0 view .LVU1074
 3888 0016 10BD     		pop	{r4, pc}
 3889              	.LVL401:
 3890              	.L315:
1340:src-gen/Main/core/reactor_common.c **** 
ARM GAS  /var/folders/2h/lww79zv53b510qlyvytqnvq40000gn/T//ccDbZlJP.s 			page 107


 3891              		.loc 1 1340 5 discriminator 1 view .LVU1075
 3892 0018 034B     		ldr	r3, .L316
 3893 001a 044A     		ldr	r2, .L316+4
 3894              	.LVL402:
1340:src-gen/Main/core/reactor_common.c **** 
 3895              		.loc 1 1340 5 discriminator 1 view .LVU1076
 3896 001c 40F23C51 		movw	r1, #1340
 3897              	.LVL403:
1340:src-gen/Main/core/reactor_common.c **** 
 3898              		.loc 1 1340 5 discriminator 1 view .LVU1077
 3899 0020 0348     		ldr	r0, .L316+8
 3900              	.LVL404:
1340:src-gen/Main/core/reactor_common.c **** 
 3901              		.loc 1 1340 5 discriminator 1 view .LVU1078
 3902 0022 FFF7FEFF 		bl	__assert_func
 3903              	.LVL405:
 3904              	.L317:
 3905 0026 00BF     		.align	2
 3906              	.L316:
 3907 0028 00000000 		.word	.LC0
 3908 002c 00000000 		.word	__func__.1
 3909 0030 1C000000 		.word	.LC1
 3910              		.cfi_endproc
 3911              	.LFE160:
 3913              		.section	.text.schedule_output_reactions,"ax",%progbits
 3914              		.align	1
 3915              		.global	schedule_output_reactions
 3916              		.syntax unified
 3917              		.thumb
 3918              		.thumb_func
 3920              	schedule_output_reactions:
 3921              	.LVL406:
 3922              	.LFB161:
1361:src-gen/Main/core/reactor_common.c **** 
1362:src-gen/Main/core/reactor_common.c **** /**
1363:src-gen/Main/core/reactor_common.c ****  * For the specified reaction, if it has produced outputs, insert the
1364:src-gen/Main/core/reactor_common.c ****  * resulting triggered reactions into the reaction queue.
1365:src-gen/Main/core/reactor_common.c ****  * This procedure assumes the mutex lock is NOT held and grabs
1366:src-gen/Main/core/reactor_common.c ****  * the lock only when it actually inserts something onto the reaction queue.
1367:src-gen/Main/core/reactor_common.c ****  * @param env Environment in which we are executing.
1368:src-gen/Main/core/reactor_common.c ****  * @param reaction The reaction that has just executed.
1369:src-gen/Main/core/reactor_common.c ****  * @param worker The thread number of the worker thread or 0 for unthreaded execution (for tracing)
1370:src-gen/Main/core/reactor_common.c ****  */
1371:src-gen/Main/core/reactor_common.c **** void schedule_output_reactions(environment_t *env, reaction_t* reaction, int worker) {
 3923              		.loc 1 1371 86 is_stmt 1 view -0
 3924              		.cfi_startproc
 3925              		@ args = 0, pretend = 0, frame = 24
 3926              		@ frame_needed = 0, uses_anonymous_args = 0
 3927              		.loc 1 1371 86 is_stmt 0 view .LVU1080
 3928 0000 2DE9F04F 		push	{r4, r5, r6, r7, r8, r9, r10, fp, lr}
 3929              	.LCFI65:
 3930              		.cfi_def_cfa_offset 36
 3931              		.cfi_offset 4, -36
 3932              		.cfi_offset 5, -32
 3933              		.cfi_offset 6, -28
 3934              		.cfi_offset 7, -24
 3935              		.cfi_offset 8, -20
ARM GAS  /var/folders/2h/lww79zv53b510qlyvytqnvq40000gn/T//ccDbZlJP.s 			page 108


 3936              		.cfi_offset 9, -16
 3937              		.cfi_offset 10, -12
 3938              		.cfi_offset 11, -8
 3939              		.cfi_offset 14, -4
 3940 0004 87B0     		sub	sp, sp, #28
 3941              	.LCFI66:
 3942              		.cfi_def_cfa_offset 64
 3943 0006 0592     		str	r2, [sp, #20]
1372:src-gen/Main/core/reactor_common.c ****     assert(env != GLOBAL_ENVIRONMENT);
 3944              		.loc 1 1372 5 is_stmt 1 view .LVU1081
 3945 0008 38B1     		cbz	r0, .L338
 3946 000a 8346     		mov	fp, r0
 3947              	.LBB41:
1373:src-gen/Main/core/reactor_common.c **** 
1374:src-gen/Main/core/reactor_common.c ****     // If the reaction produced outputs, put the resulting triggered
1375:src-gen/Main/core/reactor_common.c ****     // reactions into the reaction queue. As an optimization, if exactly one
1376:src-gen/Main/core/reactor_common.c ****     // downstream reaction is enabled by this reaction, then it may be
1377:src-gen/Main/core/reactor_common.c ****     // executed immediately in this same thread
1378:src-gen/Main/core/reactor_common.c ****     // without going through the reaction queue.
1379:src-gen/Main/core/reactor_common.c ****     reaction_t* downstream_to_execute_now = NULL;
1380:src-gen/Main/core/reactor_common.c ****     int num_downstream_reactions = 0;
1381:src-gen/Main/core/reactor_common.c **** #ifdef FEDERATED_DECENTRALIZED // Only pass down STP violation for federated programs that use dece
1382:src-gen/Main/core/reactor_common.c ****     // Extract the inherited STP violation
1383:src-gen/Main/core/reactor_common.c ****     bool inherited_STP_violation = reaction->is_STP_violated;
1384:src-gen/Main/core/reactor_common.c ****     LF_PRINT_LOG("Reaction %s has STP violation status: %d.", reaction->name, reaction->is_STP_viol
1385:src-gen/Main/core/reactor_common.c **** #endif
1386:src-gen/Main/core/reactor_common.c ****     LF_PRINT_DEBUG("There are %zu outputs from reaction %s.", reaction->num_outputs, reaction->name
1387:src-gen/Main/core/reactor_common.c ****     for (size_t i=0; i < reaction->num_outputs; i++) {
 3948              		.loc 1 1387 17 is_stmt 0 view .LVU1082
 3949 000c 0025     		movs	r5, #0
 3950              	.LBE41:
1380:src-gen/Main/core/reactor_common.c **** #ifdef FEDERATED_DECENTRALIZED // Only pass down STP violation for federated programs that use dece
 3951              		.loc 1 1380 9 view .LVU1083
 3952 000e A846     		mov	r8, r5
1379:src-gen/Main/core/reactor_common.c ****     int num_downstream_reactions = 0;
 3953              		.loc 1 1379 17 view .LVU1084
 3954 0010 2F46     		mov	r7, r5
 3955 0012 0A46     		mov	r2, r1
 3956              	.LVL407:
1379:src-gen/Main/core/reactor_common.c ****     int num_downstream_reactions = 0;
 3957              		.loc 1 1379 17 view .LVU1085
 3958 0014 DDF81490 		ldr	r9, [sp, #20]
 3959 0018 41E0     		b	.L319
 3960              	.LVL408:
 3961              	.L338:
1372:src-gen/Main/core/reactor_common.c **** 
 3962              		.loc 1 1372 5 discriminator 1 view .LVU1086
 3963 001a 424B     		ldr	r3, .L343
 3964 001c 424A     		ldr	r2, .L343+4
 3965              	.LVL409:
1372:src-gen/Main/core/reactor_common.c **** 
 3966              		.loc 1 1372 5 discriminator 1 view .LVU1087
 3967 001e 40F25C51 		movw	r1, #1372
 3968              	.LVL410:
1372:src-gen/Main/core/reactor_common.c **** 
 3969              		.loc 1 1372 5 discriminator 1 view .LVU1088
 3970 0022 4248     		ldr	r0, .L343+8
ARM GAS  /var/folders/2h/lww79zv53b510qlyvytqnvq40000gn/T//ccDbZlJP.s 			page 109


 3971              	.LVL411:
1372:src-gen/Main/core/reactor_common.c **** 
 3972              		.loc 1 1372 5 discriminator 1 view .LVU1089
 3973 0024 FFF7FEFF 		bl	__assert_func
 3974              	.LVL412:
 3975              	.L340:
 3976              	.LBB52:
 3977              	.LBB42:
 3978              	.LBB43:
 3979              	.LBB44:
 3980              	.LBB45:
 3981              	.LBB46:
1388:src-gen/Main/core/reactor_common.c ****         if (reaction->output_produced[i] != NULL && *(reaction->output_produced[i])) {
1389:src-gen/Main/core/reactor_common.c ****             LF_PRINT_DEBUG("Output %zu has been produced.", i);
1390:src-gen/Main/core/reactor_common.c ****             trigger_t** triggerArray = (reaction->triggers)[i];
1391:src-gen/Main/core/reactor_common.c ****             LF_PRINT_DEBUG("There are %d trigger arrays associated with output %zu.",
1392:src-gen/Main/core/reactor_common.c ****                     reaction->triggered_sizes[i], i);
1393:src-gen/Main/core/reactor_common.c ****             for (int j=0; j < reaction->triggered_sizes[i]; j++) {
1394:src-gen/Main/core/reactor_common.c ****                 trigger_t* trigger = triggerArray[j];
1395:src-gen/Main/core/reactor_common.c ****                 if (trigger != NULL) {
1396:src-gen/Main/core/reactor_common.c ****                     LF_PRINT_DEBUG("Trigger %p lists %d reactions.", trigger, trigger->number_of_re
1397:src-gen/Main/core/reactor_common.c ****                     for (int k=0; k < trigger->number_of_reactions; k++) {
1398:src-gen/Main/core/reactor_common.c ****                         reaction_t* downstream_reaction = trigger->reactions[k];
1399:src-gen/Main/core/reactor_common.c **** #ifdef FEDERATED_DECENTRALIZED // Only pass down tardiness for federated LF programs
1400:src-gen/Main/core/reactor_common.c ****                         // Set the is_STP_violated for the downstream reaction
1401:src-gen/Main/core/reactor_common.c ****                         if (downstream_reaction != NULL) {
1402:src-gen/Main/core/reactor_common.c ****                             downstream_reaction->is_STP_violated = inherited_STP_violation;
1403:src-gen/Main/core/reactor_common.c ****                             LF_PRINT_DEBUG("Passing is_STP_violated of %d to the downstream reactio
1404:src-gen/Main/core/reactor_common.c ****                                     downstream_reaction->is_STP_violated, downstream_reaction->name
1405:src-gen/Main/core/reactor_common.c ****                         }
1406:src-gen/Main/core/reactor_common.c **** #endif
1407:src-gen/Main/core/reactor_common.c ****                         if (downstream_reaction != NULL && downstream_reaction != downstream_to_exe
1408:src-gen/Main/core/reactor_common.c ****                             num_downstream_reactions++;
1409:src-gen/Main/core/reactor_common.c ****                             // If there is exactly one downstream reaction that is enabled by this
1410:src-gen/Main/core/reactor_common.c ****                             // reaction, then we can execute that reaction immediately without
1411:src-gen/Main/core/reactor_common.c ****                             // going through the reaction queue. In multithreaded execution, this
1412:src-gen/Main/core/reactor_common.c ****                             // avoids acquiring a mutex lock.
1413:src-gen/Main/core/reactor_common.c ****                             // FIXME: Check the earliest deadline on the reaction queue.
1414:src-gen/Main/core/reactor_common.c ****                             // This optimization could violate EDF scheduling otherwise.
1415:src-gen/Main/core/reactor_common.c ****                             if (num_downstream_reactions == 1 && downstream_reaction->last_enabling
 3982              		.loc 1 1415 85 discriminator 1 view .LVU1090
 3983 0028 6B6A     		ldr	r3, [r5, #36]
 3984              		.loc 1 1415 63 discriminator 1 view .LVU1091
 3985 002a 5345     		cmp	r3, r10
 3986 002c 16D1     		bne	.L325
1416:src-gen/Main/core/reactor_common.c ****                                 // So far, this downstream reaction is a candidate to execute now.
1417:src-gen/Main/core/reactor_common.c ****                                 downstream_to_execute_now = downstream_reaction;
 3987              		.loc 1 1417 59 view .LVU1092
 3988 002e 2F46     		mov	r7, r5
 3989              	.LVL413:
 3990              		.loc 1 1417 59 view .LVU1093
 3991 0030 04E0     		b	.L324
 3992              	.LVL414:
 3993              	.L326:
1418:src-gen/Main/core/reactor_common.c ****                             } else {
1419:src-gen/Main/core/reactor_common.c ****                                 // If there is a previous candidate reaction to execute now,
1420:src-gen/Main/core/reactor_common.c ****                                 // it is no longer a candidate.
ARM GAS  /var/folders/2h/lww79zv53b510qlyvytqnvq40000gn/T//ccDbZlJP.s 			page 110


1421:src-gen/Main/core/reactor_common.c ****                                 if (downstream_to_execute_now != NULL) {
1422:src-gen/Main/core/reactor_common.c ****                                     // More than one downstream reaction is enabled.
1423:src-gen/Main/core/reactor_common.c ****                                     // In this case, if we were to execute the downstream reaction
1424:src-gen/Main/core/reactor_common.c ****                                     // immediately without changing any queues, then the second
1425:src-gen/Main/core/reactor_common.c ****                                     // downstream reaction would be blocked because this reaction
1426:src-gen/Main/core/reactor_common.c ****                                     // remains on the executing queue. Hence, the optimization
1427:src-gen/Main/core/reactor_common.c ****                                     // is not valid. Put the candidate reaction on the queue.
1428:src-gen/Main/core/reactor_common.c ****                                     _lf_trigger_reaction(env, downstream_to_execute_now, worker);
1429:src-gen/Main/core/reactor_common.c ****                                     downstream_to_execute_now = NULL;
1430:src-gen/Main/core/reactor_common.c ****                                 }
1431:src-gen/Main/core/reactor_common.c ****                                 // Queue the reaction.
1432:src-gen/Main/core/reactor_common.c ****                                 _lf_trigger_reaction(env, downstream_reaction, worker);
 3994              		.loc 1 1432 33 is_stmt 1 view .LVU1094
 3995 0032 4A46     		mov	r2, r9
 3996 0034 2946     		mov	r1, r5
 3997 0036 5846     		mov	r0, fp
 3998 0038 FFF7FEFF 		bl	_lf_trigger_reaction
 3999              	.LVL415:
 4000              	.L324:
 4001              		.loc 1 1432 33 is_stmt 0 view .LVU1095
 4002              	.LBE46:
1397:src-gen/Main/core/reactor_common.c ****                         reaction_t* downstream_reaction = trigger->reactions[k];
 4003              		.loc 1 1397 70 is_stmt 1 discriminator 2 view .LVU1096
 4004 003c 0134     		adds	r4, r4, #1
 4005              	.LVL416:
 4006              	.L322:
1397:src-gen/Main/core/reactor_common.c ****                         reaction_t* downstream_reaction = trigger->reactions[k];
 4007              		.loc 1 1397 37 discriminator 1 view .LVU1097
1397:src-gen/Main/core/reactor_common.c ****                         reaction_t* downstream_reaction = trigger->reactions[k];
 4008              		.loc 1 1397 46 is_stmt 0 discriminator 1 view .LVU1098
 4009 003e B369     		ldr	r3, [r6, #24]
1397:src-gen/Main/core/reactor_common.c ****                         reaction_t* downstream_reaction = trigger->reactions[k];
 4010              		.loc 1 1397 37 discriminator 1 view .LVU1099
 4011 0040 A342     		cmp	r3, r4
 4012 0042 14DD     		ble	.L339
 4013              	.LBB47:
1398:src-gen/Main/core/reactor_common.c **** #ifdef FEDERATED_DECENTRALIZED // Only pass down tardiness for federated LF programs
 4014              		.loc 1 1398 25 is_stmt 1 view .LVU1100
1398:src-gen/Main/core/reactor_common.c **** #ifdef FEDERATED_DECENTRALIZED // Only pass down tardiness for federated LF programs
 4015              		.loc 1 1398 66 is_stmt 0 view .LVU1101
 4016 0044 7369     		ldr	r3, [r6, #20]
1398:src-gen/Main/core/reactor_common.c **** #ifdef FEDERATED_DECENTRALIZED // Only pass down tardiness for federated LF programs
 4017              		.loc 1 1398 37 view .LVU1102
 4018 0046 53F82450 		ldr	r5, [r3, r4, lsl #2]
 4019              	.LVL417:
1407:src-gen/Main/core/reactor_common.c ****                             num_downstream_reactions++;
 4020              		.loc 1 1407 25 is_stmt 1 view .LVU1103
1407:src-gen/Main/core/reactor_common.c ****                             num_downstream_reactions++;
 4021              		.loc 1 1407 28 is_stmt 0 view .LVU1104
 4022 004a 002D     		cmp	r5, #0
 4023 004c F6D0     		beq	.L324
1407:src-gen/Main/core/reactor_common.c ****                             num_downstream_reactions++;
 4024              		.loc 1 1407 57 discriminator 1 view .LVU1105
 4025 004e AF42     		cmp	r7, r5
 4026 0050 F4D0     		beq	.L324
1408:src-gen/Main/core/reactor_common.c ****                             // If there is exactly one downstream reaction that is enabled by this
 4027              		.loc 1 1408 29 is_stmt 1 view .LVU1106
ARM GAS  /var/folders/2h/lww79zv53b510qlyvytqnvq40000gn/T//ccDbZlJP.s 			page 111


1408:src-gen/Main/core/reactor_common.c ****                             // If there is exactly one downstream reaction that is enabled by this
 4028              		.loc 1 1408 53 is_stmt 0 view .LVU1107
 4029 0052 08F10108 		add	r8, r8, #1
 4030              	.LVL418:
1415:src-gen/Main/core/reactor_common.c ****                                 // So far, this downstream reaction is a candidate to execute now.
 4031              		.loc 1 1415 29 is_stmt 1 view .LVU1108
1415:src-gen/Main/core/reactor_common.c ****                                 // So far, this downstream reaction is a candidate to execute now.
 4032              		.loc 1 1415 32 is_stmt 0 view .LVU1109
 4033 0056 B8F1010F 		cmp	r8, #1
 4034 005a E5D0     		beq	.L340
 4035              	.L325:
1421:src-gen/Main/core/reactor_common.c ****                                     // More than one downstream reaction is enabled.
 4036              		.loc 1 1421 33 is_stmt 1 view .LVU1110
1421:src-gen/Main/core/reactor_common.c ****                                     // More than one downstream reaction is enabled.
 4037              		.loc 1 1421 36 is_stmt 0 view .LVU1111
 4038 005c 002F     		cmp	r7, #0
 4039 005e E8D0     		beq	.L326
1428:src-gen/Main/core/reactor_common.c ****                                     downstream_to_execute_now = NULL;
 4040              		.loc 1 1428 37 is_stmt 1 view .LVU1112
 4041 0060 4A46     		mov	r2, r9
 4042 0062 3946     		mov	r1, r7
 4043 0064 5846     		mov	r0, fp
 4044 0066 FFF7FEFF 		bl	_lf_trigger_reaction
 4045              	.LVL419:
1429:src-gen/Main/core/reactor_common.c ****                                 }
 4046              		.loc 1 1429 37 view .LVU1113
1429:src-gen/Main/core/reactor_common.c ****                                 }
 4047              		.loc 1 1429 63 is_stmt 0 view .LVU1114
 4048 006a 0027     		movs	r7, #0
 4049 006c E1E7     		b	.L326
 4050              	.LVL420:
 4051              	.L339:
1429:src-gen/Main/core/reactor_common.c ****                                 }
 4052              		.loc 1 1429 63 view .LVU1115
 4053 006e 0199     		ldr	r1, [sp, #4]
 4054 0070 0398     		ldr	r0, [sp, #12]
 4055 0072 5246     		mov	r2, r10
 4056 0074 DDF808A0 		ldr	r10, [sp, #8]
 4057              	.LVL421:
 4058              	.L323:
1429:src-gen/Main/core/reactor_common.c ****                                 }
 4059              		.loc 1 1429 63 view .LVU1116
 4060              	.LBE47:
 4061              	.LBE45:
 4062              	.LBE44:
1393:src-gen/Main/core/reactor_common.c ****                 trigger_t* trigger = triggerArray[j];
 4063              		.loc 1 1393 62 is_stmt 1 discriminator 2 view .LVU1117
 4064 0078 0AF1010A 		add	r10, r10, #1
 4065              	.LVL422:
 4066              	.L321:
1393:src-gen/Main/core/reactor_common.c ****                 trigger_t* trigger = triggerArray[j];
 4067              		.loc 1 1393 29 discriminator 1 view .LVU1118
1393:src-gen/Main/core/reactor_common.c ****                 trigger_t* trigger = triggerArray[j];
 4068              		.loc 1 1393 39 is_stmt 0 discriminator 1 view .LVU1119
 4069 007c 136B     		ldr	r3, [r2, #48]
1393:src-gen/Main/core/reactor_common.c ****                 trigger_t* trigger = triggerArray[j];
 4070              		.loc 1 1393 56 discriminator 1 view .LVU1120
ARM GAS  /var/folders/2h/lww79zv53b510qlyvytqnvq40000gn/T//ccDbZlJP.s 			page 112


 4071 007e 5B58     		ldr	r3, [r3, r1]
1393:src-gen/Main/core/reactor_common.c ****                 trigger_t* trigger = triggerArray[j];
 4072              		.loc 1 1393 29 discriminator 1 view .LVU1121
 4073 0080 5345     		cmp	r3, r10
 4074 0082 0ADD     		ble	.L341
 4075              	.LBB49:
1394:src-gen/Main/core/reactor_common.c ****                 if (trigger != NULL) {
 4076              		.loc 1 1394 17 is_stmt 1 view .LVU1122
1394:src-gen/Main/core/reactor_common.c ****                 if (trigger != NULL) {
 4077              		.loc 1 1394 28 is_stmt 0 view .LVU1123
 4078 0084 50F82A60 		ldr	r6, [r0, r10, lsl #2]
 4079              	.LVL423:
1395:src-gen/Main/core/reactor_common.c ****                     LF_PRINT_DEBUG("Trigger %p lists %d reactions.", trigger, trigger->number_of_re
 4080              		.loc 1 1395 17 is_stmt 1 view .LVU1124
1395:src-gen/Main/core/reactor_common.c ****                     LF_PRINT_DEBUG("Trigger %p lists %d reactions.", trigger, trigger->number_of_re
 4081              		.loc 1 1395 20 is_stmt 0 view .LVU1125
 4082 0088 002E     		cmp	r6, #0
 4083 008a F5D0     		beq	.L323
 4084              	.LBB48:
1397:src-gen/Main/core/reactor_common.c ****                         reaction_t* downstream_reaction = trigger->reactions[k];
 4085              		.loc 1 1397 30 view .LVU1126
 4086 008c 0024     		movs	r4, #0
 4087 008e 0191     		str	r1, [sp, #4]
 4088 0090 CDF808A0 		str	r10, [sp, #8]
 4089 0094 0390     		str	r0, [sp, #12]
 4090 0096 9246     		mov	r10, r2
 4091              	.LVL424:
1397:src-gen/Main/core/reactor_common.c ****                         reaction_t* downstream_reaction = trigger->reactions[k];
 4092              		.loc 1 1397 30 view .LVU1127
 4093 0098 D1E7     		b	.L322
 4094              	.LVL425:
 4095              	.L341:
1397:src-gen/Main/core/reactor_common.c ****                         reaction_t* downstream_reaction = trigger->reactions[k];
 4096              		.loc 1 1397 30 view .LVU1128
 4097 009a 049D     		ldr	r5, [sp, #16]
 4098              	.LVL426:
 4099              	.L320:
1397:src-gen/Main/core/reactor_common.c ****                         reaction_t* downstream_reaction = trigger->reactions[k];
 4100              		.loc 1 1397 30 view .LVU1129
 4101              	.LBE48:
 4102              	.LBE49:
 4103              	.LBE43:
 4104              	.LBE42:
1387:src-gen/Main/core/reactor_common.c ****         if (reaction->output_produced[i] != NULL && *(reaction->output_produced[i])) {
 4105              		.loc 1 1387 50 is_stmt 1 discriminator 2 view .LVU1130
 4106 009c 0135     		adds	r5, r5, #1
 4107              	.LVL427:
 4108              	.L319:
1387:src-gen/Main/core/reactor_common.c ****         if (reaction->output_produced[i] != NULL && *(reaction->output_produced[i])) {
 4109              		.loc 1 1387 24 discriminator 1 view .LVU1131
1387:src-gen/Main/core/reactor_common.c ****         if (reaction->output_produced[i] != NULL && *(reaction->output_produced[i])) {
 4110              		.loc 1 1387 34 is_stmt 0 discriminator 1 view .LVU1132
 4111 009e 936A     		ldr	r3, [r2, #40]
1387:src-gen/Main/core/reactor_common.c ****         if (reaction->output_produced[i] != NULL && *(reaction->output_produced[i])) {
 4112              		.loc 1 1387 24 discriminator 1 view .LVU1133
 4113 00a0 AB42     		cmp	r3, r5
 4114 00a2 0ED9     		bls	.L342
ARM GAS  /var/folders/2h/lww79zv53b510qlyvytqnvq40000gn/T//ccDbZlJP.s 			page 113


1388:src-gen/Main/core/reactor_common.c ****             LF_PRINT_DEBUG("Output %zu has been produced.", i);
 4115              		.loc 1 1388 9 is_stmt 1 view .LVU1134
1388:src-gen/Main/core/reactor_common.c ****             LF_PRINT_DEBUG("Output %zu has been produced.", i);
 4116              		.loc 1 1388 21 is_stmt 0 view .LVU1135
 4117 00a4 D36A     		ldr	r3, [r2, #44]
1388:src-gen/Main/core/reactor_common.c ****             LF_PRINT_DEBUG("Output %zu has been produced.", i);
 4118              		.loc 1 1388 38 view .LVU1136
 4119 00a6 A900     		lsls	r1, r5, #2
 4120 00a8 53F82530 		ldr	r3, [r3, r5, lsl #2]
1388:src-gen/Main/core/reactor_common.c ****             LF_PRINT_DEBUG("Output %zu has been produced.", i);
 4121              		.loc 1 1388 12 view .LVU1137
 4122 00ac 002B     		cmp	r3, #0
 4123 00ae F5D0     		beq	.L320
1388:src-gen/Main/core/reactor_common.c ****             LF_PRINT_DEBUG("Output %zu has been produced.", i);
 4124              		.loc 1 1388 53 discriminator 1 view .LVU1138
 4125 00b0 1B78     		ldrb	r3, [r3]	@ zero_extendqisi2
1388:src-gen/Main/core/reactor_common.c ****             LF_PRINT_DEBUG("Output %zu has been produced.", i);
 4126              		.loc 1 1388 50 discriminator 1 view .LVU1139
 4127 00b2 002B     		cmp	r3, #0
 4128 00b4 F2D0     		beq	.L320
 4129              	.LBB51:
1389:src-gen/Main/core/reactor_common.c ****             trigger_t** triggerArray = (reaction->triggers)[i];
 4130              		.loc 1 1389 13 is_stmt 1 discriminator 3 view .LVU1140
1389:src-gen/Main/core/reactor_common.c ****             trigger_t** triggerArray = (reaction->triggers)[i];
 4131              		.loc 1 1389 13 discriminator 3 view .LVU1141
1389:src-gen/Main/core/reactor_common.c ****             trigger_t** triggerArray = (reaction->triggers)[i];
 4132              		.loc 1 1389 13 discriminator 3 view .LVU1142
1390:src-gen/Main/core/reactor_common.c ****             LF_PRINT_DEBUG("There are %d trigger arrays associated with output %zu.",
 4133              		.loc 1 1390 13 discriminator 3 view .LVU1143
1390:src-gen/Main/core/reactor_common.c ****             LF_PRINT_DEBUG("There are %d trigger arrays associated with output %zu.",
 4134              		.loc 1 1390 49 is_stmt 0 discriminator 3 view .LVU1144
 4135 00b6 536B     		ldr	r3, [r2, #52]
1390:src-gen/Main/core/reactor_common.c ****             LF_PRINT_DEBUG("There are %d trigger arrays associated with output %zu.",
 4136              		.loc 1 1390 25 discriminator 3 view .LVU1145
 4137 00b8 5858     		ldr	r0, [r3, r1]
 4138              	.LVL428:
1391:src-gen/Main/core/reactor_common.c ****                     reaction->triggered_sizes[i], i);
 4139              		.loc 1 1391 13 is_stmt 1 discriminator 3 view .LVU1146
1391:src-gen/Main/core/reactor_common.c ****                     reaction->triggered_sizes[i], i);
 4140              		.loc 1 1391 13 discriminator 3 view .LVU1147
1391:src-gen/Main/core/reactor_common.c ****                     reaction->triggered_sizes[i], i);
 4141              		.loc 1 1391 13 discriminator 3 view .LVU1148
1393:src-gen/Main/core/reactor_common.c ****                 trigger_t* trigger = triggerArray[j];
 4142              		.loc 1 1393 13 discriminator 3 view .LVU1149
 4143              	.LBB50:
1393:src-gen/Main/core/reactor_common.c ****                 trigger_t* trigger = triggerArray[j];
 4144              		.loc 1 1393 18 discriminator 3 view .LVU1150
1393:src-gen/Main/core/reactor_common.c ****                 trigger_t* trigger = triggerArray[j];
 4145              		.loc 1 1393 22 is_stmt 0 discriminator 3 view .LVU1151
 4146 00ba 4FF0000A 		mov	r10, #0
 4147 00be 0495     		str	r5, [sp, #16]
1393:src-gen/Main/core/reactor_common.c ****                 trigger_t* trigger = triggerArray[j];
 4148              		.loc 1 1393 13 discriminator 3 view .LVU1152
 4149 00c0 DCE7     		b	.L321
 4150              	.LVL429:
 4151              	.L342:
1393:src-gen/Main/core/reactor_common.c ****                 trigger_t* trigger = triggerArray[j];
ARM GAS  /var/folders/2h/lww79zv53b510qlyvytqnvq40000gn/T//ccDbZlJP.s 			page 114


 4152              		.loc 1 1393 13 discriminator 3 view .LVU1153
 4153              	.LBE50:
 4154              	.LBE51:
 4155              	.LBE52:
1433:src-gen/Main/core/reactor_common.c ****                             }
1434:src-gen/Main/core/reactor_common.c ****                         }
1435:src-gen/Main/core/reactor_common.c ****                     }
1436:src-gen/Main/core/reactor_common.c ****                 }
1437:src-gen/Main/core/reactor_common.c ****             }
1438:src-gen/Main/core/reactor_common.c ****         }
1439:src-gen/Main/core/reactor_common.c ****     }
1440:src-gen/Main/core/reactor_common.c ****     if (downstream_to_execute_now != NULL) {
 4156              		.loc 1 1440 5 is_stmt 1 view .LVU1154
 4157              		.loc 1 1440 8 is_stmt 0 view .LVU1155
 4158 00c2 5FB3     		cbz	r7, .L318
 4159              	.LBB53:
1441:src-gen/Main/core/reactor_common.c ****         LF_PRINT_LOG("Worker %d: Optimizing and executing downstream reaction now: %s", worker, dow
 4160              		.loc 1 1441 9 is_stmt 1 discriminator 3 view .LVU1156
 4161              		.loc 1 1441 9 discriminator 3 view .LVU1157
 4162              		.loc 1 1441 9 discriminator 3 view .LVU1158
1442:src-gen/Main/core/reactor_common.c ****         bool violation = false;
 4163              		.loc 1 1442 9 discriminator 3 view .LVU1159
 4164              	.LVL430:
1443:src-gen/Main/core/reactor_common.c **** #ifdef FEDERATED_DECENTRALIZED // Only use the STP handler for federated programs that use decentra
1444:src-gen/Main/core/reactor_common.c ****         // If the is_STP_violated for the reaction is true,
1445:src-gen/Main/core/reactor_common.c ****         // an input trigger to this reaction has been triggered at a later
1446:src-gen/Main/core/reactor_common.c ****         // logical time than originally anticipated. In this case, a special
1447:src-gen/Main/core/reactor_common.c ****         // STP handler will be invoked.
1448:src-gen/Main/core/reactor_common.c ****         // FIXME: Note that the STP handler will be invoked
1449:src-gen/Main/core/reactor_common.c ****         // at most once per logical time value. If the STP handler triggers the
1450:src-gen/Main/core/reactor_common.c ****         // same reaction at the current time value, even if at a future superdense time,
1451:src-gen/Main/core/reactor_common.c ****         // then the reaction will be invoked and the STP handler will not be invoked again.
1452:src-gen/Main/core/reactor_common.c ****         // However, input ports to a federate reactor are network port types so this possibly shoul
1453:src-gen/Main/core/reactor_common.c ****         // be disallowed.
1454:src-gen/Main/core/reactor_common.c ****         // @note The STP handler and the deadline handler are not mutually exclusive.
1455:src-gen/Main/core/reactor_common.c ****         //  In other words, both can be invoked for a reaction if it is triggered late
1456:src-gen/Main/core/reactor_common.c ****         //  in logical time (STP offset is violated) and also misses the constraint on
1457:src-gen/Main/core/reactor_common.c ****         //  physical time (deadline).
1458:src-gen/Main/core/reactor_common.c ****         // @note In absence of a STP handler, the is_STP_violated will be passed down the reaction
1459:src-gen/Main/core/reactor_common.c ****         //  chain until it is dealt with in a downstream STP handler.
1460:src-gen/Main/core/reactor_common.c ****         if (downstream_to_execute_now->is_STP_violated == true) {
1461:src-gen/Main/core/reactor_common.c ****             // Tardiness has occurred
1462:src-gen/Main/core/reactor_common.c ****             LF_PRINT_LOG("Event has STP violation.");
1463:src-gen/Main/core/reactor_common.c ****             reaction_function_t handler = downstream_to_execute_now->STP_handler;
1464:src-gen/Main/core/reactor_common.c ****             // Invoke the STP handler if there is one.
1465:src-gen/Main/core/reactor_common.c ****             if (handler != NULL) {
1466:src-gen/Main/core/reactor_common.c ****                 // There is a violation and it is being handled here
1467:src-gen/Main/core/reactor_common.c ****                 // If there is no STP handler, pass the is_STP_violated
1468:src-gen/Main/core/reactor_common.c ****                 // to downstream reactions.
1469:src-gen/Main/core/reactor_common.c ****                 violation = true;
1470:src-gen/Main/core/reactor_common.c ****                 LF_PRINT_LOG("Invoke tardiness handler.");
1471:src-gen/Main/core/reactor_common.c ****                 (*handler)(downstream_to_execute_now->self);
1472:src-gen/Main/core/reactor_common.c **** 
1473:src-gen/Main/core/reactor_common.c ****                 // If the reaction produced outputs, put the resulting
1474:src-gen/Main/core/reactor_common.c ****                 // triggered reactions into the queue or execute them directly if possible.
1475:src-gen/Main/core/reactor_common.c ****                 schedule_output_reactions(env, downstream_to_execute_now, worker);
1476:src-gen/Main/core/reactor_common.c **** 
ARM GAS  /var/folders/2h/lww79zv53b510qlyvytqnvq40000gn/T//ccDbZlJP.s 			page 115


1477:src-gen/Main/core/reactor_common.c ****                 // Reset the tardiness because it has been dealt with in the
1478:src-gen/Main/core/reactor_common.c ****                 // STP handler
1479:src-gen/Main/core/reactor_common.c ****                 downstream_to_execute_now->is_STP_violated = false;
1480:src-gen/Main/core/reactor_common.c ****                 LF_PRINT_DEBUG("Reset reaction's is_STP_violated field to false: %s",
1481:src-gen/Main/core/reactor_common.c ****                         downstream_to_execute_now->name);
1482:src-gen/Main/core/reactor_common.c ****             }
1483:src-gen/Main/core/reactor_common.c ****         }
1484:src-gen/Main/core/reactor_common.c **** #endif
1485:src-gen/Main/core/reactor_common.c ****         if (downstream_to_execute_now->deadline >= 0LL) {
 4165              		.loc 1 1485 9 discriminator 3 view .LVU1160
 4166              		.loc 1 1485 38 is_stmt 0 discriminator 3 view .LVU1161
 4167 00c4 7B6C     		ldr	r3, [r7, #68]
 4168              		.loc 1 1485 12 discriminator 3 view .LVU1162
 4169 00c6 002B     		cmp	r3, #0
 4170 00c8 1ADB     		blt	.L331
 4171              	.LBB54:
1486:src-gen/Main/core/reactor_common.c ****             // Get the current physical time.
1487:src-gen/Main/core/reactor_common.c ****             instant_t physical_time = lf_time_physical();
 4172              		.loc 1 1487 13 is_stmt 1 view .LVU1163
 4173              		.loc 1 1487 39 is_stmt 0 view .LVU1164
 4174 00ca FFF7FEFF 		bl	lf_time_physical
 4175              	.LVL431:
1488:src-gen/Main/core/reactor_common.c ****             // Check for deadline violation.
1489:src-gen/Main/core/reactor_common.c ****             if (downstream_to_execute_now->deadline == 0 || physical_time > env->current_tag.time +
 4176              		.loc 1 1489 13 is_stmt 1 view .LVU1165
 4177              		.loc 1 1489 42 is_stmt 0 view .LVU1166
 4178 00ce 3B6C     		ldr	r3, [r7, #64]
 4179 00d0 7A6C     		ldr	r2, [r7, #68]
 4180              		.loc 1 1489 16 view .LVU1167
 4181 00d2 53EA0204 		orrs	r4, r3, r2
 4182 00d6 09D0     		beq	.L332
 4183              		.loc 1 1489 93 discriminator 1 view .LVU1168
 4184 00d8 DBF80850 		ldr	r5, [fp, #8]
 4185              	.LVL432:
 4186              		.loc 1 1489 93 discriminator 1 view .LVU1169
 4187 00dc DBF80C40 		ldr	r4, [fp, #12]
 4188              		.loc 1 1489 99 discriminator 1 view .LVU1170
 4189 00e0 5B19     		adds	r3, r3, r5
 4190 00e2 42EB0402 		adc	r2, r2, r4
 4191              		.loc 1 1489 58 discriminator 1 view .LVU1171
 4192 00e6 8342     		cmp	r3, r0
 4193 00e8 8A41     		sbcs	r2, r2, r1
 4194 00ea 09DA     		bge	.L331
 4195              	.L332:
 4196              	.LBB55:
1490:src-gen/Main/core/reactor_common.c ****                 // Deadline violation has occurred.
1491:src-gen/Main/core/reactor_common.c ****                 tracepoint_reaction_deadline_missed(env->trace, downstream_to_execute_now, worker);
 4197              		.loc 1 1491 17 is_stmt 1 view .LVU1172
 4198              		.loc 1 1491 99 view .LVU1173
1492:src-gen/Main/core/reactor_common.c ****                 violation = true;
 4199              		.loc 1 1492 17 view .LVU1174
 4200              	.LVL433:
1493:src-gen/Main/core/reactor_common.c ****                 // Invoke the local handler, if there is one.
1494:src-gen/Main/core/reactor_common.c ****                 reaction_function_t handler = downstream_to_execute_now->deadline_violation_handler
 4201              		.loc 1 1494 17 view .LVU1175
 4202              		.loc 1 1494 37 is_stmt 0 view .LVU1176
 4203 00ec FB6C     		ldr	r3, [r7, #76]
ARM GAS  /var/folders/2h/lww79zv53b510qlyvytqnvq40000gn/T//ccDbZlJP.s 			page 116


 4204              	.LVL434:
1495:src-gen/Main/core/reactor_common.c ****                 if (handler != NULL) {
 4205              		.loc 1 1495 17 is_stmt 1 view .LVU1177
 4206              		.loc 1 1495 20 is_stmt 0 view .LVU1178
 4207 00ee 93B1     		cbz	r3, .L333
1496:src-gen/Main/core/reactor_common.c ****                     // Assume the mutex is still not held.
1497:src-gen/Main/core/reactor_common.c ****                     (*handler)(downstream_to_execute_now->self);
 4208              		.loc 1 1497 21 is_stmt 1 view .LVU1179
 4209              		.loc 1 1497 22 is_stmt 0 view .LVU1180
 4210 00f0 7868     		ldr	r0, [r7, #4]
 4211              	.LVL435:
 4212              		.loc 1 1497 22 view .LVU1181
 4213 00f2 9847     		blx	r3
 4214              	.LVL436:
1498:src-gen/Main/core/reactor_common.c **** 
1499:src-gen/Main/core/reactor_common.c ****                     // If the reaction produced outputs, put the resulting
1500:src-gen/Main/core/reactor_common.c ****                     // triggered reactions into the queue or execute them directly if possible.
1501:src-gen/Main/core/reactor_common.c ****                     schedule_output_reactions(env, downstream_to_execute_now, worker);
 4215              		.loc 1 1501 21 is_stmt 1 view .LVU1182
 4216 00f4 059A     		ldr	r2, [sp, #20]
 4217 00f6 3946     		mov	r1, r7
 4218 00f8 5846     		mov	r0, fp
 4219 00fa FFF7FEFF 		bl	schedule_output_reactions
 4220              	.LVL437:
 4221              		.loc 1 1501 21 is_stmt 0 view .LVU1183
 4222              	.LBE55:
 4223              	.LBE54:
1502:src-gen/Main/core/reactor_common.c ****                 }
1503:src-gen/Main/core/reactor_common.c ****             }
1504:src-gen/Main/core/reactor_common.c ****         }
1505:src-gen/Main/core/reactor_common.c ****         if (!violation) {
 4224              		.loc 1 1505 9 is_stmt 1 view .LVU1184
 4225 00fe 0AE0     		b	.L333
 4226              	.LVL438:
 4227              	.L331:
1506:src-gen/Main/core/reactor_common.c ****             // Invoke the downstream_reaction function.
1507:src-gen/Main/core/reactor_common.c ****             _lf_invoke_reaction(env, downstream_to_execute_now, worker);
 4228              		.loc 1 1507 13 view .LVU1185
 4229 0100 059C     		ldr	r4, [sp, #20]
 4230 0102 2246     		mov	r2, r4
 4231 0104 3946     		mov	r1, r7
 4232 0106 5846     		mov	r0, fp
 4233 0108 FFF7FEFF 		bl	_lf_invoke_reaction
 4234              	.LVL439:
1508:src-gen/Main/core/reactor_common.c **** 
1509:src-gen/Main/core/reactor_common.c ****             // If the downstream_reaction produced outputs, put the resulting triggered
1510:src-gen/Main/core/reactor_common.c ****             // reactions into the queue (or execute them directly, if possible).
1511:src-gen/Main/core/reactor_common.c ****             schedule_output_reactions(env, downstream_to_execute_now, worker);
 4235              		.loc 1 1511 13 view .LVU1186
 4236 010c 2246     		mov	r2, r4
 4237 010e 3946     		mov	r1, r7
 4238 0110 5846     		mov	r0, fp
 4239 0112 FFF7FEFF 		bl	schedule_output_reactions
 4240              	.LVL440:
 4241              	.L333:
1512:src-gen/Main/core/reactor_common.c ****         }
1513:src-gen/Main/core/reactor_common.c **** 
ARM GAS  /var/folders/2h/lww79zv53b510qlyvytqnvq40000gn/T//ccDbZlJP.s 			page 117


1514:src-gen/Main/core/reactor_common.c ****         // Reset the is_STP_violated because it has been passed
1515:src-gen/Main/core/reactor_common.c ****         // down the chain
1516:src-gen/Main/core/reactor_common.c ****         downstream_to_execute_now->is_STP_violated = false;
 4242              		.loc 1 1516 9 view .LVU1187
 4243              		.loc 1 1516 52 is_stmt 0 view .LVU1188
 4244 0116 0023     		movs	r3, #0
 4245 0118 87F84830 		strb	r3, [r7, #72]
1517:src-gen/Main/core/reactor_common.c ****         LF_PRINT_DEBUG("Finally, reset reaction's is_STP_violated field to false: %s",
 4246              		.loc 1 1517 9 is_stmt 1 view .LVU1189
 4247              		.loc 1 1517 9 view .LVU1190
 4248              		.loc 1 1517 9 view .LVU1191
 4249              	.L318:
 4250              		.loc 1 1517 9 is_stmt 0 view .LVU1192
 4251              	.LBE53:
1518:src-gen/Main/core/reactor_common.c ****                 downstream_to_execute_now->name);
1519:src-gen/Main/core/reactor_common.c ****     }
1520:src-gen/Main/core/reactor_common.c **** }
 4252              		.loc 1 1520 1 view .LVU1193
 4253 011c 07B0     		add	sp, sp, #28
 4254              	.LCFI67:
 4255              		.cfi_def_cfa_offset 36
 4256              		@ sp needed
 4257 011e BDE8F08F 		pop	{r4, r5, r6, r7, r8, r9, r10, fp, pc}
 4258              	.LVL441:
 4259              	.L344:
 4260              		.loc 1 1520 1 view .LVU1194
 4261 0122 00BF     		.align	2
 4262              	.L343:
 4263 0124 00000000 		.word	.LC0
 4264 0128 00000000 		.word	__func__.0
 4265 012c 1C000000 		.word	.LC1
 4266              		.cfi_endproc
 4267              	.LFE161:
 4269              		.section	.rodata.usage.str1.4,"aMS",%progbits,1
 4270              		.align	2
 4271              	.LC17:
 4272 0000 0A436F6D 		.ascii	"\012Command-line arguments: \012\000"
 4272      6D616E64 
 4272      2D6C696E 
 4272      65206172 
 4272      67756D65 
 4273 001b 00       		.align	2
 4274              	.LC18:
 4275 001c 20202D66 		.ascii	"  -f, --fast [true | false]\000"
 4275      2C202D2D 
 4275      66617374 
 4275      205B7472 
 4275      7565207C 
 4276              		.align	2
 4277              	.LC19:
 4278 0038 20202057 		.ascii	"   Whether to wait for physical time to match logic"
 4278      68657468 
 4278      65722074 
 4278      6F207761 
 4278      69742066 
 4279 006b 616C2074 		.ascii	"al time.\012\000"
 4279      696D652E 
ARM GAS  /var/folders/2h/lww79zv53b510qlyvytqnvq40000gn/T//ccDbZlJP.s 			page 118


 4279      0A00
 4280 0075 000000   		.align	2
 4281              	.LC20:
 4282 0078 20202D6F 		.ascii	"  -o, --timeout <duration> <units>\000"
 4282      2C202D2D 
 4282      74696D65 
 4282      6F757420 
 4282      3C647572 
 4283 009b 00       		.align	2
 4284              	.LC21:
 4285 009c 20202053 		.ascii	"   Stop after the specified amount of logical time,"
 4285      746F7020 
 4285      61667465 
 4285      72207468 
 4285      65207370 
 4286 00cf 20776865 		.ascii	" where units are one of\000"
 4286      72652075 
 4286      6E697473 
 4286      20617265 
 4286      206F6E65 
 4287 00e7 00       		.align	2
 4288              	.LC22:
 4289 00e8 2020206E 		.ascii	"   nsec, usec, msec, sec, minute, hour, day, week, "
 4289      7365632C 
 4289      20757365 
 4289      632C206D 
 4289      7365632C 
 4290 011b 6F722074 		.ascii	"or the plurals of those.\012\000"
 4290      68652070 
 4290      6C757261 
 4290      6C73206F 
 4290      66207468 
 4291 0135 000000   		.align	2
 4292              	.LC23:
 4293 0138 20202D6B 		.ascii	"  -k, --keepalive\000"
 4293      2C202D2D 
 4293      6B656570 
 4293      616C6976 
 4293      6500
 4294 014a 0000     		.align	2
 4295              	.LC24:
 4296 014c 20202057 		.ascii	"   Whether continue execution even when there are n"
 4296      68657468 
 4296      65722063 
 4296      6F6E7469 
 4296      6E756520 
 4297 017f 6F206576 		.ascii	"o events to process.\012\000"
 4297      656E7473 
 4297      20746F20 
 4297      70726F63 
 4297      6573732E 
 4298 0195 000000   		.align	2
 4299              	.LC25:
 4300 0198 20202D77 		.ascii	"  -w, --workers <n>\000"
 4300      2C202D2D 
 4300      776F726B 
 4300      65727320 
ARM GAS  /var/folders/2h/lww79zv53b510qlyvytqnvq40000gn/T//ccDbZlJP.s 			page 119


 4300      3C6E3E00 
 4301              		.align	2
 4302              	.LC26:
 4303 01ac 20202045 		.ascii	"   Executed in <n> threads if possible (optional fe"
 4303      78656375 
 4303      74656420 
 4303      696E203C 
 4303      6E3E2074 
 4304 01df 61747572 		.ascii	"ature).\012\000"
 4304      65292E0A 
 4304      00
 4305              		.align	2
 4306              	.LC27:
 4307 01e8 20202D69 		.ascii	"  -i, --id <n>\000"
 4307      2C202D2D 
 4307      6964203C 
 4307      6E3E00
 4308 01f7 00       		.align	2
 4309              	.LC28:
 4310 01f8 20202054 		.ascii	"   The ID of the federation that this reactor will "
 4310      68652049 
 4310      44206F66 
 4310      20746865 
 4310      20666564 
 4311 022b 6A6F696E 		.ascii	"join.\012\000"
 4311      2E0A00
 4312 0232 0000     		.align	2
 4313              	.LC29:
 4314 0234 436F6D6D 		.ascii	"Command given:\000"
 4314      616E6420 
 4314      67697665 
 4314      6E3A00
 4315 0243 00       		.align	2
 4316              	.LC30:
 4317 0244 25732000 		.ascii	"%s \000"
 4318              		.align	2
 4319              	.LC31:
 4320 0248 0A00     		.ascii	"\012\000"
 4321              		.section	.text.usage,"ax",%progbits
 4322              		.align	1
 4323              		.global	usage
 4324              		.syntax unified
 4325              		.thumb
 4326              		.thumb_func
 4328              	usage:
 4329              	.LVL442:
 4330              	.LFB162:
1521:src-gen/Main/core/reactor_common.c **** 
1522:src-gen/Main/core/reactor_common.c **** /**
1523:src-gen/Main/core/reactor_common.c ****  * Print a usage message.
1524:src-gen/Main/core/reactor_common.c ****  * TODO: This is not necessary for NO_TTY
1525:src-gen/Main/core/reactor_common.c ****  */
1526:src-gen/Main/core/reactor_common.c **** void usage(int argc, const char* argv[]) {
 4331              		.loc 1 1526 42 is_stmt 1 view -0
 4332              		.cfi_startproc
 4333              		@ args = 0, pretend = 0, frame = 0
 4334              		@ frame_needed = 0, uses_anonymous_args = 0
ARM GAS  /var/folders/2h/lww79zv53b510qlyvytqnvq40000gn/T//ccDbZlJP.s 			page 120


 4335              		.loc 1 1526 42 is_stmt 0 view .LVU1196
 4336 0000 70B5     		push	{r4, r5, r6, lr}
 4337              	.LCFI68:
 4338              		.cfi_def_cfa_offset 16
 4339              		.cfi_offset 4, -16
 4340              		.cfi_offset 5, -12
 4341              		.cfi_offset 6, -8
 4342              		.cfi_offset 14, -4
 4343 0002 0546     		mov	r5, r0
 4344 0004 0E46     		mov	r6, r1
1527:src-gen/Main/core/reactor_common.c ****     printf("\nCommand-line arguments: \n\n");
 4345              		.loc 1 1527 5 is_stmt 1 view .LVU1197
 4346 0006 1A48     		ldr	r0, .L349
 4347              	.LVL443:
 4348              		.loc 1 1527 5 is_stmt 0 view .LVU1198
 4349 0008 FFF7FEFF 		bl	puts
 4350              	.LVL444:
1528:src-gen/Main/core/reactor_common.c ****     printf("  -f, --fast [true | false]\n");
 4351              		.loc 1 1528 5 is_stmt 1 view .LVU1199
 4352 000c 1948     		ldr	r0, .L349+4
 4353 000e FFF7FEFF 		bl	puts
 4354              	.LVL445:
1529:src-gen/Main/core/reactor_common.c ****     printf("   Whether to wait for physical time to match logical time.\n\n");
 4355              		.loc 1 1529 5 view .LVU1200
 4356 0012 1948     		ldr	r0, .L349+8
 4357 0014 FFF7FEFF 		bl	puts
 4358              	.LVL446:
1530:src-gen/Main/core/reactor_common.c ****     printf("  -o, --timeout <duration> <units>\n");
 4359              		.loc 1 1530 5 view .LVU1201
 4360 0018 1848     		ldr	r0, .L349+12
 4361 001a FFF7FEFF 		bl	puts
 4362              	.LVL447:
1531:src-gen/Main/core/reactor_common.c ****     printf("   Stop after the specified amount of logical time, where units are one of\n");
 4363              		.loc 1 1531 5 view .LVU1202
 4364 001e 1848     		ldr	r0, .L349+16
 4365 0020 FFF7FEFF 		bl	puts
 4366              	.LVL448:
1532:src-gen/Main/core/reactor_common.c ****     printf("   nsec, usec, msec, sec, minute, hour, day, week, or the plurals of those.\n\n");
 4367              		.loc 1 1532 5 view .LVU1203
 4368 0024 1748     		ldr	r0, .L349+20
 4369 0026 FFF7FEFF 		bl	puts
 4370              	.LVL449:
1533:src-gen/Main/core/reactor_common.c ****     printf("  -k, --keepalive\n");
 4371              		.loc 1 1533 5 view .LVU1204
 4372 002a 1748     		ldr	r0, .L349+24
 4373 002c FFF7FEFF 		bl	puts
 4374              	.LVL450:
1534:src-gen/Main/core/reactor_common.c ****     printf("   Whether continue execution even when there are no events to process.\n\n");
 4375              		.loc 1 1534 5 view .LVU1205
 4376 0030 1648     		ldr	r0, .L349+28
 4377 0032 FFF7FEFF 		bl	puts
 4378              	.LVL451:
1535:src-gen/Main/core/reactor_common.c ****     printf("  -w, --workers <n>\n");
 4379              		.loc 1 1535 5 view .LVU1206
 4380 0036 1648     		ldr	r0, .L349+32
 4381 0038 FFF7FEFF 		bl	puts
 4382              	.LVL452:
ARM GAS  /var/folders/2h/lww79zv53b510qlyvytqnvq40000gn/T//ccDbZlJP.s 			page 121


1536:src-gen/Main/core/reactor_common.c ****     printf("   Executed in <n> threads if possible (optional feature).\n\n");
 4383              		.loc 1 1536 5 view .LVU1207
 4384 003c 1548     		ldr	r0, .L349+36
 4385 003e FFF7FEFF 		bl	puts
 4386              	.LVL453:
1537:src-gen/Main/core/reactor_common.c ****     printf("  -i, --id <n>\n");
 4387              		.loc 1 1537 5 view .LVU1208
 4388 0042 1548     		ldr	r0, .L349+40
 4389 0044 FFF7FEFF 		bl	puts
 4390              	.LVL454:
1538:src-gen/Main/core/reactor_common.c ****     printf("   The ID of the federation that this reactor will join.\n\n");
 4391              		.loc 1 1538 5 view .LVU1209
 4392 0048 1448     		ldr	r0, .L349+44
 4393 004a FFF7FEFF 		bl	puts
 4394              	.LVL455:
1539:src-gen/Main/core/reactor_common.c ****     #ifdef FEDERATED
1540:src-gen/Main/core/reactor_common.c ****     printf("  -r, --rti <n>\n");
1541:src-gen/Main/core/reactor_common.c ****     printf("   The address of the RTI, which can be in the form of user@host:port or ip:port.\n\n")
1542:src-gen/Main/core/reactor_common.c ****     #endif
1543:src-gen/Main/core/reactor_common.c **** 
1544:src-gen/Main/core/reactor_common.c ****     printf("Command given:\n");
 4395              		.loc 1 1544 5 view .LVU1210
 4396 004e 1448     		ldr	r0, .L349+48
 4397 0050 FFF7FEFF 		bl	puts
 4398              	.LVL456:
1545:src-gen/Main/core/reactor_common.c ****     for (int i = 0; i < argc; i++) {
 4399              		.loc 1 1545 5 view .LVU1211
 4400              	.LBB56:
 4401              		.loc 1 1545 10 view .LVU1212
 4402              		.loc 1 1545 14 is_stmt 0 view .LVU1213
 4403 0054 0024     		movs	r4, #0
 4404              		.loc 1 1545 5 view .LVU1214
 4405 0056 05E0     		b	.L346
 4406              	.LVL457:
 4407              	.L347:
1546:src-gen/Main/core/reactor_common.c ****         printf("%s ", argv[i]);
 4408              		.loc 1 1546 9 is_stmt 1 discriminator 3 view .LVU1215
 4409 0058 56F82410 		ldr	r1, [r6, r4, lsl #2]
 4410 005c 1148     		ldr	r0, .L349+52
 4411 005e FFF7FEFF 		bl	printf
 4412              	.LVL458:
1545:src-gen/Main/core/reactor_common.c ****     for (int i = 0; i < argc; i++) {
 4413              		.loc 1 1545 32 discriminator 3 view .LVU1216
 4414 0062 0134     		adds	r4, r4, #1
 4415              	.LVL459:
 4416              	.L346:
1545:src-gen/Main/core/reactor_common.c ****     for (int i = 0; i < argc; i++) {
 4417              		.loc 1 1545 23 discriminator 1 view .LVU1217
 4418 0064 AC42     		cmp	r4, r5
 4419 0066 F7DB     		blt	.L347
 4420              	.LBE56:
1547:src-gen/Main/core/reactor_common.c ****     }
1548:src-gen/Main/core/reactor_common.c ****     printf("\n\n");
 4421              		.loc 1 1548 5 view .LVU1218
 4422 0068 0F48     		ldr	r0, .L349+56
 4423 006a FFF7FEFF 		bl	puts
 4424              	.LVL460:
ARM GAS  /var/folders/2h/lww79zv53b510qlyvytqnvq40000gn/T//ccDbZlJP.s 			page 122


1549:src-gen/Main/core/reactor_common.c **** }
 4425              		.loc 1 1549 1 is_stmt 0 view .LVU1219
 4426 006e 70BD     		pop	{r4, r5, r6, pc}
 4427              	.LVL461:
 4428              	.L350:
 4429              		.loc 1 1549 1 view .LVU1220
 4430              		.align	2
 4431              	.L349:
 4432 0070 00000000 		.word	.LC17
 4433 0074 1C000000 		.word	.LC18
 4434 0078 38000000 		.word	.LC19
 4435 007c 78000000 		.word	.LC20
 4436 0080 9C000000 		.word	.LC21
 4437 0084 E8000000 		.word	.LC22
 4438 0088 38010000 		.word	.LC23
 4439 008c 4C010000 		.word	.LC24
 4440 0090 98010000 		.word	.LC25
 4441 0094 AC010000 		.word	.LC26
 4442 0098 E8010000 		.word	.LC27
 4443 009c F8010000 		.word	.LC28
 4444 00a0 34020000 		.word	.LC29
 4445 00a4 44020000 		.word	.LC30
 4446 00a8 48020000 		.word	.LC31
 4447              		.cfi_endproc
 4448              	.LFE162:
 4450              		.section	.rodata.process_args.str1.4,"aMS",%progbits,1
 4451              		.align	2
 4452              	.LC32:
 4453 0000 2D6600   		.ascii	"-f\000"
 4454 0003 00       		.align	2
 4455              	.LC33:
 4456 0004 2D2D6661 		.ascii	"--fast\000"
 4456      737400
 4457 000b 00       		.align	2
 4458              	.LC34:
 4459 000c 2D2D6661 		.ascii	"--fast needs a boolean.\000"
 4459      7374206E 
 4459      65656473 
 4459      20612062 
 4459      6F6F6C65 
 4460              		.align	2
 4461              	.LC35:
 4462 0024 74727565 		.ascii	"true\000"
 4462      00
 4463 0029 000000   		.align	2
 4464              	.LC36:
 4465 002c 66616C73 		.ascii	"false\000"
 4465      6500
 4466 0032 0000     		.align	2
 4467              	.LC37:
 4468 0034 496E7661 		.ascii	"Invalid value for --fast: %s\000"
 4468      6C696420 
 4468      76616C75 
 4468      6520666F 
 4468      72202D2D 
 4469 0051 000000   		.align	2
 4470              	.LC38:
ARM GAS  /var/folders/2h/lww79zv53b510qlyvytqnvq40000gn/T//ccDbZlJP.s 			page 123


 4471 0054 2D6F00   		.ascii	"-o\000"
 4472 0057 00       		.align	2
 4473              	.LC39:
 4474 0058 2D2D7469 		.ascii	"--timeout\000"
 4474      6D656F75 
 4474      7400
 4475 0062 0000     		.align	2
 4476              	.LC40:
 4477 0064 2D74696D 		.ascii	"-timeout\000"
 4477      656F7574 
 4477      00
 4478 006d 000000   		.align	2
 4479              	.LC41:
 4480 0070 2D2D7469 		.ascii	"--timeout needs time and units.\000"
 4480      6D656F75 
 4480      74206E65 
 4480      65647320 
 4480      74696D65 
 4481              		.align	2
 4482              	.LC42:
 4483 0090 496E7661 		.ascii	"Invalid time value: %s\000"
 4483      6C696420 
 4483      74696D65 
 4483      2076616C 
 4483      75653A20 
 4484 00a7 00       		.align	2
 4485              	.LC43:
 4486 00a8 73656300 		.ascii	"sec\000"
 4487              		.align	2
 4488              	.LC44:
 4489 00ac 6D736563 		.ascii	"msec\000"
 4489      00
 4490 00b1 000000   		.align	2
 4491              	.LC45:
 4492 00b4 75736563 		.ascii	"usec\000"
 4492      00
 4493 00b9 000000   		.align	2
 4494              	.LC46:
 4495 00bc 6E736563 		.ascii	"nsec\000"
 4495      00
 4496 00c1 000000   		.align	2
 4497              	.LC47:
 4498 00c4 6D696E00 		.ascii	"min\000"
 4499              		.align	2
 4500              	.LC48:
 4501 00c8 686F7572 		.ascii	"hour\000"
 4501      00
 4502 00cd 000000   		.align	2
 4503              	.LC49:
 4504 00d0 64617900 		.ascii	"day\000"
 4505              		.align	2
 4506              	.LC50:
 4507 00d4 7765656B 		.ascii	"week\000"
 4507      00
 4508 00d9 000000   		.align	2
 4509              	.LC51:
 4510 00dc 496E7661 		.ascii	"Invalid time units: %s\000"
ARM GAS  /var/folders/2h/lww79zv53b510qlyvytqnvq40000gn/T//ccDbZlJP.s 			page 124


 4510      6C696420 
 4510      74696D65 
 4510      20756E69 
 4510      74733A20 
 4511 00f3 00       		.align	2
 4512              	.LC52:
 4513 00f4 2D6B00   		.ascii	"-k\000"
 4514 00f7 00       		.align	2
 4515              	.LC53:
 4516 00f8 2D2D6B65 		.ascii	"--keepalive\000"
 4516      6570616C 
 4516      69766500 
 4517              		.align	2
 4518              	.LC54:
 4519 0104 2D2D6B65 		.ascii	"--keepalive needs a boolean.\000"
 4519      6570616C 
 4519      69766520 
 4519      6E656564 
 4519      73206120 
 4520 0121 000000   		.align	2
 4521              	.LC55:
 4522 0124 496E7661 		.ascii	"Invalid value for --keepalive: %s\000"
 4522      6C696420 
 4522      76616C75 
 4522      6520666F 
 4522      72202D2D 
 4523 0146 0000     		.align	2
 4524              	.LC56:
 4525 0148 2D7700   		.ascii	"-w\000"
 4526 014b 00       		.align	2
 4527              	.LC57:
 4528 014c 2D2D776F 		.ascii	"--workers\000"
 4528      726B6572 
 4528      7300
 4529 0156 0000     		.align	2
 4530              	.LC58:
 4531 0158 2D2D776F 		.ascii	"--workers needs an integer argument.s\000"
 4531      726B6572 
 4531      73206E65 
 4531      65647320 
 4531      616E2069 
 4532 017e 0000     		.align	2
 4533              	.LC59:
 4534 0180 496E7661 		.ascii	"Invalid value for --workers: %s. Using 1.\000"
 4534      6C696420 
 4534      76616C75 
 4534      6520666F 
 4534      72202D2D 
 4535 01aa 0000     		.align	2
 4536              	.LC60:
 4537 01ac 2D2D726F 		.ascii	"--ros-args\000"
 4537      732D6172 
 4537      677300
 4538 01b7 00       		.align	2
 4539              	.LC61:
 4540 01b8 556E7265 		.ascii	"Unrecognized command-line argument: %s\000"
 4540      636F676E 
ARM GAS  /var/folders/2h/lww79zv53b510qlyvytqnvq40000gn/T//ccDbZlJP.s 			page 125


 4540      697A6564 
 4540      20636F6D 
 4540      6D616E64 
 4541              		.section	.text.process_args,"ax",%progbits
 4542              		.align	1
 4543              		.global	process_args
 4544              		.syntax unified
 4545              		.thumb
 4546              		.thumb_func
 4548              	process_args:
 4549              	.LVL462:
 4550              	.LFB163:
1550:src-gen/Main/core/reactor_common.c **** 
1551:src-gen/Main/core/reactor_common.c **** // Some options given in the target directive are provided here as
1552:src-gen/Main/core/reactor_common.c **** // default command-line options.
1553:src-gen/Main/core/reactor_common.c **** int default_argc = 0;
1554:src-gen/Main/core/reactor_common.c **** const char** default_argv = NULL;
1555:src-gen/Main/core/reactor_common.c **** 
1556:src-gen/Main/core/reactor_common.c **** 
1557:src-gen/Main/core/reactor_common.c **** /**
1558:src-gen/Main/core/reactor_common.c ****  * Process the command-line arguments. If the command line arguments are not
1559:src-gen/Main/core/reactor_common.c ****  * understood, then print a usage message and return 0. Otherwise, return 1.
1560:src-gen/Main/core/reactor_common.c ****  * @return 1 if the arguments processed successfully, 0 otherwise.
1561:src-gen/Main/core/reactor_common.c ****  * TODO: Not necessary for NO_TTY
1562:src-gen/Main/core/reactor_common.c ****  */
1563:src-gen/Main/core/reactor_common.c **** int process_args(int argc, const char* argv[]) {
 4551              		.loc 1 1563 48 is_stmt 1 view -0
 4552              		.cfi_startproc
 4553              		@ args = 0, pretend = 0, frame = 0
 4554              		@ frame_needed = 0, uses_anonymous_args = 0
 4555              		.loc 1 1563 48 is_stmt 0 view .LVU1222
 4556 0000 2DE9F047 		push	{r4, r5, r6, r7, r8, r9, r10, lr}
 4557              	.LCFI69:
 4558              		.cfi_def_cfa_offset 32
 4559              		.cfi_offset 4, -32
 4560              		.cfi_offset 5, -28
 4561              		.cfi_offset 6, -24
 4562              		.cfi_offset 7, -20
 4563              		.cfi_offset 8, -16
 4564              		.cfi_offset 9, -12
 4565              		.cfi_offset 10, -8
 4566              		.cfi_offset 14, -4
 4567 0004 8046     		mov	r8, r0
 4568 0006 0F46     		mov	r7, r1
1564:src-gen/Main/core/reactor_common.c ****     int i = 1;
 4569              		.loc 1 1564 5 is_stmt 1 view .LVU1223
 4570              	.LVL463:
1565:src-gen/Main/core/reactor_common.c ****     while (i < argc) {
 4571              		.loc 1 1565 5 view .LVU1224
1564:src-gen/Main/core/reactor_common.c ****     int i = 1;
 4572              		.loc 1 1564 9 is_stmt 0 view .LVU1225
 4573 0008 0124     		movs	r4, #1
 4574              		.loc 1 1565 11 view .LVU1226
 4575 000a 0DE0     		b	.L352
 4576              	.LVL464:
 4577              	.L353:
 4578              	.LBB57:
ARM GAS  /var/folders/2h/lww79zv53b510qlyvytqnvq40000gn/T//ccDbZlJP.s 			page 126


 4579              	.LBB58:
1566:src-gen/Main/core/reactor_common.c ****         const char* arg = argv[i++];
1567:src-gen/Main/core/reactor_common.c ****         if (strcmp(arg, "-f") == 0 || strcmp(arg, "--fast") == 0) {
1568:src-gen/Main/core/reactor_common.c ****             if (argc < i + 1) {
 4580              		.loc 1 1568 13 is_stmt 1 view .LVU1227
 4581              		.loc 1 1568 16 is_stmt 0 view .LVU1228
 4582 000c B045     		cmp	r8, r6
 4583 000e 54DD     		ble	.L383
1569:src-gen/Main/core/reactor_common.c ****                 lf_print_error("--fast needs a boolean.");
1570:src-gen/Main/core/reactor_common.c ****                 usage(argc, argv);
1571:src-gen/Main/core/reactor_common.c ****                 return 0;
1572:src-gen/Main/core/reactor_common.c ****             }
1573:src-gen/Main/core/reactor_common.c ****             const char* fast_spec = argv[i++];
 4584              		.loc 1 1573 13 is_stmt 1 view .LVU1229
 4585              		.loc 1 1573 43 is_stmt 0 view .LVU1230
 4586 0010 0234     		adds	r4, r4, #2
 4587              	.LVL465:
 4588              		.loc 1 1573 25 view .LVU1231
 4589 0012 57F82650 		ldr	r5, [r7, r6, lsl #2]
 4590              	.LVL466:
1574:src-gen/Main/core/reactor_common.c ****             if (strcmp(fast_spec, "true") == 0) {
 4591              		.loc 1 1574 13 is_stmt 1 view .LVU1232
 4592              		.loc 1 1574 17 is_stmt 0 view .LVU1233
 4593 0016 B049     		ldr	r1, .L391
 4594 0018 2846     		mov	r0, r5
 4595 001a FFF7FEFF 		bl	strcmp
 4596              	.LVL467:
 4597              		.loc 1 1574 16 view .LVU1234
 4598 001e 0028     		cmp	r0, #0
 4599 0020 54D1     		bne	.L357
1575:src-gen/Main/core/reactor_common.c ****                 fast = true;
 4600              		.loc 1 1575 17 is_stmt 1 view .LVU1235
 4601              		.loc 1 1575 22 is_stmt 0 view .LVU1236
 4602 0022 AE4B     		ldr	r3, .L391+4
 4603 0024 0122     		movs	r2, #1
 4604 0026 1A70     		strb	r2, [r3]
 4605              	.LVL468:
 4606              	.L352:
 4607              		.loc 1 1575 22 view .LVU1237
 4608              	.LBE58:
 4609              	.LBE57:
1565:src-gen/Main/core/reactor_common.c ****         const char* arg = argv[i++];
 4610              		.loc 1 1565 14 is_stmt 1 view .LVU1238
 4611 0028 4445     		cmp	r4, r8
 4612 002a 80F2BD81 		bge	.L384
 4613              	.LBB65:
1566:src-gen/Main/core/reactor_common.c ****         if (strcmp(arg, "-f") == 0 || strcmp(arg, "--fast") == 0) {
 4614              		.loc 1 1566 9 view .LVU1239
1566:src-gen/Main/core/reactor_common.c ****         if (strcmp(arg, "-f") == 0 || strcmp(arg, "--fast") == 0) {
 4615              		.loc 1 1566 33 is_stmt 0 view .LVU1240
 4616 002e 661C     		adds	r6, r4, #1
 4617              	.LVL469:
1566:src-gen/Main/core/reactor_common.c ****         if (strcmp(arg, "-f") == 0 || strcmp(arg, "--fast") == 0) {
 4618              		.loc 1 1566 21 view .LVU1241
 4619 0030 57F82450 		ldr	r5, [r7, r4, lsl #2]
 4620              	.LVL470:
1567:src-gen/Main/core/reactor_common.c ****             if (argc < i + 1) {
ARM GAS  /var/folders/2h/lww79zv53b510qlyvytqnvq40000gn/T//ccDbZlJP.s 			page 127


 4621              		.loc 1 1567 9 is_stmt 1 view .LVU1242
1567:src-gen/Main/core/reactor_common.c ****             if (argc < i + 1) {
 4622              		.loc 1 1567 13 is_stmt 0 view .LVU1243
 4623 0034 AA49     		ldr	r1, .L391+8
 4624 0036 2846     		mov	r0, r5
 4625 0038 FFF7FEFF 		bl	strcmp
 4626              	.LVL471:
1567:src-gen/Main/core/reactor_common.c ****             if (argc < i + 1) {
 4627              		.loc 1 1567 12 view .LVU1244
 4628 003c 0028     		cmp	r0, #0
 4629 003e E5D0     		beq	.L353
1567:src-gen/Main/core/reactor_common.c ****             if (argc < i + 1) {
 4630              		.loc 1 1567 39 discriminator 1 view .LVU1245
 4631 0040 A849     		ldr	r1, .L391+12
 4632 0042 2846     		mov	r0, r5
 4633 0044 FFF7FEFF 		bl	strcmp
 4634              	.LVL472:
1567:src-gen/Main/core/reactor_common.c ****             if (argc < i + 1) {
 4635              		.loc 1 1567 36 discriminator 1 view .LVU1246
 4636 0048 0028     		cmp	r0, #0
 4637 004a DFD0     		beq	.L353
1576:src-gen/Main/core/reactor_common.c ****             } else if (strcmp(fast_spec, "false") == 0) {
1577:src-gen/Main/core/reactor_common.c ****                 fast = false;
1578:src-gen/Main/core/reactor_common.c ****             } else {
1579:src-gen/Main/core/reactor_common.c ****                 lf_print_error("Invalid value for --fast: %s", fast_spec);
1580:src-gen/Main/core/reactor_common.c ****             }
1581:src-gen/Main/core/reactor_common.c ****         } else if (strcmp(arg, "-o") == 0
 4638              		.loc 1 1581 16 is_stmt 1 view .LVU1247
 4639              		.loc 1 1581 20 is_stmt 0 view .LVU1248
 4640 004c A649     		ldr	r1, .L391+16
 4641 004e 2846     		mov	r0, r5
 4642 0050 FFF7FEFF 		bl	strcmp
 4643              	.LVL473:
 4644              		.loc 1 1581 19 view .LVU1249
 4645 0054 58B1     		cbz	r0, .L360
1582:src-gen/Main/core/reactor_common.c ****                 || strcmp(arg, "--timeout") == 0
 4646              		.loc 1 1582 20 view .LVU1250
 4647 0056 A549     		ldr	r1, .L391+20
 4648 0058 2846     		mov	r0, r5
 4649 005a FFF7FEFF 		bl	strcmp
 4650              	.LVL474:
 4651              		.loc 1 1582 17 view .LVU1251
 4652 005e 30B1     		cbz	r0, .L360
1583:src-gen/Main/core/reactor_common.c ****                 || strcmp(arg, "-timeout") == 0) {
 4653              		.loc 1 1583 20 view .LVU1252
 4654 0060 A349     		ldr	r1, .L391+24
 4655 0062 2846     		mov	r0, r5
 4656 0064 FFF7FEFF 		bl	strcmp
 4657              	.LVL475:
 4658              		.loc 1 1583 17 view .LVU1253
 4659 0068 0028     		cmp	r0, #0
 4660 006a 40F0EE80 		bne	.L361
 4661              	.L360:
 4662              	.LBB59:
1584:src-gen/Main/core/reactor_common.c ****             // Tolerate -timeout for legacy uses.
1585:src-gen/Main/core/reactor_common.c ****             if (argc < i + 2) {
 4663              		.loc 1 1585 13 is_stmt 1 view .LVU1254
ARM GAS  /var/folders/2h/lww79zv53b510qlyvytqnvq40000gn/T//ccDbZlJP.s 			page 128


 4664              		.loc 1 1585 22 is_stmt 0 view .LVU1255
 4665 006e A31C     		adds	r3, r4, #2
 4666              		.loc 1 1585 16 view .LVU1256
 4667 0070 4345     		cmp	r3, r8
 4668 0072 39DA     		bge	.L385
1586:src-gen/Main/core/reactor_common.c ****                 lf_print_error("--timeout needs time and units.");
1587:src-gen/Main/core/reactor_common.c ****                 usage(argc, argv);
1588:src-gen/Main/core/reactor_common.c ****                 return 0;
1589:src-gen/Main/core/reactor_common.c ****             }
1590:src-gen/Main/core/reactor_common.c ****             const char* time_spec = argv[i++];
 4669              		.loc 1 1590 13 is_stmt 1 view .LVU1257
 4670              	.LVL476:
 4671              		.loc 1 1590 25 is_stmt 0 view .LVU1258
 4672 0074 57F82690 		ldr	r9, [r7, r6, lsl #2]
 4673              	.LVL477:
1591:src-gen/Main/core/reactor_common.c ****             const char* units = argv[i++];
 4674              		.loc 1 1591 13 is_stmt 1 view .LVU1259
 4675              		.loc 1 1591 39 is_stmt 0 view .LVU1260
 4676 0078 0334     		adds	r4, r4, #3
 4677              	.LVL478:
 4678              		.loc 1 1591 25 view .LVU1261
 4679 007a 57F823A0 		ldr	r10, [r7, r3, lsl #2]
 4680              	.LVL479:
1592:src-gen/Main/core/reactor_common.c **** 
1593:src-gen/Main/core/reactor_common.c **** 
1594:src-gen/Main/core/reactor_common.c ****             #if defined(PLATFORM_ARDUINO)
1595:src-gen/Main/core/reactor_common.c ****             duration = atol(time_spec);
1596:src-gen/Main/core/reactor_common.c ****             #else
1597:src-gen/Main/core/reactor_common.c ****             duration = atoll(time_spec);
 4681              		.loc 1 1597 13 is_stmt 1 view .LVU1262
 4682              		.loc 1 1597 24 is_stmt 0 view .LVU1263
 4683 007e 4846     		mov	r0, r9
 4684 0080 FFF7FEFF 		bl	atoll
 4685              	.LVL480:
 4686 0084 0546     		mov	r5, r0
 4687              	.LVL481:
 4688              		.loc 1 1597 24 view .LVU1264
 4689 0086 0E46     		mov	r6, r1
 4690              		.loc 1 1597 22 view .LVU1265
 4691 0088 9A4B     		ldr	r3, .L391+28
 4692 008a 1860     		str	r0, [r3]
 4693 008c 5960     		str	r1, [r3, #4]
1598:src-gen/Main/core/reactor_common.c ****             #endif
1599:src-gen/Main/core/reactor_common.c ****             
1600:src-gen/Main/core/reactor_common.c ****             // A parse error returns 0LL, so check to see whether that is what is meant.
1601:src-gen/Main/core/reactor_common.c ****             if (duration == 0LL && strncmp(time_spec, "0", 1) != 0) {
 4694              		.loc 1 1601 13 is_stmt 1 view .LVU1266
 4695              		.loc 1 1601 16 is_stmt 0 view .LVU1267
 4696 008e 50EA0103 		orrs	r3, r0, r1
 4697 0092 03D1     		bne	.L363
 4698              		.loc 1 1601 36 discriminator 1 view .LVU1268
 4699 0094 99F80030 		ldrb	r3, [r9]	@ zero_extendqisi2
 4700              		.loc 1 1601 33 discriminator 1 view .LVU1269
 4701 0098 302B     		cmp	r3, #48
 4702 009a 2ED1     		bne	.L386
 4703              	.L363:
1602:src-gen/Main/core/reactor_common.c ****                 // Parse error.
ARM GAS  /var/folders/2h/lww79zv53b510qlyvytqnvq40000gn/T//ccDbZlJP.s 			page 129


1603:src-gen/Main/core/reactor_common.c ****                 lf_print_error("Invalid time value: %s", time_spec);
1604:src-gen/Main/core/reactor_common.c ****                 usage(argc, argv);
1605:src-gen/Main/core/reactor_common.c ****                 return 0;
1606:src-gen/Main/core/reactor_common.c ****             }
1607:src-gen/Main/core/reactor_common.c ****             if (strncmp(units, "sec", 3) == 0) {
 4704              		.loc 1 1607 13 is_stmt 1 view .LVU1270
 4705              		.loc 1 1607 17 is_stmt 0 view .LVU1271
 4706 009c 0322     		movs	r2, #3
 4707 009e 9649     		ldr	r1, .L391+32
 4708 00a0 5046     		mov	r0, r10
 4709 00a2 FFF7FEFF 		bl	strncmp
 4710              	.LVL482:
 4711              		.loc 1 1607 16 view .LVU1272
 4712 00a6 90BB     		cbnz	r0, .L364
1608:src-gen/Main/core/reactor_common.c ****                 duration = SEC(duration);
 4713              		.loc 1 1608 17 is_stmt 1 view .LVU1273
 4714              		.loc 1 1608 28 is_stmt 0 view .LVU1274
 4715 00a8 944A     		ldr	r2, .L391+36
 4716 00aa A5FB0253 		umull	r5, r3, r5, r2
 4717 00ae 02FB0633 		mla	r3, r2, r6, r3
 4718              		.loc 1 1608 26 view .LVU1275
 4719 00b2 904A     		ldr	r2, .L391+28
 4720 00b4 1560     		str	r5, [r2]
 4721 00b6 5360     		str	r3, [r2, #4]
 4722 00b8 B6E7     		b	.L352
 4723              	.LVL483:
 4724              	.L383:
 4725              		.loc 1 1608 26 view .LVU1276
 4726              	.LBE59:
 4727              	.LBB60:
1569:src-gen/Main/core/reactor_common.c ****                 usage(argc, argv);
 4728              		.loc 1 1569 17 is_stmt 1 view .LVU1277
 4729 00ba 9148     		ldr	r0, .L391+40
 4730 00bc FFF7FEFF 		bl	lf_print_error
 4731              	.LVL484:
1570:src-gen/Main/core/reactor_common.c ****                 return 0;
 4732              		.loc 1 1570 17 view .LVU1278
 4733 00c0 3946     		mov	r1, r7
 4734 00c2 4046     		mov	r0, r8
 4735 00c4 FFF7FEFF 		bl	usage
 4736              	.LVL485:
1571:src-gen/Main/core/reactor_common.c ****             }
 4737              		.loc 1 1571 17 view .LVU1279
1571:src-gen/Main/core/reactor_common.c ****             }
 4738              		.loc 1 1571 24 is_stmt 0 view .LVU1280
 4739 00c8 0020     		movs	r0, #0
 4740 00ca 6EE1     		b	.L351
 4741              	.LVL486:
 4742              	.L357:
1576:src-gen/Main/core/reactor_common.c ****                 fast = false;
 4743              		.loc 1 1576 20 is_stmt 1 view .LVU1281
1576:src-gen/Main/core/reactor_common.c ****                 fast = false;
 4744              		.loc 1 1576 24 is_stmt 0 view .LVU1282
 4745 00cc 8D49     		ldr	r1, .L391+44
 4746 00ce 2846     		mov	r0, r5
 4747 00d0 FFF7FEFF 		bl	strcmp
 4748              	.LVL487:
ARM GAS  /var/folders/2h/lww79zv53b510qlyvytqnvq40000gn/T//ccDbZlJP.s 			page 130


1576:src-gen/Main/core/reactor_common.c ****                 fast = false;
 4749              		.loc 1 1576 23 view .LVU1283
 4750 00d4 18B9     		cbnz	r0, .L359
1577:src-gen/Main/core/reactor_common.c ****             } else {
 4751              		.loc 1 1577 17 is_stmt 1 view .LVU1284
1577:src-gen/Main/core/reactor_common.c ****             } else {
 4752              		.loc 1 1577 22 is_stmt 0 view .LVU1285
 4753 00d6 814B     		ldr	r3, .L391+4
 4754 00d8 0022     		movs	r2, #0
 4755 00da 1A70     		strb	r2, [r3]
 4756 00dc A4E7     		b	.L352
 4757              	.L359:
1579:src-gen/Main/core/reactor_common.c ****             }
 4758              		.loc 1 1579 17 is_stmt 1 view .LVU1286
 4759 00de 2946     		mov	r1, r5
 4760 00e0 8948     		ldr	r0, .L391+48
 4761 00e2 FFF7FEFF 		bl	lf_print_error
 4762              	.LVL488:
 4763 00e6 9FE7     		b	.L352
 4764              	.LVL489:
 4765              	.L385:
1579:src-gen/Main/core/reactor_common.c ****             }
 4766              		.loc 1 1579 17 is_stmt 0 view .LVU1287
 4767              	.LBE60:
 4768              	.LBB61:
1586:src-gen/Main/core/reactor_common.c ****                 usage(argc, argv);
 4769              		.loc 1 1586 17 is_stmt 1 view .LVU1288
 4770 00e8 8848     		ldr	r0, .L391+52
 4771 00ea FFF7FEFF 		bl	lf_print_error
 4772              	.LVL490:
1587:src-gen/Main/core/reactor_common.c ****                 return 0;
 4773              		.loc 1 1587 17 view .LVU1289
 4774 00ee 3946     		mov	r1, r7
 4775 00f0 4046     		mov	r0, r8
 4776 00f2 FFF7FEFF 		bl	usage
 4777              	.LVL491:
1588:src-gen/Main/core/reactor_common.c ****             }
 4778              		.loc 1 1588 17 view .LVU1290
1588:src-gen/Main/core/reactor_common.c ****             }
 4779              		.loc 1 1588 24 is_stmt 0 view .LVU1291
 4780 00f6 0020     		movs	r0, #0
 4781 00f8 57E1     		b	.L351
 4782              	.LVL492:
 4783              	.L386:
1603:src-gen/Main/core/reactor_common.c ****                 usage(argc, argv);
 4784              		.loc 1 1603 17 is_stmt 1 view .LVU1292
 4785 00fa 4946     		mov	r1, r9
 4786 00fc 8448     		ldr	r0, .L391+56
 4787 00fe FFF7FEFF 		bl	lf_print_error
 4788              	.LVL493:
1604:src-gen/Main/core/reactor_common.c ****                 return 0;
 4789              		.loc 1 1604 17 view .LVU1293
 4790 0102 3946     		mov	r1, r7
 4791 0104 4046     		mov	r0, r8
 4792 0106 FFF7FEFF 		bl	usage
 4793              	.LVL494:
1605:src-gen/Main/core/reactor_common.c ****             }
ARM GAS  /var/folders/2h/lww79zv53b510qlyvytqnvq40000gn/T//ccDbZlJP.s 			page 131


 4794              		.loc 1 1605 17 view .LVU1294
1605:src-gen/Main/core/reactor_common.c ****             }
 4795              		.loc 1 1605 24 is_stmt 0 view .LVU1295
 4796 010a 0020     		movs	r0, #0
 4797 010c 4DE1     		b	.L351
 4798              	.L364:
1609:src-gen/Main/core/reactor_common.c ****             } else if (strncmp(units, "msec", 4) == 0) {
 4799              		.loc 1 1609 20 is_stmt 1 view .LVU1296
 4800              		.loc 1 1609 24 is_stmt 0 view .LVU1297
 4801 010e 0422     		movs	r2, #4
 4802 0110 8049     		ldr	r1, .L391+60
 4803 0112 5046     		mov	r0, r10
 4804 0114 FFF7FEFF 		bl	strncmp
 4805              	.LVL495:
 4806              		.loc 1 1609 23 view .LVU1298
 4807 0118 D8B9     		cbnz	r0, .L365
1610:src-gen/Main/core/reactor_common.c ****                 duration = MSEC(duration);
 4808              		.loc 1 1610 17 is_stmt 1 view .LVU1299
 4809              		.loc 1 1610 28 is_stmt 0 view .LVU1300
 4810 011a 7201     		lsls	r2, r6, #5
 4811 011c 42EAD562 		orr	r2, r2, r5, lsr #27
 4812 0120 6B01     		lsls	r3, r5, #5
 4813 0122 5B1B     		subs	r3, r3, r5
 4814 0124 62EB0602 		sbc	r2, r2, r6
 4815 0128 5202     		lsls	r2, r2, #9
 4816 012a 42EAD352 		orr	r2, r2, r3, lsr #23
 4817 012e 5B02     		lsls	r3, r3, #9
 4818 0130 5B19     		adds	r3, r3, r5
 4819 0132 46EB0202 		adc	r2, r6, r2
 4820 0136 9001     		lsls	r0, r2, #6
 4821 0138 40EA9360 		orr	r0, r0, r3, lsr #26
 4822 013c 9901     		lsls	r1, r3, #6
 4823 013e CB1A     		subs	r3, r1, r3
 4824 0140 60EB0200 		sbc	r0, r0, r2
 4825 0144 5B19     		adds	r3, r3, r5
 4826 0146 46EB0000 		adc	r0, r6, r0
 4827              		.loc 1 1610 26 view .LVU1301
 4828 014a 6A4A     		ldr	r2, .L391+28
 4829 014c 1360     		str	r3, [r2]
 4830 014e 5060     		str	r0, [r2, #4]
 4831 0150 6AE7     		b	.L352
 4832              	.L365:
1611:src-gen/Main/core/reactor_common.c ****             } else if (strncmp(units, "usec", 4) == 0) {
 4833              		.loc 1 1611 20 is_stmt 1 view .LVU1302
 4834              		.loc 1 1611 24 is_stmt 0 view .LVU1303
 4835 0152 0422     		movs	r2, #4
 4836 0154 7049     		ldr	r1, .L391+64
 4837 0156 5046     		mov	r0, r10
 4838 0158 FFF7FEFF 		bl	strncmp
 4839              	.LVL496:
 4840              		.loc 1 1611 23 view .LVU1304
 4841 015c A8B9     		cbnz	r0, .L366
1612:src-gen/Main/core/reactor_common.c ****                 duration = USEC(duration);
 4842              		.loc 1 1612 17 is_stmt 1 view .LVU1305
 4843              		.loc 1 1612 28 is_stmt 0 view .LVU1306
 4844 015e 7301     		lsls	r3, r6, #5
 4845 0160 43EAD563 		orr	r3, r3, r5, lsr #27
ARM GAS  /var/folders/2h/lww79zv53b510qlyvytqnvq40000gn/T//ccDbZlJP.s 			page 132


 4846 0164 6A01     		lsls	r2, r5, #5
 4847 0166 521B     		subs	r2, r2, r5
 4848 0168 63EB0603 		sbc	r3, r3, r6
 4849 016c 9B00     		lsls	r3, r3, #2
 4850 016e 43EA9273 		orr	r3, r3, r2, lsr #30
 4851 0172 9200     		lsls	r2, r2, #2
 4852 0174 5219     		adds	r2, r2, r5
 4853 0176 46EB0303 		adc	r3, r6, r3
 4854 017a DB00     		lsls	r3, r3, #3
 4855 017c 43EA5273 		orr	r3, r3, r2, lsr #29
 4856 0180 D200     		lsls	r2, r2, #3
 4857              		.loc 1 1612 26 view .LVU1307
 4858 0182 5C49     		ldr	r1, .L391+28
 4859 0184 0A60     		str	r2, [r1]
 4860 0186 4B60     		str	r3, [r1, #4]
 4861 0188 4EE7     		b	.L352
 4862              	.L366:
1613:src-gen/Main/core/reactor_common.c ****             } else if (strncmp(units, "nsec", 4) == 0) {
 4863              		.loc 1 1613 20 is_stmt 1 view .LVU1308
 4864              		.loc 1 1613 24 is_stmt 0 view .LVU1309
 4865 018a 0422     		movs	r2, #4
 4866 018c 6349     		ldr	r1, .L391+68
 4867 018e 5046     		mov	r0, r10
 4868 0190 FFF7FEFF 		bl	strncmp
 4869              	.LVL497:
 4870              		.loc 1 1613 23 view .LVU1310
 4871 0194 0028     		cmp	r0, #0
 4872 0196 3FF447AF 		beq	.L352
1614:src-gen/Main/core/reactor_common.c ****                 duration = NSEC(duration);
1615:src-gen/Main/core/reactor_common.c ****             } else if (strncmp(units, "min", 3) == 0) {
 4873              		.loc 1 1615 20 is_stmt 1 view .LVU1311
 4874              		.loc 1 1615 24 is_stmt 0 view .LVU1312
 4875 019a 0322     		movs	r2, #3
 4876 019c 6049     		ldr	r1, .L391+72
 4877 019e 5046     		mov	r0, r10
 4878 01a0 FFF7FEFF 		bl	strncmp
 4879              	.LVL498:
 4880              		.loc 1 1615 23 view .LVU1313
 4881 01a4 60B9     		cbnz	r0, .L367
1616:src-gen/Main/core/reactor_common.c ****                 duration = MINUTE(duration);
 4882              		.loc 1 1616 17 is_stmt 1 view .LVU1314
 4883              		.loc 1 1616 28 is_stmt 0 view .LVU1315
 4884 01a6 5F4A     		ldr	r2, .L391+76
 4885 01a8 0D23     		movs	r3, #13
 4886 01aa 05FB03F3 		mul	r3, r5, r3
 4887 01ae 02FB0633 		mla	r3, r2, r6, r3
 4888 01b2 A5FB0225 		umull	r2, r5, r5, r2
 4889 01b6 2B44     		add	r3, r3, r5
 4890              		.loc 1 1616 26 view .LVU1316
 4891 01b8 4E49     		ldr	r1, .L391+28
 4892 01ba 0A60     		str	r2, [r1]
 4893 01bc 4B60     		str	r3, [r1, #4]
 4894 01be 33E7     		b	.L352
 4895              	.L367:
1617:src-gen/Main/core/reactor_common.c ****             } else if (strncmp(units, "hour", 4) == 0) {
 4896              		.loc 1 1617 20 is_stmt 1 view .LVU1317
 4897              		.loc 1 1617 24 is_stmt 0 view .LVU1318
ARM GAS  /var/folders/2h/lww79zv53b510qlyvytqnvq40000gn/T//ccDbZlJP.s 			page 133


 4898 01c0 0422     		movs	r2, #4
 4899 01c2 5949     		ldr	r1, .L391+80
 4900 01c4 5046     		mov	r0, r10
 4901 01c6 FFF7FEFF 		bl	strncmp
 4902              	.LVL499:
 4903              		.loc 1 1617 23 view .LVU1319
 4904 01ca 68B9     		cbnz	r0, .L368
1618:src-gen/Main/core/reactor_common.c ****                 duration = HOUR(duration);
 4905              		.loc 1 1618 17 is_stmt 1 view .LVU1320
 4906              		.loc 1 1618 28 is_stmt 0 view .LVU1321
 4907 01cc 574A     		ldr	r2, .L391+84
 4908 01ce 40F24633 		movw	r3, #838
 4909 01d2 05FB03F3 		mul	r3, r5, r3
 4910 01d6 02FB0633 		mla	r3, r2, r6, r3
 4911 01da A5FB0225 		umull	r2, r5, r5, r2
 4912 01de 2B44     		add	r3, r3, r5
 4913              		.loc 1 1618 26 view .LVU1322
 4914 01e0 4449     		ldr	r1, .L391+28
 4915 01e2 0A60     		str	r2, [r1]
 4916 01e4 4B60     		str	r3, [r1, #4]
 4917 01e6 1FE7     		b	.L352
 4918              	.L368:
1619:src-gen/Main/core/reactor_common.c ****             } else if (strncmp(units, "day", 3) == 0) {
 4919              		.loc 1 1619 20 is_stmt 1 view .LVU1323
 4920              		.loc 1 1619 24 is_stmt 0 view .LVU1324
 4921 01e8 0322     		movs	r2, #3
 4922 01ea 5149     		ldr	r1, .L391+88
 4923 01ec 5046     		mov	r0, r10
 4924 01ee FFF7FEFF 		bl	strncmp
 4925              	.LVL500:
 4926              		.loc 1 1619 23 view .LVU1325
 4927 01f2 68B9     		cbnz	r0, .L369
1620:src-gen/Main/core/reactor_common.c ****                 duration = DAY(duration);
 4928              		.loc 1 1620 17 is_stmt 1 view .LVU1326
 4929              		.loc 1 1620 28 is_stmt 0 view .LVU1327
 4930 01f4 4F4A     		ldr	r2, .L391+92
 4931 01f6 44F69463 		movw	r3, #20116
 4932 01fa 05FB03F3 		mul	r3, r5, r3
 4933 01fe 02FB0633 		mla	r3, r2, r6, r3
 4934 0202 A5FB0225 		umull	r2, r5, r5, r2
 4935 0206 2B44     		add	r3, r3, r5
 4936              		.loc 1 1620 26 view .LVU1328
 4937 0208 3A49     		ldr	r1, .L391+28
 4938 020a 0A60     		str	r2, [r1]
 4939 020c 4B60     		str	r3, [r1, #4]
 4940 020e 0BE7     		b	.L352
 4941              	.L369:
1621:src-gen/Main/core/reactor_common.c ****             } else if (strncmp(units, "week", 4) == 0) {
 4942              		.loc 1 1621 20 is_stmt 1 view .LVU1329
 4943              		.loc 1 1621 24 is_stmt 0 view .LVU1330
 4944 0210 0422     		movs	r2, #4
 4945 0212 4949     		ldr	r1, .L391+96
 4946 0214 5046     		mov	r0, r10
 4947 0216 FFF7FEFF 		bl	strncmp
 4948              	.LVL501:
 4949              		.loc 1 1621 23 view .LVU1331
 4950 021a 60B9     		cbnz	r0, .L370
ARM GAS  /var/folders/2h/lww79zv53b510qlyvytqnvq40000gn/T//ccDbZlJP.s 			page 134


1622:src-gen/Main/core/reactor_common.c ****                 duration = WEEK(duration);
 4951              		.loc 1 1622 17 is_stmt 1 view .LVU1332
 4952              		.loc 1 1622 28 is_stmt 0 view .LVU1333
 4953 021c 474A     		ldr	r2, .L391+100
 4954 021e 484B     		ldr	r3, .L391+104
 4955 0220 05FB03F3 		mul	r3, r5, r3
 4956 0224 02FB0633 		mla	r3, r2, r6, r3
 4957 0228 A5FB0252 		umull	r5, r2, r5, r2
 4958 022c 1344     		add	r3, r3, r2
 4959              		.loc 1 1622 26 view .LVU1334
 4960 022e 314A     		ldr	r2, .L391+28
 4961 0230 1560     		str	r5, [r2]
 4962 0232 5360     		str	r3, [r2, #4]
 4963 0234 F8E6     		b	.L352
 4964              	.L370:
1623:src-gen/Main/core/reactor_common.c ****             } else {
1624:src-gen/Main/core/reactor_common.c ****                 // Invalid units.
1625:src-gen/Main/core/reactor_common.c ****                 lf_print_error("Invalid time units: %s", units);
 4965              		.loc 1 1625 17 is_stmt 1 view .LVU1335
 4966 0236 5146     		mov	r1, r10
 4967 0238 4248     		ldr	r0, .L391+108
 4968 023a FFF7FEFF 		bl	lf_print_error
 4969              	.LVL502:
1626:src-gen/Main/core/reactor_common.c ****                 usage(argc, argv);
 4970              		.loc 1 1626 17 view .LVU1336
 4971 023e 3946     		mov	r1, r7
 4972 0240 4046     		mov	r0, r8
 4973 0242 FFF7FEFF 		bl	usage
 4974              	.LVL503:
1627:src-gen/Main/core/reactor_common.c ****                 return 0;
 4975              		.loc 1 1627 17 view .LVU1337
 4976              		.loc 1 1627 24 is_stmt 0 view .LVU1338
 4977 0246 0020     		movs	r0, #0
 4978 0248 AFE0     		b	.L351
 4979              	.LVL504:
 4980              	.L361:
 4981              		.loc 1 1627 24 view .LVU1339
 4982              	.LBE61:
1628:src-gen/Main/core/reactor_common.c ****             }
1629:src-gen/Main/core/reactor_common.c ****         } else if (strcmp(arg, "-k") == 0 || strcmp(arg, "--keepalive") == 0) {
 4983              		.loc 1 1629 16 is_stmt 1 view .LVU1340
 4984              		.loc 1 1629 20 is_stmt 0 view .LVU1341
 4985 024a 3F49     		ldr	r1, .L391+112
 4986 024c 2846     		mov	r0, r5
 4987 024e FFF7FEFF 		bl	strcmp
 4988              	.LVL505:
 4989              		.loc 1 1629 19 view .LVU1342
 4990 0252 20B1     		cbz	r0, .L371
 4991              		.loc 1 1629 46 discriminator 1 view .LVU1343
 4992 0254 3D49     		ldr	r1, .L391+116
 4993 0256 2846     		mov	r0, r5
 4994 0258 FFF7FEFF 		bl	strcmp
 4995              	.LVL506:
 4996              		.loc 1 1629 43 discriminator 1 view .LVU1344
 4997 025c 20BB     		cbnz	r0, .L372
 4998              	.L371:
 4999              	.LBB62:
ARM GAS  /var/folders/2h/lww79zv53b510qlyvytqnvq40000gn/T//ccDbZlJP.s 			page 135


1630:src-gen/Main/core/reactor_common.c ****             if (argc < i + 1) {
 5000              		.loc 1 1630 13 is_stmt 1 view .LVU1345
 5001              		.loc 1 1630 16 is_stmt 0 view .LVU1346
 5002 025e B045     		cmp	r8, r6
 5003 0260 0BDD     		ble	.L387
1631:src-gen/Main/core/reactor_common.c ****                 lf_print_error("--keepalive needs a boolean.");
1632:src-gen/Main/core/reactor_common.c ****                 usage(argc, argv);
1633:src-gen/Main/core/reactor_common.c ****                 return 0;
1634:src-gen/Main/core/reactor_common.c ****             }
1635:src-gen/Main/core/reactor_common.c ****             const char* keep_spec = argv[i++];
 5004              		.loc 1 1635 13 is_stmt 1 view .LVU1347
 5005              		.loc 1 1635 43 is_stmt 0 view .LVU1348
 5006 0262 0234     		adds	r4, r4, #2
 5007              	.LVL507:
 5008              		.loc 1 1635 25 view .LVU1349
 5009 0264 57F82650 		ldr	r5, [r7, r6, lsl #2]
 5010              	.LVL508:
1636:src-gen/Main/core/reactor_common.c ****             if (strcmp(keep_spec, "true") == 0) {
 5011              		.loc 1 1636 13 is_stmt 1 view .LVU1350
 5012              		.loc 1 1636 17 is_stmt 0 view .LVU1351
 5013 0268 1B49     		ldr	r1, .L391
 5014 026a 2846     		mov	r0, r5
 5015 026c FFF7FEFF 		bl	strcmp
 5016              	.LVL509:
 5017              		.loc 1 1636 16 view .LVU1352
 5018 0270 60B9     		cbnz	r0, .L374
1637:src-gen/Main/core/reactor_common.c ****                 keepalive_specified = true;
 5019              		.loc 1 1637 17 is_stmt 1 view .LVU1353
 5020              		.loc 1 1637 37 is_stmt 0 view .LVU1354
 5021 0272 374B     		ldr	r3, .L391+120
 5022 0274 0122     		movs	r2, #1
 5023 0276 1A70     		strb	r2, [r3]
 5024 0278 D6E6     		b	.L352
 5025              	.LVL510:
 5026              	.L387:
1631:src-gen/Main/core/reactor_common.c ****                 lf_print_error("--keepalive needs a boolean.");
 5027              		.loc 1 1631 17 is_stmt 1 view .LVU1355
 5028 027a 3648     		ldr	r0, .L391+124
 5029 027c FFF7FEFF 		bl	lf_print_error
 5030              	.LVL511:
1632:src-gen/Main/core/reactor_common.c ****                 return 0;
 5031              		.loc 1 1632 17 view .LVU1356
 5032 0280 3946     		mov	r1, r7
 5033 0282 4046     		mov	r0, r8
 5034 0284 FFF7FEFF 		bl	usage
 5035              	.LVL512:
1633:src-gen/Main/core/reactor_common.c ****             }
 5036              		.loc 1 1633 17 view .LVU1357
1633:src-gen/Main/core/reactor_common.c ****             }
 5037              		.loc 1 1633 24 is_stmt 0 view .LVU1358
 5038 0288 0020     		movs	r0, #0
 5039 028a 8EE0     		b	.L351
 5040              	.LVL513:
 5041              	.L374:
1638:src-gen/Main/core/reactor_common.c ****             } else if (strcmp(keep_spec, "false") == 0) {
 5042              		.loc 1 1638 20 is_stmt 1 view .LVU1359
 5043              		.loc 1 1638 24 is_stmt 0 view .LVU1360
ARM GAS  /var/folders/2h/lww79zv53b510qlyvytqnvq40000gn/T//ccDbZlJP.s 			page 136


 5044 028c 1D49     		ldr	r1, .L391+44
 5045 028e 2846     		mov	r0, r5
 5046 0290 FFF7FEFF 		bl	strcmp
 5047              	.LVL514:
 5048              		.loc 1 1638 23 view .LVU1361
 5049 0294 18B9     		cbnz	r0, .L375
1639:src-gen/Main/core/reactor_common.c ****                 keepalive_specified = false;
 5050              		.loc 1 1639 17 is_stmt 1 view .LVU1362
 5051              		.loc 1 1639 37 is_stmt 0 view .LVU1363
 5052 0296 2E4B     		ldr	r3, .L391+120
 5053 0298 0022     		movs	r2, #0
 5054 029a 1A70     		strb	r2, [r3]
 5055 029c C4E6     		b	.L352
 5056              	.L375:
1640:src-gen/Main/core/reactor_common.c ****             } else {
1641:src-gen/Main/core/reactor_common.c ****                 lf_print_error("Invalid value for --keepalive: %s", keep_spec);
 5057              		.loc 1 1641 17 is_stmt 1 view .LVU1364
 5058 029e 2946     		mov	r1, r5
 5059 02a0 2D48     		ldr	r0, .L391+128
 5060 02a2 FFF7FEFF 		bl	lf_print_error
 5061              	.LVL515:
 5062 02a6 BFE6     		b	.L352
 5063              	.LVL516:
 5064              	.L372:
 5065              		.loc 1 1641 17 is_stmt 0 view .LVU1365
 5066              	.LBE62:
1642:src-gen/Main/core/reactor_common.c ****             }
1643:src-gen/Main/core/reactor_common.c ****         } else if (strcmp(arg, "-w") == 0 || strcmp(arg, "--workers") == 0) {
 5067              		.loc 1 1643 16 is_stmt 1 view .LVU1366
 5068              		.loc 1 1643 20 is_stmt 0 view .LVU1367
 5069 02a8 2C49     		ldr	r1, .L391+132
 5070 02aa 2846     		mov	r0, r5
 5071 02ac FFF7FEFF 		bl	strcmp
 5072              	.LVL517:
 5073              		.loc 1 1643 19 view .LVU1368
 5074 02b0 28B1     		cbz	r0, .L376
 5075              		.loc 1 1643 46 discriminator 1 view .LVU1369
 5076 02b2 2B49     		ldr	r1, .L391+136
 5077 02b4 2846     		mov	r0, r5
 5078 02b6 FFF7FEFF 		bl	strcmp
 5079              	.LVL518:
 5080              		.loc 1 1643 43 discriminator 1 view .LVU1370
 5081 02ba 0028     		cmp	r0, #0
 5082 02bc 63D1     		bne	.L377
 5083              	.L376:
 5084              	.LBB63:
1644:src-gen/Main/core/reactor_common.c ****             if (argc < i + 1) {
 5085              		.loc 1 1644 13 is_stmt 1 view .LVU1371
 5086              		.loc 1 1644 16 is_stmt 0 view .LVU1372
 5087 02be B045     		cmp	r8, r6
 5088 02c0 52DD     		ble	.L388
1645:src-gen/Main/core/reactor_common.c ****                 lf_print_error("--workers needs an integer argument.s");
1646:src-gen/Main/core/reactor_common.c ****                 usage(argc, argv);
1647:src-gen/Main/core/reactor_common.c ****                 return 0;
1648:src-gen/Main/core/reactor_common.c ****             }
1649:src-gen/Main/core/reactor_common.c ****             const char* threads_spec = argv[i++];
 5089              		.loc 1 1649 13 is_stmt 1 view .LVU1373
ARM GAS  /var/folders/2h/lww79zv53b510qlyvytqnvq40000gn/T//ccDbZlJP.s 			page 137


 5090              		.loc 1 1649 46 is_stmt 0 view .LVU1374
 5091 02c2 0234     		adds	r4, r4, #2
 5092              	.LVL519:
 5093              		.loc 1 1649 25 view .LVU1375
 5094 02c4 57F82650 		ldr	r5, [r7, r6, lsl #2]
 5095              	.LVL520:
1650:src-gen/Main/core/reactor_common.c ****             int num_workers = atoi(threads_spec);
 5096              		.loc 1 1650 13 is_stmt 1 view .LVU1376
 5097              		.loc 1 1650 31 is_stmt 0 view .LVU1377
 5098 02c8 2846     		mov	r0, r5
 5099 02ca FFF7FEFF 		bl	atoi
 5100              	.LVL521:
1651:src-gen/Main/core/reactor_common.c ****             if (num_workers <= 0) {
 5101              		.loc 1 1651 13 is_stmt 1 view .LVU1378
 5102              		.loc 1 1651 16 is_stmt 0 view .LVU1379
 5103 02ce 0028     		cmp	r0, #0
 5104              		.loc 1 1651 16 view .LVU1380
 5105 02d0 53DD     		ble	.L389
 5106              	.LVL522:
 5107              	.L379:
1652:src-gen/Main/core/reactor_common.c ****                 lf_print_error("Invalid value for --workers: %s. Using 1.", threads_spec);
1653:src-gen/Main/core/reactor_common.c ****                 num_workers = 1;
1654:src-gen/Main/core/reactor_common.c ****             }
1655:src-gen/Main/core/reactor_common.c ****             _lf_number_of_workers = (unsigned int)num_workers;
 5108              		.loc 1 1655 13 is_stmt 1 view .LVU1381
 5109              		.loc 1 1655 35 is_stmt 0 view .LVU1382
 5110 02d2 244B     		ldr	r3, .L391+140
 5111 02d4 1860     		str	r0, [r3]
 5112              	.LBE63:
1643:src-gen/Main/core/reactor_common.c ****             if (argc < i + 1) {
 5113              		.loc 1 1643 77 view .LVU1383
 5114 02d6 A7E6     		b	.L352
 5115              	.L392:
 5116              		.align	2
 5117              	.L391:
 5118 02d8 24000000 		.word	.LC35
 5119 02dc 00000000 		.word	fast
 5120 02e0 00000000 		.word	.LC32
 5121 02e4 04000000 		.word	.LC33
 5122 02e8 54000000 		.word	.LC38
 5123 02ec 58000000 		.word	.LC39
 5124 02f0 64000000 		.word	.LC40
 5125 02f4 00000000 		.word	duration
 5126 02f8 A8000000 		.word	.LC43
 5127 02fc 00CA9A3B 		.word	1000000000
 5128 0300 0C000000 		.word	.LC34
 5129 0304 2C000000 		.word	.LC36
 5130 0308 34000000 		.word	.LC37
 5131 030c 70000000 		.word	.LC41
 5132 0310 90000000 		.word	.LC42
 5133 0314 AC000000 		.word	.LC44
 5134 0318 B4000000 		.word	.LC45
 5135 031c BC000000 		.word	.LC46
 5136 0320 C4000000 		.word	.LC47
 5137 0324 005847F8 		.word	-129542144
 5138 0328 C8000000 		.word	.LC48
 5139 032c 00A0B830 		.word	817405952
ARM GAS  /var/folders/2h/lww79zv53b510qlyvytqnvq40000gn/T//ccDbZlJP.s 			page 138


 5140 0330 D0000000 		.word	.LC49
 5141 0334 00004F91 		.word	-1857093632
 5142 0338 D4000000 		.word	.LC50
 5143 033c 000029F9 		.word	-114753536
 5144 0340 0F260200 		.word	140815
 5145 0344 DC000000 		.word	.LC51
 5146 0348 F4000000 		.word	.LC52
 5147 034c F8000000 		.word	.LC53
 5148 0350 00000000 		.word	keepalive_specified
 5149 0354 04010000 		.word	.LC54
 5150 0358 24010000 		.word	.LC55
 5151 035c 48010000 		.word	.LC56
 5152 0360 4C010000 		.word	.LC57
 5153 0364 00000000 		.word	_lf_number_of_workers
 5154              	.LVL523:
 5155              	.L388:
 5156              	.LBB64:
1645:src-gen/Main/core/reactor_common.c ****                 usage(argc, argv);
 5157              		.loc 1 1645 17 is_stmt 1 view .LVU1384
 5158 0368 1148     		ldr	r0, .L393
 5159 036a FFF7FEFF 		bl	lf_print_error
 5160              	.LVL524:
1646:src-gen/Main/core/reactor_common.c ****                 return 0;
 5161              		.loc 1 1646 17 view .LVU1385
 5162 036e 3946     		mov	r1, r7
 5163 0370 4046     		mov	r0, r8
 5164 0372 FFF7FEFF 		bl	usage
 5165              	.LVL525:
1647:src-gen/Main/core/reactor_common.c ****             }
 5166              		.loc 1 1647 17 view .LVU1386
1647:src-gen/Main/core/reactor_common.c ****             }
 5167              		.loc 1 1647 24 is_stmt 0 view .LVU1387
 5168 0376 0020     		movs	r0, #0
 5169 0378 17E0     		b	.L351
 5170              	.LVL526:
 5171              	.L389:
1652:src-gen/Main/core/reactor_common.c ****                 num_workers = 1;
 5172              		.loc 1 1652 17 is_stmt 1 view .LVU1388
 5173 037a 2946     		mov	r1, r5
 5174 037c 0D48     		ldr	r0, .L393+4
 5175              	.LVL527:
1652:src-gen/Main/core/reactor_common.c ****                 num_workers = 1;
 5176              		.loc 1 1652 17 is_stmt 0 view .LVU1389
 5177 037e FFF7FEFF 		bl	lf_print_error
 5178              	.LVL528:
1653:src-gen/Main/core/reactor_common.c ****             }
 5179              		.loc 1 1653 17 is_stmt 1 view .LVU1390
1653:src-gen/Main/core/reactor_common.c ****             }
 5180              		.loc 1 1653 29 is_stmt 0 view .LVU1391
 5181 0382 0120     		movs	r0, #1
 5182 0384 A5E7     		b	.L379
 5183              	.LVL529:
 5184              	.L377:
1653:src-gen/Main/core/reactor_common.c ****             }
 5185              		.loc 1 1653 29 view .LVU1392
 5186              	.LBE64:
1656:src-gen/Main/core/reactor_common.c ****         }
ARM GAS  /var/folders/2h/lww79zv53b510qlyvytqnvq40000gn/T//ccDbZlJP.s 			page 139


1657:src-gen/Main/core/reactor_common.c ****         #ifdef FEDERATED
1658:src-gen/Main/core/reactor_common.c ****           else if (strcmp(arg, "-i") == 0 || strcmp(arg, "--id") == 0) {
1659:src-gen/Main/core/reactor_common.c ****             if (argc < i + 1) {
1660:src-gen/Main/core/reactor_common.c ****                 lf_print_error("--id needs a string argument.");
1661:src-gen/Main/core/reactor_common.c ****                 usage(argc, argv);
1662:src-gen/Main/core/reactor_common.c ****                 return 0;
1663:src-gen/Main/core/reactor_common.c ****             }
1664:src-gen/Main/core/reactor_common.c ****             const char* fid = argv[i++];
1665:src-gen/Main/core/reactor_common.c ****             set_federation_id(fid);
1666:src-gen/Main/core/reactor_common.c ****             lf_print("Federation ID for executable %s: %s", argv[0], fid);
1667:src-gen/Main/core/reactor_common.c ****         } else if (strcmp(arg, "-r") == 0 || strcmp(arg, "--rti") == 0) {
1668:src-gen/Main/core/reactor_common.c ****             if (argc < i + 1) {
1669:src-gen/Main/core/reactor_common.c ****                 lf_print_error("--rti needs a string argument in the form of [user]@[host]:[port]."
1670:src-gen/Main/core/reactor_common.c ****                 usage(argc, argv);
1671:src-gen/Main/core/reactor_common.c ****                 return 0;
1672:src-gen/Main/core/reactor_common.c ****             }
1673:src-gen/Main/core/reactor_common.c ****             parse_rti_code_t code = parse_rti_addr(argv[i++]);
1674:src-gen/Main/core/reactor_common.c ****             if (code != SUCCESS) {
1675:src-gen/Main/core/reactor_common.c ****                 switch (code) {
1676:src-gen/Main/core/reactor_common.c ****                     case INVALID_HOST:
1677:src-gen/Main/core/reactor_common.c ****                         lf_print_error("--rti needs a valid host");
1678:src-gen/Main/core/reactor_common.c ****                         break;
1679:src-gen/Main/core/reactor_common.c ****                     case INVALID_PORT:
1680:src-gen/Main/core/reactor_common.c ****                         lf_print_error("--rti needs a valid port");
1681:src-gen/Main/core/reactor_common.c ****                         break;
1682:src-gen/Main/core/reactor_common.c ****                     case INVALID_USER:
1683:src-gen/Main/core/reactor_common.c ****                         lf_print_error("--rti needs a valid user");
1684:src-gen/Main/core/reactor_common.c ****                         break;
1685:src-gen/Main/core/reactor_common.c ****                     case FAILED_TO_PARSE:
1686:src-gen/Main/core/reactor_common.c ****                         lf_print_error("Failed to parse address of RTI");
1687:src-gen/Main/core/reactor_common.c ****                         break;
1688:src-gen/Main/core/reactor_common.c ****                     default:
1689:src-gen/Main/core/reactor_common.c ****                         break;
1690:src-gen/Main/core/reactor_common.c ****                 }
1691:src-gen/Main/core/reactor_common.c ****                 usage(argc, argv);
1692:src-gen/Main/core/reactor_common.c ****                 return 0;
1693:src-gen/Main/core/reactor_common.c ****             }
1694:src-gen/Main/core/reactor_common.c ****         }
1695:src-gen/Main/core/reactor_common.c ****         #endif
1696:src-gen/Main/core/reactor_common.c ****           else if (strcmp(arg, "--ros-args") == 0) {
 5187              		.loc 1 1696 16 is_stmt 1 view .LVU1393
 5188              		.loc 1 1696 20 is_stmt 0 view .LVU1394
 5189 0386 0C49     		ldr	r1, .L393+8
 5190 0388 2846     		mov	r0, r5
 5191 038a FFF7FEFF 		bl	strcmp
 5192              	.LVL530:
 5193              		.loc 1 1696 19 view .LVU1395
 5194 038e 08B9     		cbnz	r0, .L390
1566:src-gen/Main/core/reactor_common.c ****         if (strcmp(arg, "-f") == 0 || strcmp(arg, "--fast") == 0) {
 5195              		.loc 1 1566 33 view .LVU1396
 5196 0390 3446     		mov	r4, r6
 5197 0392 49E6     		b	.L352
 5198              	.L390:
1697:src-gen/Main/core/reactor_common.c ****               // FIXME: Ignore ROS arguments for now
1698:src-gen/Main/core/reactor_common.c ****         } else {
1699:src-gen/Main/core/reactor_common.c ****             lf_print_error("Unrecognized command-line argument: %s", arg);
 5199              		.loc 1 1699 13 is_stmt 1 view .LVU1397
ARM GAS  /var/folders/2h/lww79zv53b510qlyvytqnvq40000gn/T//ccDbZlJP.s 			page 140


 5200 0394 2946     		mov	r1, r5
 5201 0396 0948     		ldr	r0, .L393+12
 5202 0398 FFF7FEFF 		bl	lf_print_error
 5203              	.LVL531:
1700:src-gen/Main/core/reactor_common.c ****             usage(argc, argv);
 5204              		.loc 1 1700 13 view .LVU1398
 5205 039c 3946     		mov	r1, r7
 5206 039e 4046     		mov	r0, r8
 5207 03a0 FFF7FEFF 		bl	usage
 5208              	.LVL532:
1701:src-gen/Main/core/reactor_common.c ****             return 0;
 5209              		.loc 1 1701 13 view .LVU1399
 5210              		.loc 1 1701 20 is_stmt 0 view .LVU1400
 5211 03a4 0020     		movs	r0, #0
 5212 03a6 00E0     		b	.L351
 5213              	.LVL533:
 5214              	.L384:
 5215              		.loc 1 1701 20 view .LVU1401
 5216              	.LBE65:
1702:src-gen/Main/core/reactor_common.c ****         }
1703:src-gen/Main/core/reactor_common.c ****     }
1704:src-gen/Main/core/reactor_common.c ****     return 1;
 5217              		.loc 1 1704 12 view .LVU1402
 5218 03a8 0120     		movs	r0, #1
 5219              	.LVL534:
 5220              	.L351:
1705:src-gen/Main/core/reactor_common.c **** }
 5221              		.loc 1 1705 1 view .LVU1403
 5222 03aa BDE8F087 		pop	{r4, r5, r6, r7, r8, r9, r10, pc}
 5223              	.LVL535:
 5224              	.L394:
 5225              		.loc 1 1705 1 view .LVU1404
 5226 03ae 00BF     		.align	2
 5227              	.L393:
 5228 03b0 58010000 		.word	.LC58
 5229 03b4 80010000 		.word	.LC59
 5230 03b8 AC010000 		.word	.LC60
 5231 03bc B8010000 		.word	.LC61
 5232              		.cfi_endproc
 5233              	.LFE163:
 5235              		.section	.text.initialize_global,"ax",%progbits
 5236              		.align	1
 5237              		.global	initialize_global
 5238              		.syntax unified
 5239              		.thumb
 5240              		.thumb_func
 5242              	initialize_global:
 5243              	.LFB164:
1706:src-gen/Main/core/reactor_common.c **** 
1707:src-gen/Main/core/reactor_common.c **** /**
1708:src-gen/Main/core/reactor_common.c ****  * Initialize global variables and start tracing before calling the
1709:src-gen/Main/core/reactor_common.c ****  * `_lf_initialize_trigger_objects` function
1710:src-gen/Main/core/reactor_common.c ****  */
1711:src-gen/Main/core/reactor_common.c **** void initialize_global(void) {
 5244              		.loc 1 1711 30 is_stmt 1 view -0
 5245              		.cfi_startproc
 5246              		@ args = 0, pretend = 0, frame = 8
ARM GAS  /var/folders/2h/lww79zv53b510qlyvytqnvq40000gn/T//ccDbZlJP.s 			page 141


 5247              		@ frame_needed = 0, uses_anonymous_args = 0
 5248 0000 10B5     		push	{r4, lr}
 5249              	.LCFI70:
 5250              		.cfi_def_cfa_offset 8
 5251              		.cfi_offset 4, -8
 5252              		.cfi_offset 14, -4
 5253 0002 82B0     		sub	sp, sp, #8
 5254              	.LCFI71:
 5255              		.cfi_def_cfa_offset 16
1712:src-gen/Main/core/reactor_common.c ****     _lf_count_payload_allocations = 0;
 5256              		.loc 1 1712 5 view .LVU1406
 5257              		.loc 1 1712 35 is_stmt 0 view .LVU1407
 5258 0004 0024     		movs	r4, #0
 5259 0006 084B     		ldr	r3, .L399
 5260 0008 1C60     		str	r4, [r3]
1713:src-gen/Main/core/reactor_common.c ****     _lf_count_token_allocations = 0;
 5261              		.loc 1 1713 5 is_stmt 1 view .LVU1408
 5262              		.loc 1 1713 33 is_stmt 0 view .LVU1409
 5263 000a 084B     		ldr	r3, .L399+4
 5264 000c 1C60     		str	r4, [r3]
1714:src-gen/Main/core/reactor_common.c ****     
1715:src-gen/Main/core/reactor_common.c ****     environment_t *envs;
 5265              		.loc 1 1715 5 is_stmt 1 view .LVU1410
1716:src-gen/Main/core/reactor_common.c ****     int num_envs = _lf_get_environments(&envs);
 5266              		.loc 1 1716 5 view .LVU1411
 5267              		.loc 1 1716 20 is_stmt 0 view .LVU1412
 5268 000e 01A8     		add	r0, sp, #4
 5269 0010 FFF7FEFF 		bl	_lf_get_environments
 5270              	.LVL536:
1717:src-gen/Main/core/reactor_common.c ****     for (int i = 0; i<num_envs; i++) {
 5271              		.loc 1 1717 5 is_stmt 1 view .LVU1413
 5272              	.LBB66:
 5273              		.loc 1 1717 10 view .LVU1414
 5274              		.loc 1 1717 14 is_stmt 0 view .LVU1415
 5275 0014 2346     		mov	r3, r4
 5276              		.loc 1 1717 5 view .LVU1416
 5277 0016 00E0     		b	.L396
 5278              	.LVL537:
 5279              	.L397:
1718:src-gen/Main/core/reactor_common.c ****         start_trace(envs[i].trace);
 5280              		.loc 1 1718 35 is_stmt 1 discriminator 3 view .LVU1417
1717:src-gen/Main/core/reactor_common.c ****     for (int i = 0; i<num_envs; i++) {
 5281              		.loc 1 1717 34 discriminator 3 view .LVU1418
 5282 0018 0133     		adds	r3, r3, #1
 5283              	.LVL538:
 5284              	.L396:
1717:src-gen/Main/core/reactor_common.c ****     for (int i = 0; i<num_envs; i++) {
 5285              		.loc 1 1717 22 discriminator 1 view .LVU1419
 5286 001a 8342     		cmp	r3, r0
 5287 001c FCDB     		blt	.L397
 5288              	.LBE66:
1719:src-gen/Main/core/reactor_common.c ****     }
1720:src-gen/Main/core/reactor_common.c **** 
1721:src-gen/Main/core/reactor_common.c ****     // Federation trace object must be set before `initialize_trigger_objects` is called because it
1722:src-gen/Main/core/reactor_common.c ****     //  uses tracing functionality depending on that pointer being set.
1723:src-gen/Main/core/reactor_common.c ****     #ifdef FEDERATED
1724:src-gen/Main/core/reactor_common.c ****     set_federation_trace_object(envs->trace);
ARM GAS  /var/folders/2h/lww79zv53b510qlyvytqnvq40000gn/T//ccDbZlJP.s 			page 142


1725:src-gen/Main/core/reactor_common.c ****     #endif
1726:src-gen/Main/core/reactor_common.c ****     // Call the code-generated function to initialize all actions, timers, and ports
1727:src-gen/Main/core/reactor_common.c ****     // This is done for all environments/enclaves at the same time.
1728:src-gen/Main/core/reactor_common.c ****     _lf_initialize_trigger_objects() ;
 5289              		.loc 1 1728 5 view .LVU1420
 5290 001e FFF7FEFF 		bl	_lf_initialize_trigger_objects
 5291              	.LVL539:
1729:src-gen/Main/core/reactor_common.c **** }
 5292              		.loc 1 1729 1 is_stmt 0 view .LVU1421
 5293 0022 02B0     		add	sp, sp, #8
 5294              	.LCFI72:
 5295              		.cfi_def_cfa_offset 8
 5296              		@ sp needed
 5297 0024 10BD     		pop	{r4, pc}
 5298              	.L400:
 5299 0026 00BF     		.align	2
 5300              	.L399:
 5301 0028 00000000 		.word	_lf_count_payload_allocations
 5302 002c 00000000 		.word	_lf_count_token_allocations
 5303              		.cfi_endproc
 5304              	.LFE164:
 5306              		.section	.rodata.termination.str1.4,"aMS",%progbits,1
 5307              		.align	2
 5308              	.LC62:
 5309 0000 2D2D2D2D 		.ascii	"---- Terminating environment %u\000"
 5309      20546572 
 5309      6D696E61 
 5309      74696E67 
 5309      20656E76 
 5310              		.align	2
 5311              	.LC63:
 5312 0020 2D2D2D2D 		.ascii	"---- Environment %u was never initialized\000"
 5312      20456E76 
 5312      69726F6E 
 5312      6D656E74 
 5312      20257520 
 5313 004a 0000     		.align	2
 5314              	.LC64:
 5315 004c 2D2D2D2D 		.ascii	"---- There are %zu unprocessed future events on the"
 5315      20546865 
 5315      72652061 
 5315      72652025 
 5315      7A752075 
 5316 007f 20657665 		.ascii	" event queue.\000"
 5316      6E742071 
 5316      75657565 
 5316      2E00
 5317 008d 000000   		.align	2
 5318              	.LC65:
 5319 0090 2D2D2D2D 		.ascii	"---- The first future event has timestamp %lld afte"
 5319      20546865 
 5319      20666972 
 5319      73742066 
 5319      75747572 
 5320 00c3 72207374 		.ascii	"r start time.\000"
 5320      61727420 
 5320      74696D65 
ARM GAS  /var/folders/2h/lww79zv53b510qlyvytqnvq40000gn/T//ccDbZlJP.s 			page 143


 5320      2E00
 5321 00d1 000000   		.align	2
 5322              	.LC66:
 5323 00d4 2D2D2D2D 		.ascii	"---- Elapsed logical time (in nsec): %s\012\000"
 5323      20456C61 
 5323      70736564 
 5323      206C6F67 
 5323      6963616C 
 5324 00fd 000000   		.align	2
 5325              	.LC67:
 5326 0100 2D2D2D2D 		.ascii	"---- Elapsed physical time (in nsec): %s\012\000"
 5326      20456C61 
 5326      70736564 
 5326      20706879 
 5326      73696361 
 5327 012a 0000     		.align	2
 5328              	.LC68:
 5329 012c 4D656D6F 		.ascii	"Memory allocated for messages has not been freed.\000"
 5329      72792061 
 5329      6C6C6F63 
 5329      61746564 
 5329      20666F72 
 5330 015e 0000     		.align	2
 5331              	.LC69:
 5332 0160 4E756D62 		.ascii	"Number of unfreed messages: %d.\000"
 5332      6572206F 
 5332      6620756E 
 5332      66726565 
 5332      64206D65 
 5333              		.align	2
 5334              	.LC70:
 5335 0180 4D656D6F 		.ascii	"Memory allocated for tokens has not been freed!\000"
 5335      72792061 
 5335      6C6C6F63 
 5335      61746564 
 5335      20666F72 
 5336              		.align	2
 5337              	.LC71:
 5338 01b0 4E756D62 		.ascii	"Number of unfreed tokens: %d.\000"
 5338      6572206F 
 5338      6620756E 
 5338      66726565 
 5338      6420746F 
 5339              		.section	.text.termination,"ax",%progbits
 5340              		.align	1
 5341              		.global	termination
 5342              		.syntax unified
 5343              		.thumb
 5344              		.thumb_func
 5346              	termination:
 5347              	.LFB165:
1730:src-gen/Main/core/reactor_common.c **** 
1731:src-gen/Main/core/reactor_common.c **** /**
1732:src-gen/Main/core/reactor_common.c ****  * Report elapsed logical and physical times and report if any
1733:src-gen/Main/core/reactor_common.c ****  * memory allocated by set_new, set_new_array, or lf_writable_copy
1734:src-gen/Main/core/reactor_common.c ****  * has not been freed.
1735:src-gen/Main/core/reactor_common.c ****  */
ARM GAS  /var/folders/2h/lww79zv53b510qlyvytqnvq40000gn/T//ccDbZlJP.s 			page 144


1736:src-gen/Main/core/reactor_common.c **** void termination(void) {
 5348              		.loc 1 1736 24 is_stmt 1 view -0
 5349              		.cfi_startproc
 5350              		@ args = 0, pretend = 0, frame = 40
 5351              		@ frame_needed = 0, uses_anonymous_args = 0
 5352 0000 70B5     		push	{r4, r5, r6, lr}
 5353              	.LCFI73:
 5354              		.cfi_def_cfa_offset 16
 5355              		.cfi_offset 4, -16
 5356              		.cfi_offset 5, -12
 5357              		.cfi_offset 6, -8
 5358              		.cfi_offset 14, -4
 5359 0002 8AB0     		sub	sp, sp, #40
 5360              	.LCFI74:
 5361              		.cfi_def_cfa_offset 56
1737:src-gen/Main/core/reactor_common.c ****     environment_t *env;
 5362              		.loc 1 1737 5 view .LVU1423
1738:src-gen/Main/core/reactor_common.c ****     int num_envs = _lf_get_environments(&env);
 5363              		.loc 1 1738 5 view .LVU1424
 5364              		.loc 1 1738 20 is_stmt 0 view .LVU1425
 5365 0004 09A8     		add	r0, sp, #36
 5366 0006 FFF7FEFF 		bl	_lf_get_environments
 5367              	.LVL540:
 5368 000a 0546     		mov	r5, r0
 5369              	.LVL541:
1739:src-gen/Main/core/reactor_common.c ****     // Invoke the code generated termination function. It terminates the federated related services
1740:src-gen/Main/core/reactor_common.c ****     // It should only be called for the top-level environment, which, after convention, is the firs
1741:src-gen/Main/core/reactor_common.c ****     terminate_execution(env);
 5370              		.loc 1 1741 5 is_stmt 1 view .LVU1426
 5371 000c 0998     		ldr	r0, [sp, #36]
 5372              	.LVL542:
 5373              		.loc 1 1741 5 is_stmt 0 view .LVU1427
 5374 000e FFF7FEFF 		bl	terminate_execution
 5375              	.LVL543:
1742:src-gen/Main/core/reactor_common.c **** 
1743:src-gen/Main/core/reactor_common.c **** 
1744:src-gen/Main/core/reactor_common.c ****     // In order to free tokens, we perform the same actions we would have for a new time step.
1745:src-gen/Main/core/reactor_common.c ****     for (int i = 0; i<num_envs; i++) {
 5376              		.loc 1 1745 5 is_stmt 1 view .LVU1428
 5377              	.LBB67:
 5378              		.loc 1 1745 10 view .LVU1429
 5379              		.loc 1 1745 14 is_stmt 0 view .LVU1430
 5380 0012 0024     		movs	r4, #0
 5381              		.loc 1 1745 5 view .LVU1431
 5382 0014 10E0     		b	.L402
 5383              	.LVL544:
 5384              	.L414:
 5385              	.LBB68:
1746:src-gen/Main/core/reactor_common.c ****         lf_print("---- Terminating environment %u", env->id);
1747:src-gen/Main/core/reactor_common.c ****         if (!env->initialized) {
1748:src-gen/Main/core/reactor_common.c ****             lf_print_warning("---- Environment %u was never initialized", env->id);
 5386              		.loc 1 1748 13 is_stmt 1 discriminator 1 view .LVU1432
 5387 0016 4168     		ldr	r1, [r0, #4]
 5388 0018 3B48     		ldr	r0, .L417
 5389 001a FFF7FEFF 		bl	lf_print_warning
 5390              	.LVL545:
1749:src-gen/Main/core/reactor_common.c ****             continue;
ARM GAS  /var/folders/2h/lww79zv53b510qlyvytqnvq40000gn/T//ccDbZlJP.s 			page 145


 5391              		.loc 1 1749 13 discriminator 1 view .LVU1433
 5392 001e 0AE0     		b	.L404
 5393              	.L405:
1750:src-gen/Main/core/reactor_common.c ****         }
1751:src-gen/Main/core/reactor_common.c ****         // Stop any tracing, if it is running.
1752:src-gen/Main/core/reactor_common.c ****         stop_trace(env->trace);
1753:src-gen/Main/core/reactor_common.c **** 
1754:src-gen/Main/core/reactor_common.c ****         _lf_start_time_step(env);
1755:src-gen/Main/core/reactor_common.c **** 
1756:src-gen/Main/core/reactor_common.c ****     #ifdef MODAL_REACTORS
1757:src-gen/Main/core/reactor_common.c ****         // Free events and tokens suspended by modal reactors.
1758:src-gen/Main/core/reactor_common.c ****         _lf_terminate_modal_reactors(env);
1759:src-gen/Main/core/reactor_common.c ****     #endif
1760:src-gen/Main/core/reactor_common.c **** 
1761:src-gen/Main/core/reactor_common.c ****         // If the event queue still has events on it, report that.
1762:src-gen/Main/core/reactor_common.c ****         if (env->event_q != NULL && pqueue_size(env->event_q) > 0) {
1763:src-gen/Main/core/reactor_common.c ****             lf_print_warning("---- There are %zu unprocessed future events on the event queue.", pq
1764:src-gen/Main/core/reactor_common.c ****             event_t* event = (event_t*)pqueue_peek(env->event_q);
1765:src-gen/Main/core/reactor_common.c ****             interval_t event_time = event->time - start_time;
1766:src-gen/Main/core/reactor_common.c ****             lf_print_warning("---- The first future event has timestamp " PRINTF_TIME " after start
1767:src-gen/Main/core/reactor_common.c ****         }
1768:src-gen/Main/core/reactor_common.c ****         // Print elapsed times.
1769:src-gen/Main/core/reactor_common.c ****         // If these are negative, then the program failed to start up.
1770:src-gen/Main/core/reactor_common.c ****         interval_t elapsed_time = lf_time_logical_elapsed(env);
 5394              		.loc 1 1770 9 view .LVU1434
 5395              		.loc 1 1770 35 is_stmt 0 view .LVU1435
 5396 0020 0998     		ldr	r0, [sp, #36]
 5397 0022 FFF7FEFF 		bl	lf_time_logical_elapsed
 5398              	.LVL546:
1771:src-gen/Main/core/reactor_common.c ****         if (elapsed_time >= 0LL) {
 5399              		.loc 1 1771 9 is_stmt 1 view .LVU1436
 5400              		.loc 1 1771 12 is_stmt 0 view .LVU1437
 5401 0026 0B1E     		subs	r3, r1, #0
 5402 0028 33DA     		bge	.L412
 5403              	.LVL547:
 5404              	.L406:
1772:src-gen/Main/core/reactor_common.c ****             char time_buffer[29]; // 28 bytes is enough for the largest 64 bit number: 9,223,372,03
1773:src-gen/Main/core/reactor_common.c ****             lf_comma_separated_time(time_buffer, elapsed_time);
1774:src-gen/Main/core/reactor_common.c ****             printf("---- Elapsed logical time (in nsec): %s\n", time_buffer);
1775:src-gen/Main/core/reactor_common.c **** 
1776:src-gen/Main/core/reactor_common.c ****             // If start_time is 0, then execution didn't get far enough along
1777:src-gen/Main/core/reactor_common.c ****             // to initialize this.
1778:src-gen/Main/core/reactor_common.c ****             if (start_time > 0LL) {
1779:src-gen/Main/core/reactor_common.c ****                 lf_comma_separated_time(time_buffer, lf_time_physical_elapsed());
1780:src-gen/Main/core/reactor_common.c ****                 printf("---- Elapsed physical time (in nsec): %s\n", time_buffer);
1781:src-gen/Main/core/reactor_common.c ****             }
1782:src-gen/Main/core/reactor_common.c ****         }
1783:src-gen/Main/core/reactor_common.c ****         
1784:src-gen/Main/core/reactor_common.c ****         // Free up memory associated with environment
1785:src-gen/Main/core/reactor_common.c ****         environment_free(env);
 5405              		.loc 1 1785 9 is_stmt 1 view .LVU1438
 5406 002a 0998     		ldr	r0, [sp, #36]
 5407 002c FFF7FEFF 		bl	environment_free
 5408              	.LVL548:
1786:src-gen/Main/core/reactor_common.c **** 
1787:src-gen/Main/core/reactor_common.c ****         env++;
 5409              		.loc 1 1787 9 view .LVU1439
ARM GAS  /var/folders/2h/lww79zv53b510qlyvytqnvq40000gn/T//ccDbZlJP.s 			page 146


 5410              		.loc 1 1787 12 is_stmt 0 view .LVU1440
 5411 0030 099B     		ldr	r3, [sp, #36]
 5412 0032 8833     		adds	r3, r3, #136
 5413 0034 0993     		str	r3, [sp, #36]
 5414              	.LVL549:
 5415              	.L404:
 5416              		.loc 1 1787 12 view .LVU1441
 5417              	.LBE68:
1745:src-gen/Main/core/reactor_common.c ****         lf_print("---- Terminating environment %u", env->id);
 5418              		.loc 1 1745 34 is_stmt 1 discriminator 2 view .LVU1442
 5419 0036 0134     		adds	r4, r4, #1
 5420              	.LVL550:
 5421              	.L402:
1745:src-gen/Main/core/reactor_common.c ****         lf_print("---- Terminating environment %u", env->id);
 5422              		.loc 1 1745 22 discriminator 1 view .LVU1443
 5423 0038 AC42     		cmp	r4, r5
 5424 003a 45DA     		bge	.L413
 5425              	.LBB71:
1746:src-gen/Main/core/reactor_common.c ****         if (!env->initialized) {
 5426              		.loc 1 1746 9 view .LVU1444
 5427 003c 099B     		ldr	r3, [sp, #36]
 5428 003e 5968     		ldr	r1, [r3, #4]
 5429 0040 3248     		ldr	r0, .L417+4
 5430 0042 FFF7FEFF 		bl	lf_print
 5431              	.LVL551:
1747:src-gen/Main/core/reactor_common.c ****             lf_print_warning("---- Environment %u was never initialized", env->id);
 5432              		.loc 1 1747 9 view .LVU1445
1747:src-gen/Main/core/reactor_common.c ****             lf_print_warning("---- Environment %u was never initialized", env->id);
 5433              		.loc 1 1747 17 is_stmt 0 view .LVU1446
 5434 0046 0998     		ldr	r0, [sp, #36]
 5435 0048 0378     		ldrb	r3, [r0]	@ zero_extendqisi2
1747:src-gen/Main/core/reactor_common.c ****             lf_print_warning("---- Environment %u was never initialized", env->id);
 5436              		.loc 1 1747 12 view .LVU1447
 5437 004a 002B     		cmp	r3, #0
 5438 004c E3D0     		beq	.L414
1752:src-gen/Main/core/reactor_common.c **** 
 5439              		.loc 1 1752 31 is_stmt 1 view .LVU1448
1754:src-gen/Main/core/reactor_common.c **** 
 5440              		.loc 1 1754 9 view .LVU1449
 5441 004e FFF7FEFF 		bl	_lf_start_time_step
 5442              	.LVL552:
1762:src-gen/Main/core/reactor_common.c ****             lf_print_warning("---- There are %zu unprocessed future events on the event queue.", pq
 5443              		.loc 1 1762 9 view .LVU1450
1762:src-gen/Main/core/reactor_common.c ****             lf_print_warning("---- There are %zu unprocessed future events on the event queue.", pq
 5444              		.loc 1 1762 16 is_stmt 0 view .LVU1451
 5445 0052 099B     		ldr	r3, [sp, #36]
 5446 0054 986A     		ldr	r0, [r3, #40]
1762:src-gen/Main/core/reactor_common.c ****             lf_print_warning("---- There are %zu unprocessed future events on the event queue.", pq
 5447              		.loc 1 1762 12 view .LVU1452
 5448 0056 0028     		cmp	r0, #0
 5449 0058 E2D0     		beq	.L405
1762:src-gen/Main/core/reactor_common.c ****             lf_print_warning("---- There are %zu unprocessed future events on the event queue.", pq
 5450              		.loc 1 1762 37 discriminator 1 view .LVU1453
 5451 005a FFF7FEFF 		bl	pqueue_size
 5452              	.LVL553:
1762:src-gen/Main/core/reactor_common.c ****             lf_print_warning("---- There are %zu unprocessed future events on the event queue.", pq
 5453              		.loc 1 1762 34 discriminator 1 view .LVU1454
ARM GAS  /var/folders/2h/lww79zv53b510qlyvytqnvq40000gn/T//ccDbZlJP.s 			page 147


 5454 005e 0028     		cmp	r0, #0
 5455 0060 DED0     		beq	.L405
 5456              	.LBB69:
1763:src-gen/Main/core/reactor_common.c ****             event_t* event = (event_t*)pqueue_peek(env->event_q);
 5457              		.loc 1 1763 13 is_stmt 1 view .LVU1455
 5458 0062 099B     		ldr	r3, [sp, #36]
 5459 0064 986A     		ldr	r0, [r3, #40]
 5460 0066 FFF7FEFF 		bl	pqueue_size
 5461              	.LVL554:
 5462 006a 0146     		mov	r1, r0
 5463 006c 2848     		ldr	r0, .L417+8
 5464 006e FFF7FEFF 		bl	lf_print_warning
 5465              	.LVL555:
1764:src-gen/Main/core/reactor_common.c ****             interval_t event_time = event->time - start_time;
 5466              		.loc 1 1764 13 view .LVU1456
1764:src-gen/Main/core/reactor_common.c ****             interval_t event_time = event->time - start_time;
 5467              		.loc 1 1764 40 is_stmt 0 view .LVU1457
 5468 0072 099B     		ldr	r3, [sp, #36]
 5469 0074 986A     		ldr	r0, [r3, #40]
 5470 0076 FFF7FEFF 		bl	pqueue_peek
 5471              	.LVL556:
1765:src-gen/Main/core/reactor_common.c ****             lf_print_warning("---- The first future event has timestamp " PRINTF_TIME " after start
 5472              		.loc 1 1765 13 is_stmt 1 view .LVU1458
1765:src-gen/Main/core/reactor_common.c ****             lf_print_warning("---- The first future event has timestamp " PRINTF_TIME " after start
 5473              		.loc 1 1765 42 is_stmt 0 view .LVU1459
 5474 007a 0268     		ldr	r2, [r0]
 5475 007c 4668     		ldr	r6, [r0, #4]
1765:src-gen/Main/core/reactor_common.c ****             lf_print_warning("---- The first future event has timestamp " PRINTF_TIME " after start
 5476              		.loc 1 1765 49 view .LVU1460
 5477 007e 2548     		ldr	r0, .L417+12
 5478              	.LVL557:
1765:src-gen/Main/core/reactor_common.c ****             lf_print_warning("---- The first future event has timestamp " PRINTF_TIME " after start
 5479              		.loc 1 1765 49 view .LVU1461
 5480 0080 0168     		ldr	r1, [r0]
 5481 0082 4368     		ldr	r3, [r0, #4]
1765:src-gen/Main/core/reactor_common.c ****             lf_print_warning("---- The first future event has timestamp " PRINTF_TIME " after start
 5482              		.loc 1 1765 24 view .LVU1462
 5483 0084 521A     		subs	r2, r2, r1
 5484              	.LVL558:
1766:src-gen/Main/core/reactor_common.c ****         }
 5485              		.loc 1 1766 13 is_stmt 1 view .LVU1463
 5486 0086 66EB0303 		sbc	r3, r6, r3
 5487              	.LVL559:
1766:src-gen/Main/core/reactor_common.c ****         }
 5488              		.loc 1 1766 13 is_stmt 0 view .LVU1464
 5489 008a 2348     		ldr	r0, .L417+16
 5490 008c FFF7FEFF 		bl	lf_print_warning
 5491              	.LVL560:
1766:src-gen/Main/core/reactor_common.c ****         }
 5492              		.loc 1 1766 13 view .LVU1465
 5493 0090 C6E7     		b	.L405
 5494              	.LVL561:
 5495              	.L412:
1766:src-gen/Main/core/reactor_common.c ****         }
 5496              		.loc 1 1766 13 view .LVU1466
 5497              	.LBE69:
 5498              	.LBB70:
ARM GAS  /var/folders/2h/lww79zv53b510qlyvytqnvq40000gn/T//ccDbZlJP.s 			page 148


1772:src-gen/Main/core/reactor_common.c ****             lf_comma_separated_time(time_buffer, elapsed_time);
 5499              		.loc 1 1772 13 is_stmt 1 view .LVU1467
1773:src-gen/Main/core/reactor_common.c ****             printf("---- Elapsed logical time (in nsec): %s\n", time_buffer);
 5500              		.loc 1 1773 13 view .LVU1468
 5501 0092 0246     		mov	r2, r0
 5502 0094 01A8     		add	r0, sp, #4
 5503              	.LVL562:
1773:src-gen/Main/core/reactor_common.c ****             printf("---- Elapsed logical time (in nsec): %s\n", time_buffer);
 5504              		.loc 1 1773 13 is_stmt 0 view .LVU1469
 5505 0096 FFF7FEFF 		bl	lf_comma_separated_time
 5506              	.LVL563:
1774:src-gen/Main/core/reactor_common.c **** 
 5507              		.loc 1 1774 13 is_stmt 1 view .LVU1470
 5508 009a 01A9     		add	r1, sp, #4
 5509 009c 1F48     		ldr	r0, .L417+20
 5510 009e FFF7FEFF 		bl	printf
 5511              	.LVL564:
1778:src-gen/Main/core/reactor_common.c ****                 lf_comma_separated_time(time_buffer, lf_time_physical_elapsed());
 5512              		.loc 1 1778 13 view .LVU1471
1778:src-gen/Main/core/reactor_common.c ****                 lf_comma_separated_time(time_buffer, lf_time_physical_elapsed());
 5513              		.loc 1 1778 28 is_stmt 0 view .LVU1472
 5514 00a2 1C4B     		ldr	r3, .L417+12
 5515 00a4 1A68     		ldr	r2, [r3]
 5516 00a6 5B68     		ldr	r3, [r3, #4]
1778:src-gen/Main/core/reactor_common.c ****                 lf_comma_separated_time(time_buffer, lf_time_physical_elapsed());
 5517              		.loc 1 1778 16 view .LVU1473
 5518 00a8 012A     		cmp	r2, #1
 5519 00aa 73F10003 		sbcs	r3, r3, #0
 5520 00ae BCDB     		blt	.L406
1779:src-gen/Main/core/reactor_common.c ****                 printf("---- Elapsed physical time (in nsec): %s\n", time_buffer);
 5521              		.loc 1 1779 17 is_stmt 1 view .LVU1474
 5522 00b0 FFF7FEFF 		bl	lf_time_physical_elapsed
 5523              	.LVL565:
 5524 00b4 0246     		mov	r2, r0
 5525 00b6 0B46     		mov	r3, r1
 5526 00b8 01A8     		add	r0, sp, #4
 5527 00ba FFF7FEFF 		bl	lf_comma_separated_time
 5528              	.LVL566:
1780:src-gen/Main/core/reactor_common.c ****             }
 5529              		.loc 1 1780 17 view .LVU1475
 5530 00be 01A9     		add	r1, sp, #4
 5531 00c0 1748     		ldr	r0, .L417+24
 5532 00c2 FFF7FEFF 		bl	printf
 5533              	.LVL567:
 5534 00c6 B0E7     		b	.L406
 5535              	.LVL568:
 5536              	.L413:
1780:src-gen/Main/core/reactor_common.c ****             }
 5537              		.loc 1 1780 17 is_stmt 0 view .LVU1476
 5538              	.LBE70:
 5539              	.LBE71:
 5540              	.LBE67:
1788:src-gen/Main/core/reactor_common.c ****     }
1789:src-gen/Main/core/reactor_common.c ****     _lf_free_all_tokens(); // Must be done before freeing reactors.
 5541              		.loc 1 1789 5 is_stmt 1 view .LVU1477
 5542 00c8 FFF7FEFF 		bl	_lf_free_all_tokens
 5543              	.LVL569:
ARM GAS  /var/folders/2h/lww79zv53b510qlyvytqnvq40000gn/T//ccDbZlJP.s 			page 149


1790:src-gen/Main/core/reactor_common.c ****     // Issue a warning if a memory leak has been detected.
1791:src-gen/Main/core/reactor_common.c ****     if (_lf_count_payload_allocations > 0) {
 5544              		.loc 1 1791 5 view .LVU1478
 5545              		.loc 1 1791 39 is_stmt 0 view .LVU1479
 5546 00cc 154B     		ldr	r3, .L417+28
 5547 00ce 1B68     		ldr	r3, [r3]
 5548              		.loc 1 1791 8 view .LVU1480
 5549 00d0 002B     		cmp	r3, #0
 5550 00d2 07DC     		bgt	.L415
 5551              	.L409:
1792:src-gen/Main/core/reactor_common.c ****         lf_print_warning("Memory allocated for messages has not been freed.");
1793:src-gen/Main/core/reactor_common.c ****         lf_print_warning("Number of unfreed messages: %d.", _lf_count_payload_allocations);
1794:src-gen/Main/core/reactor_common.c ****     }
1795:src-gen/Main/core/reactor_common.c ****     if (_lf_count_token_allocations > 0) {
 5552              		.loc 1 1795 5 is_stmt 1 view .LVU1481
 5553              		.loc 1 1795 37 is_stmt 0 view .LVU1482
 5554 00d4 144B     		ldr	r3, .L417+32
 5555 00d6 1B68     		ldr	r3, [r3]
 5556              		.loc 1 1795 8 view .LVU1483
 5557 00d8 002B     		cmp	r3, #0
 5558 00da 0CDC     		bgt	.L416
 5559              	.L410:
1796:src-gen/Main/core/reactor_common.c ****         lf_print_warning("Memory allocated for tokens has not been freed!");
1797:src-gen/Main/core/reactor_common.c ****         lf_print_warning("Number of unfreed tokens: %d.", _lf_count_token_allocations);
1798:src-gen/Main/core/reactor_common.c ****     }
1799:src-gen/Main/core/reactor_common.c **** #ifdef LF_THREADED
1800:src-gen/Main/core/reactor_common.c ****     for (int i = 0; i < _lf_watchdog_count; i++) {
1801:src-gen/Main/core/reactor_common.c ****         if (_lf_watchdogs[i].base->reactor_mutex != NULL) {
1802:src-gen/Main/core/reactor_common.c ****             free(_lf_watchdogs[i].base->reactor_mutex);
1803:src-gen/Main/core/reactor_common.c ****         }
1804:src-gen/Main/core/reactor_common.c ****     }
1805:src-gen/Main/core/reactor_common.c **** #endif
1806:src-gen/Main/core/reactor_common.c ****     _lf_free_all_reactors();
 5560              		.loc 1 1806 5 is_stmt 1 view .LVU1484
 5561 00dc FFF7FEFF 		bl	_lf_free_all_reactors
 5562              	.LVL570:
1807:src-gen/Main/core/reactor_common.c **** }
 5563              		.loc 1 1807 1 is_stmt 0 view .LVU1485
 5564 00e0 0AB0     		add	sp, sp, #40
 5565              	.LCFI75:
 5566              		.cfi_remember_state
 5567              		.cfi_def_cfa_offset 16
 5568              		@ sp needed
 5569 00e2 70BD     		pop	{r4, r5, r6, pc}
 5570              	.LVL571:
 5571              	.L415:
 5572              	.LCFI76:
 5573              		.cfi_restore_state
1792:src-gen/Main/core/reactor_common.c ****         lf_print_warning("Memory allocated for messages has not been freed.");
 5574              		.loc 1 1792 9 is_stmt 1 view .LVU1486
 5575 00e4 1148     		ldr	r0, .L417+36
 5576 00e6 FFF7FEFF 		bl	lf_print_warning
 5577              	.LVL572:
1793:src-gen/Main/core/reactor_common.c ****     }
 5578              		.loc 1 1793 9 view .LVU1487
 5579 00ea 0E4B     		ldr	r3, .L417+28
 5580 00ec 1968     		ldr	r1, [r3]
ARM GAS  /var/folders/2h/lww79zv53b510qlyvytqnvq40000gn/T//ccDbZlJP.s 			page 150


 5581 00ee 1048     		ldr	r0, .L417+40
 5582 00f0 FFF7FEFF 		bl	lf_print_warning
 5583              	.LVL573:
 5584 00f4 EEE7     		b	.L409
 5585              	.L416:
1796:src-gen/Main/core/reactor_common.c ****         lf_print_warning("Memory allocated for tokens has not been freed!");
 5586              		.loc 1 1796 9 view .LVU1488
 5587 00f6 0F48     		ldr	r0, .L417+44
 5588 00f8 FFF7FEFF 		bl	lf_print_warning
 5589              	.LVL574:
1797:src-gen/Main/core/reactor_common.c ****     }
 5590              		.loc 1 1797 9 view .LVU1489
 5591 00fc 0A4B     		ldr	r3, .L417+32
 5592 00fe 1968     		ldr	r1, [r3]
 5593 0100 0D48     		ldr	r0, .L417+48
 5594 0102 FFF7FEFF 		bl	lf_print_warning
 5595              	.LVL575:
 5596 0106 E9E7     		b	.L410
 5597              	.L418:
 5598              		.align	2
 5599              	.L417:
 5600 0108 20000000 		.word	.LC63
 5601 010c 00000000 		.word	.LC62
 5602 0110 4C000000 		.word	.LC64
 5603 0114 00000000 		.word	start_time
 5604 0118 90000000 		.word	.LC65
 5605 011c D4000000 		.word	.LC66
 5606 0120 00010000 		.word	.LC67
 5607 0124 00000000 		.word	_lf_count_payload_allocations
 5608 0128 00000000 		.word	_lf_count_token_allocations
 5609 012c 2C010000 		.word	.LC68
 5610 0130 60010000 		.word	.LC69
 5611 0134 80010000 		.word	.LC70
 5612 0138 B0010000 		.word	.LC71
 5613              		.cfi_endproc
 5614              	.LFE165:
 5616              		.section	.rodata.__func__.0,"a"
 5617              		.align	2
 5620              	__func__.0:
 5621 0000 73636865 		.ascii	"schedule_output_reactions\000"
 5621      64756C65 
 5621      5F6F7574 
 5621      7075745F 
 5621      72656163 
 5622              		.section	.rodata.__func__.1,"a"
 5623              		.align	2
 5626              	__func__.1:
 5627 0000 5F6C665F 		.ascii	"_lf_invoke_reaction\000"
 5627      696E766F 
 5627      6B655F72 
 5627      65616374 
 5627      696F6E00 
 5628              		.section	.rodata.__func__.2,"a"
 5629              		.align	2
 5632              	__func__.2:
 5633 0000 5F6C665F 		.ascii	"_lf_advance_logical_time\000"
 5633      61647661 
ARM GAS  /var/folders/2h/lww79zv53b510qlyvytqnvq40000gn/T//ccDbZlJP.s 			page 151


 5633      6E63655F 
 5633      6C6F6769 
 5633      63616C5F 
 5634              		.section	.rodata.__func__.3,"a"
 5635              		.align	2
 5638              	__func__.3:
 5639 0000 5F6C665F 		.ascii	"_lf_insert_reactions_for_trigger\000"
 5639      696E7365 
 5639      72745F72 
 5639      65616374 
 5639      696F6E73 
 5640              		.section	.rodata.__func__.4,"a"
 5641              		.align	2
 5644              	__func__.4:
 5645 0000 5F6C665F 		.ascii	"_lf_schedule\000"
 5645      73636865 
 5645      64756C65 
 5645      00
 5646              		.section	.rodata.__func__.5,"a"
 5647              		.align	2
 5650              	__func__.5:
 5651 0000 5F6C665F 		.ascii	"_lf_schedule_at_tag\000"
 5651      73636865 
 5651      64756C65 
 5651      5F61745F 
 5651      74616700 
 5652              		.section	.rodata.__func__.6,"a"
 5653              		.align	2
 5656              	__func__.6:
 5657 0000 5F6C665F 		.ascii	"_lf_recycle_event\000"
 5657      72656379 
 5657      636C655F 
 5657      6576656E 
 5657      7400
 5658              		.section	.rodata.__func__.7,"a"
 5659              		.align	2
 5662              	__func__.7:
 5663 0000 5F6C665F 		.ascii	"_lf_trigger_shutdown_reactions\000"
 5663      74726967 
 5663      6765725F 
 5663      73687574 
 5663      646F776E 
 5664              		.section	.rodata.__func__.8,"a"
 5665              		.align	2
 5668              	__func__.8:
 5669 0000 5F6C665F 		.ascii	"_lf_trigger_startup_reactions\000"
 5669      74726967 
 5669      6765725F 
 5669      73746172 
 5669      7475705F 
 5670              		.section	.rodata.__func__.9,"a"
 5671              		.align	2
 5674              	__func__.9:
 5675 0000 5F6C665F 		.ascii	"_lf_initialize_timers\000"
 5675      696E6974 
 5675      69616C69 
 5675      7A655F74 
ARM GAS  /var/folders/2h/lww79zv53b510qlyvytqnvq40000gn/T//ccDbZlJP.s 			page 152


 5675      696D6572 
 5676              		.section	.rodata.__func__.10,"a"
 5677              		.align	2
 5680              	__func__.10:
 5681 0000 5F6C665F 		.ascii	"_lf_get_new_event\000"
 5681      6765745F 
 5681      6E65775F 
 5681      6576656E 
 5681      7400
 5682              		.section	.rodata.__func__.11,"a"
 5683              		.align	2
 5686              	__func__.11:
 5687 0000 5F6C665F 		.ascii	"_lf_initialize_timer\000"
 5687      696E6974 
 5687      69616C69 
 5687      7A655F74 
 5687      696D6572 
 5688              		.section	.rodata.__func__.12,"a"
 5689              		.align	2
 5692              	__func__.12:
 5693 0000 5F6C665F 		.ascii	"_lf_pop_events\000"
 5693      706F705F 
 5693      6576656E 
 5693      747300
 5694              		.section	.rodata.__func__.13,"a"
 5695              		.align	2
 5698              	__func__.13:
 5699 0000 5F6C665F 		.ascii	"_lf_is_tag_after_stop_tag\000"
 5699      69735F74 
 5699      61675F61 
 5699      66746572 
 5699      5F73746F 
 5700              		.section	.rodata.__func__.14,"a"
 5701              		.align	2
 5704              	__func__.14:
 5705 0000 5F6C665F 		.ascii	"_lf_start_time_step\000"
 5705      73746172 
 5705      745F7469 
 5705      6D655F73 
 5705      74657000 
 5706              		.section	.rodata.__func__.15,"a"
 5707              		.align	2
 5710              	__func__.15:
 5711 0000 5F6C665F 		.ascii	"_lf_set_stop_tag\000"
 5711      7365745F 
 5711      73746F70 
 5711      5F746167 
 5711      00
 5712              		.global	default_argv
 5713              		.section	.bss.default_argv,"aw",%nobits
 5714              		.align	2
 5717              	default_argv:
 5718 0000 00000000 		.space	4
 5719              		.global	default_argc
 5720              		.section	.bss.default_argc,"aw",%nobits
 5721              		.align	2
 5724              	default_argc:
ARM GAS  /var/folders/2h/lww79zv53b510qlyvytqnvq40000gn/T//ccDbZlJP.s 			page 153


 5725 0000 00000000 		.space	4
 5726              		.global	_lf_reactors_to_free
 5727              		.section	.bss._lf_reactors_to_free,"aw",%nobits
 5728              		.align	2
 5731              	_lf_reactors_to_free:
 5732 0000 00000000 		.space	4
 5733              		.global	_lf_fed_STA_offset
 5734              		.section	.bss._lf_fed_STA_offset,"aw",%nobits
 5735              		.align	3
 5738              	_lf_fed_STA_offset:
 5739 0000 00000000 		.space	8
 5739      00000000 
 5740              		.global	keepalive_specified
 5741              		.section	.bss.keepalive_specified,"aw",%nobits
 5744              	keepalive_specified:
 5745 0000 00       		.space	1
 5746              		.global	_lf_execution_started
 5747              		.section	.bss._lf_execution_started,"aw",%nobits
 5750              	_lf_execution_started:
 5751 0000 00       		.space	1
 5752              		.global	duration
 5753              		.section	.data.duration,"aw"
 5754              		.align	3
 5757              	duration:
 5758 0000 FFFFFFFF 		.word	-1
 5759 0004 FFFFFFFF 		.word	-1
 5760              		.global	_lf_number_of_workers
 5761              		.section	.bss._lf_number_of_workers,"aw",%nobits
 5762              		.align	2
 5765              	_lf_number_of_workers:
 5766 0000 00000000 		.space	4
 5767              		.global	fast
 5768              		.section	.bss.fast,"aw",%nobits
 5771              	fast:
 5772 0000 00       		.space	1
 5773              		.text
 5774              	.Letext0:
 5775              		.file 2 "/Applications/ArmGNUToolchain/12.3.rel1/arm-none-eabi/arm-none-eabi/include/machine/_defa
 5776              		.file 3 "/Applications/ArmGNUToolchain/12.3.rel1/arm-none-eabi/lib/gcc/arm-none-eabi/12.3.1/includ
 5777              		.file 4 "/Applications/ArmGNUToolchain/12.3.rel1/arm-none-eabi/arm-none-eabi/include/sys/_stdint.h
 5778              		.file 5 "src-gen/Main/include/core/tag.h"
 5779              		.file 6 "src-gen/Main/include/core/platform.h"
 5780              		.file 7 "src-gen/Main/include/core/environment.h"
 5781              		.file 8 "src-gen/Main/include/core/utils/pqueue.h"
 5782              		.file 9 "src-gen/Main/include/core/lf_token.h"
 5783              		.file 10 "src-gen/Main/include/core/lf_types.h"
 5784              		.file 11 "src-gen/Main/include/core/utils/vector.h"
 5785              		.file 12 "src-gen/Main/include/core/reactor_common.h"
 5786              		.file 13 "src-gen/Main/include/core/utils/util.h"
 5787              		.file 14 "src-gen/Main/include/core/reactor.h"
 5788              		.file 15 "/Applications/ArmGNUToolchain/12.3.rel1/arm-none-eabi/arm-none-eabi/include/stdlib.h"
 5789              		.file 16 "/Applications/ArmGNUToolchain/12.3.rel1/arm-none-eabi/arm-none-eabi/include/string.h"
 5790              		.file 17 "/Applications/ArmGNUToolchain/12.3.rel1/arm-none-eabi/arm-none-eabi/include/stdio.h"
 5791              		.file 18 "/Applications/ArmGNUToolchain/12.3.rel1/arm-none-eabi/arm-none-eabi/include/assert.h"
 5792              		.file 19 "<built-in>"
 5793              		.file 20 "src-gen/Main/include/core/modal_models/modes.h"
ARM GAS  /var/folders/2h/lww79zv53b510qlyvytqnvq40000gn/T//ccDbZlJP.s 			page 154


DEFINED SYMBOLS
                            *ABS*:00000000 reactor_common.c
/var/folders/2h/lww79zv53b510qlyvytqnvq40000gn/T//ccDbZlJP.s:21     .rodata._lf_get_new_event.str1.4:00000000 $d
/var/folders/2h/lww79zv53b510qlyvytqnvq40000gn/T//ccDbZlJP.s:31     .text._lf_get_new_event:00000000 $t
/var/folders/2h/lww79zv53b510qlyvytqnvq40000gn/T//ccDbZlJP.s:36     .text._lf_get_new_event:00000000 _lf_get_new_event
/var/folders/2h/lww79zv53b510qlyvytqnvq40000gn/T//ccDbZlJP.s:104    .text._lf_get_new_event:00000038 $d
/var/folders/2h/lww79zv53b510qlyvytqnvq40000gn/T//ccDbZlJP.s:5680   .rodata.__func__.10:00000000 __func__.10
/var/folders/2h/lww79zv53b510qlyvytqnvq40000gn/T//ccDbZlJP.s:112    .text._lf_replace_token:00000000 $t
/var/folders/2h/lww79zv53b510qlyvytqnvq40000gn/T//ccDbZlJP.s:117    .text._lf_replace_token:00000000 _lf_replace_token
/var/folders/2h/lww79zv53b510qlyvytqnvq40000gn/T//ccDbZlJP.s:155    .text._lf_allocate:00000000 $t
/var/folders/2h/lww79zv53b510qlyvytqnvq40000gn/T//ccDbZlJP.s:161    .text._lf_allocate:00000000 _lf_allocate
/var/folders/2h/lww79zv53b510qlyvytqnvq40000gn/T//ccDbZlJP.s:245    .text._lf_allocate:00000038 $d
/var/folders/2h/lww79zv53b510qlyvytqnvq40000gn/T//ccDbZlJP.s:251    .text._lf_new_reactor:00000000 $t
/var/folders/2h/lww79zv53b510qlyvytqnvq40000gn/T//ccDbZlJP.s:257    .text._lf_new_reactor:00000000 _lf_new_reactor
/var/folders/2h/lww79zv53b510qlyvytqnvq40000gn/T//ccDbZlJP.s:284    .text._lf_new_reactor:00000010 $d
/var/folders/2h/lww79zv53b510qlyvytqnvq40000gn/T//ccDbZlJP.s:5731   .bss._lf_reactors_to_free:00000000 _lf_reactors_to_free
/var/folders/2h/lww79zv53b510qlyvytqnvq40000gn/T//ccDbZlJP.s:289    .text._lf_free:00000000 $t
/var/folders/2h/lww79zv53b510qlyvytqnvq40000gn/T//ccDbZlJP.s:295    .text._lf_free:00000000 _lf_free
/var/folders/2h/lww79zv53b510qlyvytqnvq40000gn/T//ccDbZlJP.s:372    .text._lf_free_reactor:00000000 $t
/var/folders/2h/lww79zv53b510qlyvytqnvq40000gn/T//ccDbZlJP.s:378    .text._lf_free_reactor:00000000 _lf_free_reactor
/var/folders/2h/lww79zv53b510qlyvytqnvq40000gn/T//ccDbZlJP.s:406    .text._lf_free_all_reactors:00000000 $t
/var/folders/2h/lww79zv53b510qlyvytqnvq40000gn/T//ccDbZlJP.s:412    .text._lf_free_all_reactors:00000000 _lf_free_all_reactors
/var/folders/2h/lww79zv53b510qlyvytqnvq40000gn/T//ccDbZlJP.s:469    .text._lf_free_all_reactors:00000024 $d
/var/folders/2h/lww79zv53b510qlyvytqnvq40000gn/T//ccDbZlJP.s:474    .text._lf_set_stop_tag:00000000 $t
/var/folders/2h/lww79zv53b510qlyvytqnvq40000gn/T//ccDbZlJP.s:480    .text._lf_set_stop_tag:00000000 _lf_set_stop_tag
/var/folders/2h/lww79zv53b510qlyvytqnvq40000gn/T//ccDbZlJP.s:562    .text._lf_set_stop_tag:00000048 $d
/var/folders/2h/lww79zv53b510qlyvytqnvq40000gn/T//ccDbZlJP.s:5710   .rodata.__func__.15:00000000 __func__.15
/var/folders/2h/lww79zv53b510qlyvytqnvq40000gn/T//ccDbZlJP.s:569    .text.lf_get_stp_offset:00000000 $t
/var/folders/2h/lww79zv53b510qlyvytqnvq40000gn/T//ccDbZlJP.s:575    .text.lf_get_stp_offset:00000000 lf_get_stp_offset
/var/folders/2h/lww79zv53b510qlyvytqnvq40000gn/T//ccDbZlJP.s:590    .text.lf_get_stp_offset:00000008 $d
/var/folders/2h/lww79zv53b510qlyvytqnvq40000gn/T//ccDbZlJP.s:5738   .bss._lf_fed_STA_offset:00000000 _lf_fed_STA_offset
/var/folders/2h/lww79zv53b510qlyvytqnvq40000gn/T//ccDbZlJP.s:595    .text.lf_set_stp_offset:00000000 $t
/var/folders/2h/lww79zv53b510qlyvytqnvq40000gn/T//ccDbZlJP.s:601    .text.lf_set_stp_offset:00000000 lf_set_stp_offset
/var/folders/2h/lww79zv53b510qlyvytqnvq40000gn/T//ccDbZlJP.s:625    .text.lf_set_stp_offset:00000010 $d
/var/folders/2h/lww79zv53b510qlyvytqnvq40000gn/T//ccDbZlJP.s:630    .text._lf_start_time_step:00000000 $t
/var/folders/2h/lww79zv53b510qlyvytqnvq40000gn/T//ccDbZlJP.s:636    .text._lf_start_time_step:00000000 _lf_start_time_step
/var/folders/2h/lww79zv53b510qlyvytqnvq40000gn/T//ccDbZlJP.s:784    .text._lf_start_time_step:00000070 $d
/var/folders/2h/lww79zv53b510qlyvytqnvq40000gn/T//ccDbZlJP.s:5704   .rodata.__func__.14:00000000 __func__.14
/var/folders/2h/lww79zv53b510qlyvytqnvq40000gn/T//ccDbZlJP.s:791    .text._lf_is_tag_after_stop_tag:00000000 $t
/var/folders/2h/lww79zv53b510qlyvytqnvq40000gn/T//ccDbZlJP.s:797    .text._lf_is_tag_after_stop_tag:00000000 _lf_is_tag_after_stop_tag
/var/folders/2h/lww79zv53b510qlyvytqnvq40000gn/T//ccDbZlJP.s:865    .text._lf_is_tag_after_stop_tag:00000040 $d
/var/folders/2h/lww79zv53b510qlyvytqnvq40000gn/T//ccDbZlJP.s:5698   .rodata.__func__.13:00000000 __func__.13
/var/folders/2h/lww79zv53b510qlyvytqnvq40000gn/T//ccDbZlJP.s:872    .text._lf_initialize_timer:00000000 $t
/var/folders/2h/lww79zv53b510qlyvytqnvq40000gn/T//ccDbZlJP.s:878    .text._lf_initialize_timer:00000000 _lf_initialize_timer
/var/folders/2h/lww79zv53b510qlyvytqnvq40000gn/T//ccDbZlJP.s:998    .text._lf_initialize_timer:00000074 $d
/var/folders/2h/lww79zv53b510qlyvytqnvq40000gn/T//ccDbZlJP.s:5686   .rodata.__func__.11:00000000 __func__.11
/var/folders/2h/lww79zv53b510qlyvytqnvq40000gn/T//ccDbZlJP.s:1005   .text._lf_initialize_timers:00000000 $t
/var/folders/2h/lww79zv53b510qlyvytqnvq40000gn/T//ccDbZlJP.s:1011   .text._lf_initialize_timers:00000000 _lf_initialize_timers
/var/folders/2h/lww79zv53b510qlyvytqnvq40000gn/T//ccDbZlJP.s:1079   .text._lf_initialize_timers:00000034 $d
/var/folders/2h/lww79zv53b510qlyvytqnvq40000gn/T//ccDbZlJP.s:5674   .rodata.__func__.9:00000000 __func__.9
/var/folders/2h/lww79zv53b510qlyvytqnvq40000gn/T//ccDbZlJP.s:1086   .text._lf_trigger_startup_reactions:00000000 $t
/var/folders/2h/lww79zv53b510qlyvytqnvq40000gn/T//ccDbZlJP.s:1092   .text._lf_trigger_startup_reactions:00000000 _lf_trigger_startup_reactions
/var/folders/2h/lww79zv53b510qlyvytqnvq40000gn/T//ccDbZlJP.s:1167   .text._lf_trigger_startup_reactions:00000040 $d
/var/folders/2h/lww79zv53b510qlyvytqnvq40000gn/T//ccDbZlJP.s:5668   .rodata.__func__.8:00000000 __func__.8
/var/folders/2h/lww79zv53b510qlyvytqnvq40000gn/T//ccDbZlJP.s:1174   .text._lf_trigger_shutdown_reactions:00000000 $t
/var/folders/2h/lww79zv53b510qlyvytqnvq40000gn/T//ccDbZlJP.s:1180   .text._lf_trigger_shutdown_reactions:00000000 _lf_trigger_shutdown_reactions
/var/folders/2h/lww79zv53b510qlyvytqnvq40000gn/T//ccDbZlJP.s:1255   .text._lf_trigger_shutdown_reactions:00000040 $d
ARM GAS  /var/folders/2h/lww79zv53b510qlyvytqnvq40000gn/T//ccDbZlJP.s 			page 155


/var/folders/2h/lww79zv53b510qlyvytqnvq40000gn/T//ccDbZlJP.s:5662   .rodata.__func__.7:00000000 __func__.7
/var/folders/2h/lww79zv53b510qlyvytqnvq40000gn/T//ccDbZlJP.s:1262   .text._lf_recycle_event:00000000 $t
/var/folders/2h/lww79zv53b510qlyvytqnvq40000gn/T//ccDbZlJP.s:1268   .text._lf_recycle_event:00000000 _lf_recycle_event
/var/folders/2h/lww79zv53b510qlyvytqnvq40000gn/T//ccDbZlJP.s:1327   .text._lf_recycle_event:00000030 $d
/var/folders/2h/lww79zv53b510qlyvytqnvq40000gn/T//ccDbZlJP.s:5656   .rodata.__func__.6:00000000 __func__.6
/var/folders/2h/lww79zv53b510qlyvytqnvq40000gn/T//ccDbZlJP.s:1336   .text._lf_create_dummy_events:00000000 $t
/var/folders/2h/lww79zv53b510qlyvytqnvq40000gn/T//ccDbZlJP.s:1342   .text._lf_create_dummy_events:00000000 _lf_create_dummy_events
/var/folders/2h/lww79zv53b510qlyvytqnvq40000gn/T//ccDbZlJP.s:1444   .rodata._lf_schedule_at_tag.str1.4:00000000 $d
/var/folders/2h/lww79zv53b510qlyvytqnvq40000gn/T//ccDbZlJP.s:1456   .text._lf_schedule_at_tag:00000000 $t
/var/folders/2h/lww79zv53b510qlyvytqnvq40000gn/T//ccDbZlJP.s:1462   .text._lf_schedule_at_tag:00000000 _lf_schedule_at_tag
/var/folders/2h/lww79zv53b510qlyvytqnvq40000gn/T//ccDbZlJP.s:2057   .text._lf_schedule_at_tag:0000025c $d
/var/folders/2h/lww79zv53b510qlyvytqnvq40000gn/T//ccDbZlJP.s:5650   .rodata.__func__.5:00000000 __func__.5
/var/folders/2h/lww79zv53b510qlyvytqnvq40000gn/T//ccDbZlJP.s:2067   .rodata._lf_schedule.str1.4:00000000 $d
/var/folders/2h/lww79zv53b510qlyvytqnvq40000gn/T//ccDbZlJP.s:2080   .text._lf_schedule:00000000 $t
/var/folders/2h/lww79zv53b510qlyvytqnvq40000gn/T//ccDbZlJP.s:2086   .text._lf_schedule:00000000 _lf_schedule
/var/folders/2h/lww79zv53b510qlyvytqnvq40000gn/T//ccDbZlJP.s:2739   .text._lf_schedule:000002e8 $d
/var/folders/2h/lww79zv53b510qlyvytqnvq40000gn/T//ccDbZlJP.s:5644   .rodata.__func__.4:00000000 __func__.4
/var/folders/2h/lww79zv53b510qlyvytqnvq40000gn/T//ccDbZlJP.s:2749   .text._lf_pop_events:00000000 $t
/var/folders/2h/lww79zv53b510qlyvytqnvq40000gn/T//ccDbZlJP.s:2755   .text._lf_pop_events:00000000 _lf_pop_events
/var/folders/2h/lww79zv53b510qlyvytqnvq40000gn/T//ccDbZlJP.s:3018   .text._lf_pop_events:000000f8 $d
/var/folders/2h/lww79zv53b510qlyvytqnvq40000gn/T//ccDbZlJP.s:5692   .rodata.__func__.12:00000000 __func__.12
/var/folders/2h/lww79zv53b510qlyvytqnvq40000gn/T//ccDbZlJP.s:3025   .rodata._lf_insert_reactions_for_trigger.str1.4:00000000 $d
/var/folders/2h/lww79zv53b510qlyvytqnvq40000gn/T//ccDbZlJP.s:3034   .text._lf_insert_reactions_for_trigger:00000000 $t
/var/folders/2h/lww79zv53b510qlyvytqnvq40000gn/T//ccDbZlJP.s:3040   .text._lf_insert_reactions_for_trigger:00000000 _lf_insert_reactions_for_trigger
/var/folders/2h/lww79zv53b510qlyvytqnvq40000gn/T//ccDbZlJP.s:3191   .text._lf_insert_reactions_for_trigger:0000007c $d
/var/folders/2h/lww79zv53b510qlyvytqnvq40000gn/T//ccDbZlJP.s:5638   .rodata.__func__.3:00000000 __func__.3
/var/folders/2h/lww79zv53b510qlyvytqnvq40000gn/T//ccDbZlJP.s:3200   .rodata._lf_schedule_token.str1.4:00000000 $d
/var/folders/2h/lww79zv53b510qlyvytqnvq40000gn/T//ccDbZlJP.s:3207   .text._lf_schedule_token:00000000 $t
/var/folders/2h/lww79zv53b510qlyvytqnvq40000gn/T//ccDbZlJP.s:3213   .text._lf_schedule_token:00000000 _lf_schedule_token
/var/folders/2h/lww79zv53b510qlyvytqnvq40000gn/T//ccDbZlJP.s:3306   .text._lf_schedule_token:0000004c $d
/var/folders/2h/lww79zv53b510qlyvytqnvq40000gn/T//ccDbZlJP.s:3312   .rodata._lf_schedule_copy.str1.4:00000000 $d
/var/folders/2h/lww79zv53b510qlyvytqnvq40000gn/T//ccDbZlJP.s:3316   .text._lf_schedule_copy:00000000 $t
/var/folders/2h/lww79zv53b510qlyvytqnvq40000gn/T//ccDbZlJP.s:3322   .text._lf_schedule_copy:00000000 _lf_schedule_copy
/var/folders/2h/lww79zv53b510qlyvytqnvq40000gn/T//ccDbZlJP.s:3477   .text._lf_schedule_copy:00000094 $d
/var/folders/2h/lww79zv53b510qlyvytqnvq40000gn/T//ccDbZlJP.s:3484   .text._lf_schedule_value:00000000 $t
/var/folders/2h/lww79zv53b510qlyvytqnvq40000gn/T//ccDbZlJP.s:3490   .text._lf_schedule_value:00000000 _lf_schedule_value
/var/folders/2h/lww79zv53b510qlyvytqnvq40000gn/T//ccDbZlJP.s:3594   .text._lf_schedule_value:00000054 $d
/var/folders/2h/lww79zv53b510qlyvytqnvq40000gn/T//ccDbZlJP.s:3600   .rodata._lf_advance_logical_time.str1.4:00000000 $d
/var/folders/2h/lww79zv53b510qlyvytqnvq40000gn/T//ccDbZlJP.s:3610   .text._lf_advance_logical_time:00000000 $t
/var/folders/2h/lww79zv53b510qlyvytqnvq40000gn/T//ccDbZlJP.s:3616   .text._lf_advance_logical_time:00000000 _lf_advance_logical_time
/var/folders/2h/lww79zv53b510qlyvytqnvq40000gn/T//ccDbZlJP.s:3741   .text._lf_advance_logical_time:00000080 $d
/var/folders/2h/lww79zv53b510qlyvytqnvq40000gn/T//ccDbZlJP.s:5632   .rodata.__func__.2:00000000 __func__.2
/var/folders/2h/lww79zv53b510qlyvytqnvq40000gn/T//ccDbZlJP.s:3751   .rodata._lf_schedule_int.str1.4:00000000 $d
/var/folders/2h/lww79zv53b510qlyvytqnvq40000gn/T//ccDbZlJP.s:3755   .text._lf_schedule_int:00000000 $t
/var/folders/2h/lww79zv53b510qlyvytqnvq40000gn/T//ccDbZlJP.s:3761   .text._lf_schedule_int:00000000 _lf_schedule_int
/var/folders/2h/lww79zv53b510qlyvytqnvq40000gn/T//ccDbZlJP.s:3838   .text._lf_schedule_int:0000003c $d
/var/folders/2h/lww79zv53b510qlyvytqnvq40000gn/T//ccDbZlJP.s:3843   .text._lf_invoke_reaction:00000000 $t
/var/folders/2h/lww79zv53b510qlyvytqnvq40000gn/T//ccDbZlJP.s:3849   .text._lf_invoke_reaction:00000000 _lf_invoke_reaction
/var/folders/2h/lww79zv53b510qlyvytqnvq40000gn/T//ccDbZlJP.s:3907   .text._lf_invoke_reaction:00000028 $d
/var/folders/2h/lww79zv53b510qlyvytqnvq40000gn/T//ccDbZlJP.s:5626   .rodata.__func__.1:00000000 __func__.1
/var/folders/2h/lww79zv53b510qlyvytqnvq40000gn/T//ccDbZlJP.s:3914   .text.schedule_output_reactions:00000000 $t
/var/folders/2h/lww79zv53b510qlyvytqnvq40000gn/T//ccDbZlJP.s:3920   .text.schedule_output_reactions:00000000 schedule_output_reactions
/var/folders/2h/lww79zv53b510qlyvytqnvq40000gn/T//ccDbZlJP.s:4263   .text.schedule_output_reactions:00000124 $d
/var/folders/2h/lww79zv53b510qlyvytqnvq40000gn/T//ccDbZlJP.s:5620   .rodata.__func__.0:00000000 __func__.0
/var/folders/2h/lww79zv53b510qlyvytqnvq40000gn/T//ccDbZlJP.s:4270   .rodata.usage.str1.4:00000000 $d
/var/folders/2h/lww79zv53b510qlyvytqnvq40000gn/T//ccDbZlJP.s:4322   .text.usage:00000000 $t
/var/folders/2h/lww79zv53b510qlyvytqnvq40000gn/T//ccDbZlJP.s:4328   .text.usage:00000000 usage
ARM GAS  /var/folders/2h/lww79zv53b510qlyvytqnvq40000gn/T//ccDbZlJP.s 			page 156


/var/folders/2h/lww79zv53b510qlyvytqnvq40000gn/T//ccDbZlJP.s:4432   .text.usage:00000070 $d
/var/folders/2h/lww79zv53b510qlyvytqnvq40000gn/T//ccDbZlJP.s:4451   .rodata.process_args.str1.4:00000000 $d
/var/folders/2h/lww79zv53b510qlyvytqnvq40000gn/T//ccDbZlJP.s:4542   .text.process_args:00000000 $t
/var/folders/2h/lww79zv53b510qlyvytqnvq40000gn/T//ccDbZlJP.s:4548   .text.process_args:00000000 process_args
/var/folders/2h/lww79zv53b510qlyvytqnvq40000gn/T//ccDbZlJP.s:5118   .text.process_args:000002d8 $d
/var/folders/2h/lww79zv53b510qlyvytqnvq40000gn/T//ccDbZlJP.s:5771   .bss.fast:00000000 fast
/var/folders/2h/lww79zv53b510qlyvytqnvq40000gn/T//ccDbZlJP.s:5757   .data.duration:00000000 duration
/var/folders/2h/lww79zv53b510qlyvytqnvq40000gn/T//ccDbZlJP.s:5744   .bss.keepalive_specified:00000000 keepalive_specified
/var/folders/2h/lww79zv53b510qlyvytqnvq40000gn/T//ccDbZlJP.s:5765   .bss._lf_number_of_workers:00000000 _lf_number_of_workers
/var/folders/2h/lww79zv53b510qlyvytqnvq40000gn/T//ccDbZlJP.s:5158   .text.process_args:00000368 $t
/var/folders/2h/lww79zv53b510qlyvytqnvq40000gn/T//ccDbZlJP.s:5228   .text.process_args:000003b0 $d
/var/folders/2h/lww79zv53b510qlyvytqnvq40000gn/T//ccDbZlJP.s:5236   .text.initialize_global:00000000 $t
/var/folders/2h/lww79zv53b510qlyvytqnvq40000gn/T//ccDbZlJP.s:5242   .text.initialize_global:00000000 initialize_global
/var/folders/2h/lww79zv53b510qlyvytqnvq40000gn/T//ccDbZlJP.s:5301   .text.initialize_global:00000028 $d
/var/folders/2h/lww79zv53b510qlyvytqnvq40000gn/T//ccDbZlJP.s:5307   .rodata.termination.str1.4:00000000 $d
/var/folders/2h/lww79zv53b510qlyvytqnvq40000gn/T//ccDbZlJP.s:5340   .text.termination:00000000 $t
/var/folders/2h/lww79zv53b510qlyvytqnvq40000gn/T//ccDbZlJP.s:5346   .text.termination:00000000 termination
/var/folders/2h/lww79zv53b510qlyvytqnvq40000gn/T//ccDbZlJP.s:5600   .text.termination:00000108 $d
/var/folders/2h/lww79zv53b510qlyvytqnvq40000gn/T//ccDbZlJP.s:5617   .rodata.__func__.0:00000000 $d
/var/folders/2h/lww79zv53b510qlyvytqnvq40000gn/T//ccDbZlJP.s:5623   .rodata.__func__.1:00000000 $d
/var/folders/2h/lww79zv53b510qlyvytqnvq40000gn/T//ccDbZlJP.s:5629   .rodata.__func__.2:00000000 $d
/var/folders/2h/lww79zv53b510qlyvytqnvq40000gn/T//ccDbZlJP.s:5635   .rodata.__func__.3:00000000 $d
/var/folders/2h/lww79zv53b510qlyvytqnvq40000gn/T//ccDbZlJP.s:5641   .rodata.__func__.4:00000000 $d
/var/folders/2h/lww79zv53b510qlyvytqnvq40000gn/T//ccDbZlJP.s:5647   .rodata.__func__.5:00000000 $d
/var/folders/2h/lww79zv53b510qlyvytqnvq40000gn/T//ccDbZlJP.s:5653   .rodata.__func__.6:00000000 $d
/var/folders/2h/lww79zv53b510qlyvytqnvq40000gn/T//ccDbZlJP.s:5659   .rodata.__func__.7:00000000 $d
/var/folders/2h/lww79zv53b510qlyvytqnvq40000gn/T//ccDbZlJP.s:5665   .rodata.__func__.8:00000000 $d
/var/folders/2h/lww79zv53b510qlyvytqnvq40000gn/T//ccDbZlJP.s:5671   .rodata.__func__.9:00000000 $d
/var/folders/2h/lww79zv53b510qlyvytqnvq40000gn/T//ccDbZlJP.s:5677   .rodata.__func__.10:00000000 $d
/var/folders/2h/lww79zv53b510qlyvytqnvq40000gn/T//ccDbZlJP.s:5683   .rodata.__func__.11:00000000 $d
/var/folders/2h/lww79zv53b510qlyvytqnvq40000gn/T//ccDbZlJP.s:5689   .rodata.__func__.12:00000000 $d
/var/folders/2h/lww79zv53b510qlyvytqnvq40000gn/T//ccDbZlJP.s:5695   .rodata.__func__.13:00000000 $d
/var/folders/2h/lww79zv53b510qlyvytqnvq40000gn/T//ccDbZlJP.s:5701   .rodata.__func__.14:00000000 $d
/var/folders/2h/lww79zv53b510qlyvytqnvq40000gn/T//ccDbZlJP.s:5707   .rodata.__func__.15:00000000 $d
/var/folders/2h/lww79zv53b510qlyvytqnvq40000gn/T//ccDbZlJP.s:5717   .bss.default_argv:00000000 default_argv
/var/folders/2h/lww79zv53b510qlyvytqnvq40000gn/T//ccDbZlJP.s:5714   .bss.default_argv:00000000 $d
/var/folders/2h/lww79zv53b510qlyvytqnvq40000gn/T//ccDbZlJP.s:5724   .bss.default_argc:00000000 default_argc
/var/folders/2h/lww79zv53b510qlyvytqnvq40000gn/T//ccDbZlJP.s:5721   .bss.default_argc:00000000 $d
/var/folders/2h/lww79zv53b510qlyvytqnvq40000gn/T//ccDbZlJP.s:5728   .bss._lf_reactors_to_free:00000000 $d
/var/folders/2h/lww79zv53b510qlyvytqnvq40000gn/T//ccDbZlJP.s:5735   .bss._lf_fed_STA_offset:00000000 $d
/var/folders/2h/lww79zv53b510qlyvytqnvq40000gn/T//ccDbZlJP.s:5745   .bss.keepalive_specified:00000000 $d
/var/folders/2h/lww79zv53b510qlyvytqnvq40000gn/T//ccDbZlJP.s:5750   .bss._lf_execution_started:00000000 _lf_execution_started
/var/folders/2h/lww79zv53b510qlyvytqnvq40000gn/T//ccDbZlJP.s:5751   .bss._lf_execution_started:00000000 $d
/var/folders/2h/lww79zv53b510qlyvytqnvq40000gn/T//ccDbZlJP.s:5754   .data.duration:00000000 $d
/var/folders/2h/lww79zv53b510qlyvytqnvq40000gn/T//ccDbZlJP.s:5762   .bss._lf_number_of_workers:00000000 $d
/var/folders/2h/lww79zv53b510qlyvytqnvq40000gn/T//ccDbZlJP.s:5772   .bss.fast:00000000 $d

UNDEFINED SYMBOLS
pqueue_pop
__assert_func
calloc
lf_print_error_and_exit
_lf_done_using
free
lf_tag_compare
_lf_free_token_copies
vector_size
ARM GAS  /var/folders/2h/lww79zv53b510qlyvytqnvq40000gn/T//ccDbZlJP.s 			page 157


vector_at
_lf_trigger_reaction
lf_time_logical
pqueue_insert
pqueue_find_equal_same_priority
lf_print_warning
lf_print_error
lf_time_physical
pqueue_peek
_lf_replace_template_token
lf_critical_section_enter
lf_notify_of_event
lf_critical_section_exit
_lf_initialize_token
memcpy
_lf_initialize_token_with_value
start_time
malloc
puts
printf
strcmp
atoll
strncmp
atoi
_lf_get_environments
_lf_initialize_trigger_objects
_lf_count_payload_allocations
_lf_count_token_allocations
terminate_execution
lf_time_logical_elapsed
environment_free
lf_print
pqueue_size
lf_comma_separated_time
lf_time_physical_elapsed
_lf_free_all_tokens
