ARM GAS  /var/folders/2h/lww79zv53b510qlyvytqnvq40000gn/T//ccDbZlJP.s 			page 1


   1              		.cpu cortex-m4
   2              		.arch armv7e-m
   3              		.fpu fpv4-sp-d16
   4              		.eabi_attribute 27, 1
   5              		.eabi_attribute 28, 1
   6              		.eabi_attribute 20, 1
   7              		.eabi_attribute 21, 1
   8              		.eabi_attribute 23, 3
   9              		.eabi_attribute 24, 1
  10              		.eabi_attribute 25, 1
  11              		.eabi_attribute 26, 1
  12              		.eabi_attribute 30, 1
  13              		.eabi_attribute 34, 1
  14              		.eabi_attribute 18, 4
  15              		.file	"reactor_common.c"
  16              		.text
  17              	.Ltext0:
  18              		.cfi_sections	.debug_frame
  19              		.file 1 "src-gen/Main/core/reactor_common.c"
  20              		.section	.rodata._lf_get_new_event.str1.4,"aMS",%progbits,1
  21              		.align	2
  22              	.LC0:
  23 0000 656E7620 		.ascii	"env != GLOBAL_ENVIRONMENT\000"
  23      213D2047 
  23      4C4F4241 
  23      4C5F454E 
  23      5649524F 
  24 001a 0000     		.align	2
  25              	.LC1:
  26 001c 7372632D 		.ascii	"src-gen/Main/core/reactor_common.c\000"
  26      67656E2F 
  26      4D61696E 
  26      2F636F72 
  26      652F7265 
  27 003f 00       		.align	2
  28              	.LC2:
  29 0040 4F757420 		.ascii	"Out of memory!\000"
  29      6F66206D 
  29      656D6F72 
  29      792100
  30              		.section	.text._lf_get_new_event,"ax",%progbits
  31              		.align	1
  32              		.syntax unified
  33              		.thumb
  34              		.thumb_func
  36              	_lf_get_new_event:
  37              	.LVL0:
  38              	.LFB144:
   1:src-gen/Main/core/reactor_common.c **** /* Runtime infrastructure for the C target of Lingua Franca. */
   2:src-gen/Main/core/reactor_common.c **** 
   3:src-gen/Main/core/reactor_common.c **** /*************
   4:src-gen/Main/core/reactor_common.c **** Copyright (c) 2019, The University of California at Berkeley.
   5:src-gen/Main/core/reactor_common.c **** 
   6:src-gen/Main/core/reactor_common.c **** Redistribution and use in source and binary forms, with or without modification,
   7:src-gen/Main/core/reactor_common.c **** are permitted provided that the following conditions are met:
   8:src-gen/Main/core/reactor_common.c **** 
   9:src-gen/Main/core/reactor_common.c **** 1. Redistributions of source code must retain the above copyright notice,
ARM GAS  /var/folders/2h/lww79zv53b510qlyvytqnvq40000gn/T//ccDbZlJP.s 			page 2


  10:src-gen/Main/core/reactor_common.c ****    this list of conditions and the following disclaimer.
  11:src-gen/Main/core/reactor_common.c **** 
  12:src-gen/Main/core/reactor_common.c **** 2. Redistributions in binary form must reproduce the above copyright notice,
  13:src-gen/Main/core/reactor_common.c ****    this list of conditions and the following disclaimer in the documentation
  14:src-gen/Main/core/reactor_common.c ****    and/or other materials provided with the distribution.
  15:src-gen/Main/core/reactor_common.c **** 
  16:src-gen/Main/core/reactor_common.c **** THIS SOFTWARE IS PROVIDED BY THE COPYRIGHT HOLDERS AND CONTRIBUTORS "AS IS" AND ANY
  17:src-gen/Main/core/reactor_common.c **** EXPRESS OR IMPLIED WARRANTIES, INCLUDING, BUT NOT LIMITED TO, THE IMPLIED WARRANTIES OF
  18:src-gen/Main/core/reactor_common.c **** MERCHANTABILITY AND FITNESS FOR A PARTICULAR PURPOSE ARE DISCLAIMED. IN NO EVENT SHALL
  19:src-gen/Main/core/reactor_common.c **** THE COPYRIGHT HOLDER OR CONTRIBUTORS BE LIABLE FOR ANY DIRECT, INDIRECT, INCIDENTAL,
  20:src-gen/Main/core/reactor_common.c **** SPECIAL, EXEMPLARY, OR CONSEQUENTIAL DAMAGES (INCLUDING, BUT NOT LIMITED TO,
  21:src-gen/Main/core/reactor_common.c **** PROCUREMENT OF SUBSTITUTE GOODS OR SERVICES; LOSS OF USE, DATA, OR PROFITS; OR BUSINESS
  22:src-gen/Main/core/reactor_common.c **** INTERRUPTION) HOWEVER CAUSED AND ON ANY THEORY OF LIABILITY, WHETHER IN CONTRACT,
  23:src-gen/Main/core/reactor_common.c **** STRICT LIABILITY, OR TORT (INCLUDING NEGLIGENCE OR OTHERWISE) ARISING IN ANY WAY OUT OF
  24:src-gen/Main/core/reactor_common.c **** THE USE OF THIS SOFTWARE, EVEN IF ADVISED OF THE POSSIBILITY OF SUCH DAMAGE.
  25:src-gen/Main/core/reactor_common.c **** ***************/
  26:src-gen/Main/core/reactor_common.c **** 
  27:src-gen/Main/core/reactor_common.c **** /**
  28:src-gen/Main/core/reactor_common.c ****  * Runtime infrastructure for the C target of Lingua Franca.
  29:src-gen/Main/core/reactor_common.c ****  * This file contains resources that are shared by the threaded and
  30:src-gen/Main/core/reactor_common.c ****  * non-threaded versions of the C runtime.
  31:src-gen/Main/core/reactor_common.c ****  *
  32:src-gen/Main/core/reactor_common.c ****  *  @author{Edward A. Lee <eal@berkeley.edu>}
  33:src-gen/Main/core/reactor_common.c ****  *  @author{Marten Lohstroh <marten@berkeley.edu>}
  34:src-gen/Main/core/reactor_common.c ****  *  @author{Mehrdad Niknami <mniknami@berkeley.edu>}
  35:src-gen/Main/core/reactor_common.c ****  *  @author{Soroush Bateni <soroush@utdallas.edu}
  36:src-gen/Main/core/reactor_common.c ****  *  @author{Alexander Schulz-Rosengarten <als@informatik.uni-kiel.de>}
  37:src-gen/Main/core/reactor_common.c ****  *  @author{Erling Rennemo Jellum <erling.r.jellum0@ntnu.no>}
  38:src-gen/Main/core/reactor_common.c ****  */
  39:src-gen/Main/core/reactor_common.c **** #include <assert.h>
  40:src-gen/Main/core/reactor_common.c **** #include <stdio.h>
  41:src-gen/Main/core/reactor_common.c **** #include <string.h>
  42:src-gen/Main/core/reactor_common.c **** #include <time.h>
  43:src-gen/Main/core/reactor_common.c **** 
  44:src-gen/Main/core/reactor_common.c **** #include "platform.h"
  45:src-gen/Main/core/reactor_common.c **** #include "lf_types.h"
  46:src-gen/Main/core/reactor_common.c **** #ifdef MODAL_REACTORS
  47:src-gen/Main/core/reactor_common.c **** #include "modes.h"
  48:src-gen/Main/core/reactor_common.c **** #endif
  49:src-gen/Main/core/reactor_common.c **** #ifdef FEDERATED
  50:src-gen/Main/core/reactor_common.c **** #include "federate.h"
  51:src-gen/Main/core/reactor_common.c **** #endif
  52:src-gen/Main/core/reactor_common.c **** #include "port.h"
  53:src-gen/Main/core/reactor_common.c **** #include "pqueue.h"
  54:src-gen/Main/core/reactor_common.c **** #include "reactor.h"
  55:src-gen/Main/core/reactor_common.c **** #include "reactor_common.h"
  56:src-gen/Main/core/reactor_common.c **** #include "tag.h"
  57:src-gen/Main/core/reactor_common.c **** #include "trace.h"
  58:src-gen/Main/core/reactor_common.c **** #include "util.h"
  59:src-gen/Main/core/reactor_common.c **** #include "vector.h"
  60:src-gen/Main/core/reactor_common.c **** #include "hashset/hashset.h"
  61:src-gen/Main/core/reactor_common.c **** #include "hashset/hashset_itr.h"
  62:src-gen/Main/core/reactor_common.c **** #include "environment.h"
  63:src-gen/Main/core/reactor_common.c **** 
  64:src-gen/Main/core/reactor_common.c **** #ifdef LF_THREADED
  65:src-gen/Main/core/reactor_common.c **** #include "watchdog.h"
  66:src-gen/Main/core/reactor_common.c **** 
ARM GAS  /var/folders/2h/lww79zv53b510qlyvytqnvq40000gn/T//ccDbZlJP.s 			page 3


  67:src-gen/Main/core/reactor_common.c **** // Code generated global variables.
  68:src-gen/Main/core/reactor_common.c **** extern int _lf_watchdog_count;
  69:src-gen/Main/core/reactor_common.c **** extern watchdog_t* _lf_watchdogs;
  70:src-gen/Main/core/reactor_common.c **** #endif
  71:src-gen/Main/core/reactor_common.c **** 
  72:src-gen/Main/core/reactor_common.c **** // Global variable defined in tag.c:
  73:src-gen/Main/core/reactor_common.c **** extern instant_t start_time;
  74:src-gen/Main/core/reactor_common.c **** 
  75:src-gen/Main/core/reactor_common.c **** // Global variable defined in lf_token.c:
  76:src-gen/Main/core/reactor_common.c **** extern int _lf_count_payload_allocations;
  77:src-gen/Main/core/reactor_common.c **** 
  78:src-gen/Main/core/reactor_common.c **** /**
  79:src-gen/Main/core/reactor_common.c ****  * Indicator of whether to wait for physical time to match logical time.
  80:src-gen/Main/core/reactor_common.c ****  * By default, execution will wait. The command-line argument -fast will
  81:src-gen/Main/core/reactor_common.c ****  * eliminate the wait and allow logical time to exceed physical time.
  82:src-gen/Main/core/reactor_common.c ****  */
  83:src-gen/Main/core/reactor_common.c **** bool fast = false;
  84:src-gen/Main/core/reactor_common.c **** 
  85:src-gen/Main/core/reactor_common.c **** /**
  86:src-gen/Main/core/reactor_common.c ****  * The number of worker threads for threaded execution.
  87:src-gen/Main/core/reactor_common.c ****  * By default, execution is not threaded and this variable will have value 0.
  88:src-gen/Main/core/reactor_common.c ****  *
  89:src-gen/Main/core/reactor_common.c ****  * If the execution is threaded, a value of 0 indicates that the runtime should
  90:src-gen/Main/core/reactor_common.c ****  * decide on the number of workers (which will be decided based on the number of
  91:src-gen/Main/core/reactor_common.c ****  * available cores on the host machine).
  92:src-gen/Main/core/reactor_common.c ****  */
  93:src-gen/Main/core/reactor_common.c **** unsigned int _lf_number_of_workers = 0u;
  94:src-gen/Main/core/reactor_common.c **** 
  95:src-gen/Main/core/reactor_common.c **** /**
  96:src-gen/Main/core/reactor_common.c ****  * The logical time to elapse during execution, or -1 if no timeout time has
  97:src-gen/Main/core/reactor_common.c ****  * been given. When the logical equal to start_time + duration has been
  98:src-gen/Main/core/reactor_common.c ****  * reached, execution will terminate.
  99:src-gen/Main/core/reactor_common.c ****  */
 100:src-gen/Main/core/reactor_common.c **** instant_t duration = -1LL;
 101:src-gen/Main/core/reactor_common.c **** 
 102:src-gen/Main/core/reactor_common.c **** /**
 103:src-gen/Main/core/reactor_common.c ****  * Indicates whether or not the execution
 104:src-gen/Main/core/reactor_common.c ****  * has started.
 105:src-gen/Main/core/reactor_common.c ****  */
 106:src-gen/Main/core/reactor_common.c **** bool _lf_execution_started = false;
 107:src-gen/Main/core/reactor_common.c **** 
 108:src-gen/Main/core/reactor_common.c **** /** Indicator of whether the keepalive command-line option was given. */
 109:src-gen/Main/core/reactor_common.c **** bool keepalive_specified = false;
 110:src-gen/Main/core/reactor_common.c **** 
 111:src-gen/Main/core/reactor_common.c **** /**
 112:src-gen/Main/core/reactor_common.c ****  * Global STP offset uniformly applied to advancement of each
 113:src-gen/Main/core/reactor_common.c ****  * time step in federated execution. This can be retrieved in
 114:src-gen/Main/core/reactor_common.c ****  * user code by calling lf_get_stp_offset() and adjusted by
 115:src-gen/Main/core/reactor_common.c ****  * calling lf_set_stp_offset(interval_t offset).
 116:src-gen/Main/core/reactor_common.c ****  */
 117:src-gen/Main/core/reactor_common.c **** interval_t _lf_fed_STA_offset = 0LL;
 118:src-gen/Main/core/reactor_common.c **** 
 119:src-gen/Main/core/reactor_common.c **** /**
 120:src-gen/Main/core/reactor_common.c ****  * Allocate memory using calloc (so the allocated memory is zeroed out)
 121:src-gen/Main/core/reactor_common.c ****  * and record the allocated memory on the specified self struct so that
 122:src-gen/Main/core/reactor_common.c ****  * it will be freed when calling {@link free_reactor(self_base_t)}.
 123:src-gen/Main/core/reactor_common.c ****  * @param count The number of items of size 'size' to accomodate.
ARM GAS  /var/folders/2h/lww79zv53b510qlyvytqnvq40000gn/T//ccDbZlJP.s 			page 4


 124:src-gen/Main/core/reactor_common.c ****  * @param size The size of each item.
 125:src-gen/Main/core/reactor_common.c ****  * @param head Pointer to the head of a list on which to record
 126:src-gen/Main/core/reactor_common.c ****  *  the allocation, or NULL to not record it.
 127:src-gen/Main/core/reactor_common.c ****  * @return A pointer to the allocated memory.
 128:src-gen/Main/core/reactor_common.c ****  */
 129:src-gen/Main/core/reactor_common.c **** void* _lf_allocate(
 130:src-gen/Main/core/reactor_common.c ****         size_t count, size_t size, struct allocation_record_t** head) {
 131:src-gen/Main/core/reactor_common.c ****     void *mem = calloc(count, size);
 132:src-gen/Main/core/reactor_common.c ****     if (mem == NULL) lf_print_error_and_exit("Out of memory!");
 133:src-gen/Main/core/reactor_common.c ****     if (head != NULL) {
 134:src-gen/Main/core/reactor_common.c ****         struct allocation_record_t* record
 135:src-gen/Main/core/reactor_common.c ****                 = (allocation_record_t*)calloc(1, sizeof(allocation_record_t));
 136:src-gen/Main/core/reactor_common.c ****         if (record == NULL) lf_print_error_and_exit("Out of memory!");
 137:src-gen/Main/core/reactor_common.c ****         record->allocated = mem;
 138:src-gen/Main/core/reactor_common.c ****         allocation_record_t* tmp = *head; // Previous head of the list or NULL.
 139:src-gen/Main/core/reactor_common.c ****         *head = record;                   // New head of the list.
 140:src-gen/Main/core/reactor_common.c ****         record->next = tmp;
 141:src-gen/Main/core/reactor_common.c ****     }
 142:src-gen/Main/core/reactor_common.c ****     return mem;
 143:src-gen/Main/core/reactor_common.c **** }
 144:src-gen/Main/core/reactor_common.c **** 
 145:src-gen/Main/core/reactor_common.c **** /**
 146:src-gen/Main/core/reactor_common.c ****  * Head of a list of pointers to dynamically generated reactor
 147:src-gen/Main/core/reactor_common.c ****  * self structs to be freed in terminate().
 148:src-gen/Main/core/reactor_common.c ****  */
 149:src-gen/Main/core/reactor_common.c **** struct allocation_record_t* _lf_reactors_to_free = NULL;
 150:src-gen/Main/core/reactor_common.c **** 
 151:src-gen/Main/core/reactor_common.c **** /**
 152:src-gen/Main/core/reactor_common.c ****  * Allocate memory for a new runtime instance of a reactor.
 153:src-gen/Main/core/reactor_common.c ****  * This records the reactor on the list of reactors to be freed at
 154:src-gen/Main/core/reactor_common.c ****  * termination of the program. If you plan to free the reactor before
 155:src-gen/Main/core/reactor_common.c ****  * termination of the program, use calloc instead (which this uses).
 156:src-gen/Main/core/reactor_common.c ****  * @param size The size of the self struct, obtained with sizeof().
 157:src-gen/Main/core/reactor_common.c ****  */
 158:src-gen/Main/core/reactor_common.c **** void* _lf_new_reactor(size_t size) {
 159:src-gen/Main/core/reactor_common.c ****     return _lf_allocate(1, size, &_lf_reactors_to_free);
 160:src-gen/Main/core/reactor_common.c **** }
 161:src-gen/Main/core/reactor_common.c **** 
 162:src-gen/Main/core/reactor_common.c **** /**
 163:src-gen/Main/core/reactor_common.c ****  * Free memory on the specified allocation record, e.g. allocated by
 164:src-gen/Main/core/reactor_common.c ****  * {@link _lf_allocate(size_t, size_t, allocation_record_t**)}.
 165:src-gen/Main/core/reactor_common.c ****  * Mark the list empty by setting `*head` to NULL.
 166:src-gen/Main/core/reactor_common.c ****  * @param head Pointer to the head of a list on which to record
 167:src-gen/Main/core/reactor_common.c ****  *  the allocation, or NULL to not record it.
 168:src-gen/Main/core/reactor_common.c ****  */
 169:src-gen/Main/core/reactor_common.c **** void _lf_free(struct allocation_record_t** head) {
 170:src-gen/Main/core/reactor_common.c ****     if (head == NULL) return;
 171:src-gen/Main/core/reactor_common.c ****     struct allocation_record_t* record = *head;
 172:src-gen/Main/core/reactor_common.c ****     while (record != NULL) {
 173:src-gen/Main/core/reactor_common.c ****         LF_PRINT_DEBUG("Freeing memory at %p", record->allocated);
 174:src-gen/Main/core/reactor_common.c ****         free(record->allocated);
 175:src-gen/Main/core/reactor_common.c ****         struct allocation_record_t* tmp = record->next;
 176:src-gen/Main/core/reactor_common.c ****     	LF_PRINT_DEBUG("Freeing allocation record at %p", record);
 177:src-gen/Main/core/reactor_common.c ****         free(record);
 178:src-gen/Main/core/reactor_common.c ****         record = tmp;
 179:src-gen/Main/core/reactor_common.c ****     }
 180:src-gen/Main/core/reactor_common.c ****     *head = NULL;
ARM GAS  /var/folders/2h/lww79zv53b510qlyvytqnvq40000gn/T//ccDbZlJP.s 			page 5


 181:src-gen/Main/core/reactor_common.c **** }
 182:src-gen/Main/core/reactor_common.c **** 
 183:src-gen/Main/core/reactor_common.c **** /**
 184:src-gen/Main/core/reactor_common.c ****  * Free memory recorded on the allocations list of the specified reactor
 185:src-gen/Main/core/reactor_common.c ****  * and then free the specified self struct.
 186:src-gen/Main/core/reactor_common.c ****  * @param self The self struct of the reactor.
 187:src-gen/Main/core/reactor_common.c ****  */
 188:src-gen/Main/core/reactor_common.c **** void _lf_free_reactor(self_base_t *self) {
 189:src-gen/Main/core/reactor_common.c ****     _lf_free(&self->allocations);
 190:src-gen/Main/core/reactor_common.c ****     free(self);
 191:src-gen/Main/core/reactor_common.c **** }
 192:src-gen/Main/core/reactor_common.c **** 
 193:src-gen/Main/core/reactor_common.c **** /**
 194:src-gen/Main/core/reactor_common.c ****  * Free all the reactors that are allocated with
 195:src-gen/Main/core/reactor_common.c ****  * {@link #_lf_new_reactor(size_t)}.
 196:src-gen/Main/core/reactor_common.c ****  */
 197:src-gen/Main/core/reactor_common.c **** void _lf_free_all_reactors(void) {
 198:src-gen/Main/core/reactor_common.c ****     struct allocation_record_t* head = _lf_reactors_to_free;
 199:src-gen/Main/core/reactor_common.c ****     while (head != NULL) {
 200:src-gen/Main/core/reactor_common.c ****         _lf_free_reactor((self_base_t*)head->allocated);
 201:src-gen/Main/core/reactor_common.c ****         struct allocation_record_t* tmp = head->next;
 202:src-gen/Main/core/reactor_common.c ****         free(head);
 203:src-gen/Main/core/reactor_common.c ****         head = tmp;
 204:src-gen/Main/core/reactor_common.c ****     }
 205:src-gen/Main/core/reactor_common.c ****     _lf_reactors_to_free = NULL;
 206:src-gen/Main/core/reactor_common.c **** }
 207:src-gen/Main/core/reactor_common.c **** 
 208:src-gen/Main/core/reactor_common.c **** /**
 209:src-gen/Main/core/reactor_common.c ****  * Set the stop tag.
 210:src-gen/Main/core/reactor_common.c ****  *
 211:src-gen/Main/core/reactor_common.c ****  * This function will always choose the minimum
 212:src-gen/Main/core/reactor_common.c ****  * of the provided tag and stop_tag
 213:src-gen/Main/core/reactor_common.c ****  *
 214:src-gen/Main/core/reactor_common.c ****  * @note In threaded programs, the mutex must be locked before
 215:src-gen/Main/core/reactor_common.c ****  *  calling this function.
 216:src-gen/Main/core/reactor_common.c ****  */
 217:src-gen/Main/core/reactor_common.c **** void _lf_set_stop_tag(environment_t* env, tag_t tag) {
 218:src-gen/Main/core/reactor_common.c ****     assert(env != GLOBAL_ENVIRONMENT);
 219:src-gen/Main/core/reactor_common.c ****     if (lf_tag_compare(tag, env->stop_tag) < 0) {
 220:src-gen/Main/core/reactor_common.c ****         env->stop_tag = tag;
 221:src-gen/Main/core/reactor_common.c ****     }
 222:src-gen/Main/core/reactor_common.c **** }
 223:src-gen/Main/core/reactor_common.c **** 
 224:src-gen/Main/core/reactor_common.c **** /////////////////////////////
 225:src-gen/Main/core/reactor_common.c **** // The following functions are in scope for all reactors:
 226:src-gen/Main/core/reactor_common.c **** 
 227:src-gen/Main/core/reactor_common.c **** /**
 228:src-gen/Main/core/reactor_common.c ****  * Return the global STP offset on advancement of logical
 229:src-gen/Main/core/reactor_common.c ****  * time for federated execution.
 230:src-gen/Main/core/reactor_common.c ****  */
 231:src-gen/Main/core/reactor_common.c **** interval_t lf_get_stp_offset() {
 232:src-gen/Main/core/reactor_common.c ****     return _lf_fed_STA_offset;
 233:src-gen/Main/core/reactor_common.c **** }
 234:src-gen/Main/core/reactor_common.c **** 
 235:src-gen/Main/core/reactor_common.c **** /**
 236:src-gen/Main/core/reactor_common.c ****  * Set the global STP offset on advancement of logical
 237:src-gen/Main/core/reactor_common.c ****  * time for federated execution.
ARM GAS  /var/folders/2h/lww79zv53b510qlyvytqnvq40000gn/T//ccDbZlJP.s 			page 6


 238:src-gen/Main/core/reactor_common.c ****  *
 239:src-gen/Main/core/reactor_common.c ****  * @param offset A positive time value to be applied
 240:src-gen/Main/core/reactor_common.c ****  *  as the STP offset.
 241:src-gen/Main/core/reactor_common.c ****  */
 242:src-gen/Main/core/reactor_common.c **** void lf_set_stp_offset(interval_t offset) {
 243:src-gen/Main/core/reactor_common.c ****     if (offset > 0LL) {
 244:src-gen/Main/core/reactor_common.c ****         _lf_fed_STA_offset = offset;
 245:src-gen/Main/core/reactor_common.c ****     }
 246:src-gen/Main/core/reactor_common.c **** }
 247:src-gen/Main/core/reactor_common.c **** 
 248:src-gen/Main/core/reactor_common.c **** 
 249:src-gen/Main/core/reactor_common.c **** /**
 250:src-gen/Main/core/reactor_common.c ****  * Trigger 'reaction'.
 251:src-gen/Main/core/reactor_common.c ****  *
 252:src-gen/Main/core/reactor_common.c ****  * @param env Environment in which we are executing.
 253:src-gen/Main/core/reactor_common.c ****  * @param reaction The reaction.
 254:src-gen/Main/core/reactor_common.c ****  * @param worker_number The ID of the worker that is making this call. 0 should be
 255:src-gen/Main/core/reactor_common.c ****  *  used if there is only one worker (e.g., when the program is using the
 256:src-gen/Main/core/reactor_common.c ****  *  unthreaded C runtime). -1 is used for an anonymous call in a context where a
 257:src-gen/Main/core/reactor_common.c ****  *  worker number does not make sense (e.g., the caller is not a worker thread).
 258:src-gen/Main/core/reactor_common.c ****  */
 259:src-gen/Main/core/reactor_common.c **** void _lf_trigger_reaction(environment_t* env, reaction_t* reaction, int worker_number);
 260:src-gen/Main/core/reactor_common.c **** 
 261:src-gen/Main/core/reactor_common.c **** /**
 262:src-gen/Main/core/reactor_common.c ****  * Use tables to reset is_present fields to false,
 263:src-gen/Main/core/reactor_common.c ****  * set intended_tag fields in federated execution
 264:src-gen/Main/core/reactor_common.c ****  * to the current_tag, and decrement reference
 265:src-gen/Main/core/reactor_common.c ****  * counts between time steps and at the end of execution.
 266:src-gen/Main/core/reactor_common.c ****  */
 267:src-gen/Main/core/reactor_common.c **** void _lf_start_time_step(environment_t *env) {
 268:src-gen/Main/core/reactor_common.c ****     assert(env != GLOBAL_ENVIRONMENT);
 269:src-gen/Main/core/reactor_common.c ****     LF_PRINT_LOG("--------- Start time step at tag " PRINTF_TAG ".", env->current_tag.time - start_
 270:src-gen/Main/core/reactor_common.c ****     // Handle dynamically created tokens for mutable inputs.
 271:src-gen/Main/core/reactor_common.c ****     _lf_free_token_copies(env);
 272:src-gen/Main/core/reactor_common.c **** 
 273:src-gen/Main/core/reactor_common.c ****     bool** is_present_fields = env->is_present_fields_abbreviated;
 274:src-gen/Main/core/reactor_common.c ****     int size = env->is_present_fields_abbreviated_size;
 275:src-gen/Main/core/reactor_common.c ****     if (env->is_present_fields_abbreviated_size > env->is_present_fields_size) {
 276:src-gen/Main/core/reactor_common.c ****         size = env->is_present_fields_size;
 277:src-gen/Main/core/reactor_common.c ****         is_present_fields = env->is_present_fields;
 278:src-gen/Main/core/reactor_common.c ****     }
 279:src-gen/Main/core/reactor_common.c ****     for(int i = 0; i < size; i++) {
 280:src-gen/Main/core/reactor_common.c ****         *is_present_fields[i] = false;
 281:src-gen/Main/core/reactor_common.c ****     }
 282:src-gen/Main/core/reactor_common.c ****     // Reset sparse IO record sizes to 0, if any.
 283:src-gen/Main/core/reactor_common.c ****     if (env->sparse_io_record_sizes.start != NULL) {
 284:src-gen/Main/core/reactor_common.c ****         for (size_t i = 0; i < vector_size(&env->sparse_io_record_sizes); i++) {
 285:src-gen/Main/core/reactor_common.c ****             // NOTE: vector_at does not return the element at
 286:src-gen/Main/core/reactor_common.c ****             // the index, but rather returns a pointer to that element, which is
 287:src-gen/Main/core/reactor_common.c ****             // itself a pointer.
 288:src-gen/Main/core/reactor_common.c ****             int** sizep = (int**)vector_at(&env->sparse_io_record_sizes, i);
 289:src-gen/Main/core/reactor_common.c ****             if (sizep != NULL && *sizep != NULL) {
 290:src-gen/Main/core/reactor_common.c ****                 **sizep = 0;
 291:src-gen/Main/core/reactor_common.c ****             }
 292:src-gen/Main/core/reactor_common.c ****         }
 293:src-gen/Main/core/reactor_common.c ****     }
 294:src-gen/Main/core/reactor_common.c **** 
ARM GAS  /var/folders/2h/lww79zv53b510qlyvytqnvq40000gn/T//ccDbZlJP.s 			page 7


 295:src-gen/Main/core/reactor_common.c **** #ifdef FEDERATED_DECENTRALIZED
 296:src-gen/Main/core/reactor_common.c ****     for (int i = 0; i < env->is_present_fields_size; i++) {
 297:src-gen/Main/core/reactor_common.c ****         // FIXME: For now, an intended tag of (NEVER, 0)
 298:src-gen/Main/core/reactor_common.c ****         // indicates that it has never been set.
 299:src-gen/Main/core/reactor_common.c ****         *env->_lf_intended_tag_fields[i] = (tag_t) {NEVER, 0};
 300:src-gen/Main/core/reactor_common.c ****     }
 301:src-gen/Main/core/reactor_common.c **** #endif
 302:src-gen/Main/core/reactor_common.c **** #ifdef FEDERATED
 303:src-gen/Main/core/reactor_common.c ****     // Reset absent fields on network ports because
 304:src-gen/Main/core/reactor_common.c ****     // their status is unknown
 305:src-gen/Main/core/reactor_common.c ****     reset_status_fields_on_input_port_triggers();
 306:src-gen/Main/core/reactor_common.c ****     // Signal the helper thread to reset its progress since the logical time has changed.
 307:src-gen/Main/core/reactor_common.c ****     lf_cond_signal(&logical_time_changed);
 308:src-gen/Main/core/reactor_common.c **** #endif
 309:src-gen/Main/core/reactor_common.c ****     env->is_present_fields_abbreviated_size = 0;
 310:src-gen/Main/core/reactor_common.c **** }
 311:src-gen/Main/core/reactor_common.c **** 
 312:src-gen/Main/core/reactor_common.c **** /**
 313:src-gen/Main/core/reactor_common.c ****  * A helper function that returns true if the provided tag is after stop tag.
 314:src-gen/Main/core/reactor_common.c ****  *
 315:src-gen/Main/core/reactor_common.c ****  * @param env Environment in which we are executing.
 316:src-gen/Main/core/reactor_common.c ****  * @param tag The tag to check against stop tag
 317:src-gen/Main/core/reactor_common.c ****  */
 318:src-gen/Main/core/reactor_common.c **** bool _lf_is_tag_after_stop_tag(environment_t* env, tag_t tag) {
 319:src-gen/Main/core/reactor_common.c ****     assert(env != GLOBAL_ENVIRONMENT);
 320:src-gen/Main/core/reactor_common.c ****     return (lf_tag_compare(tag, env->stop_tag) > 0);
 321:src-gen/Main/core/reactor_common.c **** }
 322:src-gen/Main/core/reactor_common.c **** 
 323:src-gen/Main/core/reactor_common.c **** /**
 324:src-gen/Main/core/reactor_common.c ****  * Pop all events from event_q with timestamp equal to current_tag.time, extract all
 325:src-gen/Main/core/reactor_common.c ****  * the reactions triggered by these events, and stick them into the reaction
 326:src-gen/Main/core/reactor_common.c ****  * queue.
 327:src-gen/Main/core/reactor_common.c ****  * @param env Environment in which we are executing.
 328:src-gen/Main/core/reactor_common.c ****  */
 329:src-gen/Main/core/reactor_common.c **** void _lf_pop_events(environment_t *env) {
 330:src-gen/Main/core/reactor_common.c ****     assert(env != GLOBAL_ENVIRONMENT);
 331:src-gen/Main/core/reactor_common.c **** #ifdef MODAL_REACTORS
 332:src-gen/Main/core/reactor_common.c ****     _lf_handle_mode_triggered_reactions(env);
 333:src-gen/Main/core/reactor_common.c **** #endif
 334:src-gen/Main/core/reactor_common.c **** 
 335:src-gen/Main/core/reactor_common.c ****     event_t* event = (event_t*)pqueue_peek(env->event_q);
 336:src-gen/Main/core/reactor_common.c ****     while(event != NULL && event->time == env->current_tag.time) {
 337:src-gen/Main/core/reactor_common.c ****         event = (event_t*)pqueue_pop(env->event_q);
 338:src-gen/Main/core/reactor_common.c **** 
 339:src-gen/Main/core/reactor_common.c ****         if (event->is_dummy) {
 340:src-gen/Main/core/reactor_common.c ****             LF_PRINT_DEBUG("Popped dummy event from the event queue.");
 341:src-gen/Main/core/reactor_common.c ****             if (event->next != NULL) {
 342:src-gen/Main/core/reactor_common.c ****                 LF_PRINT_DEBUG("Putting event from the event queue for the next microstep.");
 343:src-gen/Main/core/reactor_common.c ****                 pqueue_insert(env->next_q, event->next);
 344:src-gen/Main/core/reactor_common.c ****             }
 345:src-gen/Main/core/reactor_common.c ****             _lf_recycle_event(env, event);
 346:src-gen/Main/core/reactor_common.c ****             // Peek at the next event in the event queue.
 347:src-gen/Main/core/reactor_common.c ****             event = (event_t*)pqueue_peek(env->event_q);
 348:src-gen/Main/core/reactor_common.c ****             continue;
 349:src-gen/Main/core/reactor_common.c ****         }
 350:src-gen/Main/core/reactor_common.c **** 
 351:src-gen/Main/core/reactor_common.c **** #ifdef MODAL_REACTORS
ARM GAS  /var/folders/2h/lww79zv53b510qlyvytqnvq40000gn/T//ccDbZlJP.s 			page 8


 352:src-gen/Main/core/reactor_common.c ****         // If this event is associated with an incative it should haven been suspended and no longe
 353:src-gen/Main/core/reactor_common.c ****         // FIXME This should not be possible
 354:src-gen/Main/core/reactor_common.c ****         if (!_lf_mode_is_active(event->trigger->mode)) {
 355:src-gen/Main/core/reactor_common.c ****             lf_print_warning("Assumption violated. There is an event on the event queue that is ass
 356:src-gen/Main/core/reactor_common.c ****         }
 357:src-gen/Main/core/reactor_common.c **** #endif
 358:src-gen/Main/core/reactor_common.c **** 
 359:src-gen/Main/core/reactor_common.c ****         lf_token_t *token = event->token;
 360:src-gen/Main/core/reactor_common.c **** 
 361:src-gen/Main/core/reactor_common.c ****         // Put the corresponding reactions onto the reaction queue.
 362:src-gen/Main/core/reactor_common.c ****         for (int i = 0; i < event->trigger->number_of_reactions; i++) {
 363:src-gen/Main/core/reactor_common.c ****             reaction_t *reaction = event->trigger->reactions[i];
 364:src-gen/Main/core/reactor_common.c ****             // Do not enqueue this reaction twice.
 365:src-gen/Main/core/reactor_common.c ****             if (reaction->status == inactive) {
 366:src-gen/Main/core/reactor_common.c **** #ifdef FEDERATED_DECENTRALIZED
 367:src-gen/Main/core/reactor_common.c ****                 // In federated execution, an intended tag that is not (NEVER, 0)
 368:src-gen/Main/core/reactor_common.c ****                 // indicates that this particular event is triggered by a network message.
 369:src-gen/Main/core/reactor_common.c ****                 // The intended tag is set in handle_timed_message in federate.c whenever
 370:src-gen/Main/core/reactor_common.c ****                 // a timed message arrives from another federate.
 371:src-gen/Main/core/reactor_common.c ****                 if (event->intended_tag.time != NEVER) {
 372:src-gen/Main/core/reactor_common.c ****                     // If the intended tag of the event is actually set,
 373:src-gen/Main/core/reactor_common.c ****                     // transfer the intended tag to the trigger so that
 374:src-gen/Main/core/reactor_common.c ****                     // the reaction can access the value.
 375:src-gen/Main/core/reactor_common.c ****                     event->trigger->intended_tag = event->intended_tag;
 376:src-gen/Main/core/reactor_common.c ****                     // And check if it is in the past compared to the current tag.
 377:src-gen/Main/core/reactor_common.c ****                     if (lf_tag_compare(event->intended_tag,
 378:src-gen/Main/core/reactor_common.c ****                                     env->current_tag) < 0) {
 379:src-gen/Main/core/reactor_common.c ****                         // Mark the triggered reaction with a STP violation
 380:src-gen/Main/core/reactor_common.c ****                         reaction->is_STP_violated = true;
 381:src-gen/Main/core/reactor_common.c ****                         LF_PRINT_LOG("Trigger %p has violated the reaction's STP offset. Intended t
 382:src-gen/Main/core/reactor_common.c ****                                     event->trigger,
 383:src-gen/Main/core/reactor_common.c ****                                     event->intended_tag.time - start_time, event->intended_tag.micr
 384:src-gen/Main/core/reactor_common.c ****                                     env->current_tag.time - start_time, env->current_tag.microstep)
 385:src-gen/Main/core/reactor_common.c ****                     }
 386:src-gen/Main/core/reactor_common.c ****                 }
 387:src-gen/Main/core/reactor_common.c **** #endif
 388:src-gen/Main/core/reactor_common.c **** 
 389:src-gen/Main/core/reactor_common.c **** #ifdef MODAL_REACTORS
 390:src-gen/Main/core/reactor_common.c ****                 // Check if reaction is disabled by mode inactivity
 391:src-gen/Main/core/reactor_common.c ****                 if (!_lf_mode_is_active(reaction->mode)) {
 392:src-gen/Main/core/reactor_common.c ****                     LF_PRINT_DEBUG("Suppressing reaction %s due inactive mode.", reaction->name);
 393:src-gen/Main/core/reactor_common.c ****                     continue; // Suppress reaction by preventing entering reaction queue
 394:src-gen/Main/core/reactor_common.c ****                 }
 395:src-gen/Main/core/reactor_common.c **** #endif
 396:src-gen/Main/core/reactor_common.c ****                 LF_PRINT_DEBUG("Triggering reaction %s.", reaction->name);
 397:src-gen/Main/core/reactor_common.c ****                 _lf_trigger_reaction(env, reaction, -1);
 398:src-gen/Main/core/reactor_common.c ****             } else {
 399:src-gen/Main/core/reactor_common.c ****                 LF_PRINT_DEBUG("Reaction is already triggered: %s", reaction->name);
 400:src-gen/Main/core/reactor_common.c ****             }
 401:src-gen/Main/core/reactor_common.c ****         }
 402:src-gen/Main/core/reactor_common.c **** 
 403:src-gen/Main/core/reactor_common.c ****         // Mark the trigger present.
 404:src-gen/Main/core/reactor_common.c ****         event->trigger->status = present;
 405:src-gen/Main/core/reactor_common.c **** 
 406:src-gen/Main/core/reactor_common.c ****         // If the trigger is a periodic timer, create a new event for its next execution.
 407:src-gen/Main/core/reactor_common.c ****         if (event->trigger->is_timer && event->trigger->period > 0LL) {
 408:src-gen/Main/core/reactor_common.c ****             // Reschedule the trigger.
ARM GAS  /var/folders/2h/lww79zv53b510qlyvytqnvq40000gn/T//ccDbZlJP.s 			page 9


 409:src-gen/Main/core/reactor_common.c ****             _lf_schedule(env, event->trigger, event->trigger->period, NULL);
 410:src-gen/Main/core/reactor_common.c ****         }
 411:src-gen/Main/core/reactor_common.c **** 
 412:src-gen/Main/core/reactor_common.c ****         // Copy the token pointer into the trigger struct so that the
 413:src-gen/Main/core/reactor_common.c ****         // reactions can access it. This overwrites the previous template token,
 414:src-gen/Main/core/reactor_common.c ****         // for which we decrement the reference count.
 415:src-gen/Main/core/reactor_common.c ****         _lf_replace_template_token((token_template_t*)event->trigger, token);
 416:src-gen/Main/core/reactor_common.c **** 
 417:src-gen/Main/core/reactor_common.c ****         // Decrement the reference count because the event queue no longer needs this token.
 418:src-gen/Main/core/reactor_common.c ****         // This has to be done after the above call to _lf_replace_template_token because
 419:src-gen/Main/core/reactor_common.c ****         // that call will increment the reference count and we need to not let the token be
 420:src-gen/Main/core/reactor_common.c ****         // freed prematurely.
 421:src-gen/Main/core/reactor_common.c ****         _lf_done_using(token);
 422:src-gen/Main/core/reactor_common.c **** 
 423:src-gen/Main/core/reactor_common.c ****         // Mark the trigger present.
 424:src-gen/Main/core/reactor_common.c ****         event->trigger->status = present;
 425:src-gen/Main/core/reactor_common.c **** 
 426:src-gen/Main/core/reactor_common.c ****         // If this event points to a next event, insert it into the next queue.
 427:src-gen/Main/core/reactor_common.c ****         if (event->next != NULL) {
 428:src-gen/Main/core/reactor_common.c ****             // Insert the next event into the next queue.
 429:src-gen/Main/core/reactor_common.c ****             pqueue_insert(env->next_q, event->next);
 430:src-gen/Main/core/reactor_common.c ****         }
 431:src-gen/Main/core/reactor_common.c **** 
 432:src-gen/Main/core/reactor_common.c ****         _lf_recycle_event(env, event);
 433:src-gen/Main/core/reactor_common.c **** 
 434:src-gen/Main/core/reactor_common.c ****         // Peek at the next event in the event queue.
 435:src-gen/Main/core/reactor_common.c ****         event = (event_t*)pqueue_peek(env->event_q);
 436:src-gen/Main/core/reactor_common.c ****     };
 437:src-gen/Main/core/reactor_common.c **** 
 438:src-gen/Main/core/reactor_common.c ****     LF_PRINT_DEBUG("There are %zu events deferred to the next microstep.", pqueue_size(env->next_q)
 439:src-gen/Main/core/reactor_common.c **** 
 440:src-gen/Main/core/reactor_common.c ****     // After populating the reaction queue, see if there are things on the
 441:src-gen/Main/core/reactor_common.c ****     // next queue to put back into the event queue.
 442:src-gen/Main/core/reactor_common.c ****     while(pqueue_peek(env->next_q) != NULL) {
 443:src-gen/Main/core/reactor_common.c ****         pqueue_insert(env->event_q, pqueue_pop(env->next_q));
 444:src-gen/Main/core/reactor_common.c ****     }
 445:src-gen/Main/core/reactor_common.c **** }
 446:src-gen/Main/core/reactor_common.c **** 
 447:src-gen/Main/core/reactor_common.c **** /**
 448:src-gen/Main/core/reactor_common.c ****  * Get a new event. If there is a recycled event available, use that.
 449:src-gen/Main/core/reactor_common.c ****  * If not, allocate a new one. In either case, all fields will be zero'ed out.
 450:src-gen/Main/core/reactor_common.c ****  * @param env Environment in which we are executing.
 451:src-gen/Main/core/reactor_common.c ****  */
 452:src-gen/Main/core/reactor_common.c **** static event_t* _lf_get_new_event(environment_t* env) {
  39              		.loc 1 452 55 view -0
  40              		.cfi_startproc
  41              		@ args = 0, pretend = 0, frame = 0
  42              		@ frame_needed = 0, uses_anonymous_args = 0
  43              		.loc 1 452 55 is_stmt 0 view .LVU1
  44 0000 10B5     		push	{r4, lr}
  45              	.LCFI0:
  46              		.cfi_def_cfa_offset 8
  47              		.cfi_offset 4, -8
  48              		.cfi_offset 14, -4
 453:src-gen/Main/core/reactor_common.c ****     assert(env != GLOBAL_ENVIRONMENT);
  49              		.loc 1 453 5 is_stmt 1 view .LVU2
  50 0002 30B1     		cbz	r0, .L5
ARM GAS  /var/folders/2h/lww79zv53b510qlyvytqnvq40000gn/T//ccDbZlJP.s 			page 10


 454:src-gen/Main/core/reactor_common.c ****     // Recycle event_t structs, if possible.
 455:src-gen/Main/core/reactor_common.c ****     event_t* e = (event_t*)pqueue_pop(env->recycle_q);
  51              		.loc 1 455 5 view .LVU3
  52              		.loc 1 455 28 is_stmt 0 view .LVU4
  53 0004 C06A     		ldr	r0, [r0, #44]
  54              	.LVL1:
  55              		.loc 1 455 28 view .LVU5
  56 0006 FFF7FEFF 		bl	pqueue_pop
  57              	.LVL2:
 456:src-gen/Main/core/reactor_common.c ****     if (e == NULL) {
  58              		.loc 1 456 5 is_stmt 1 view .LVU6
  59              		.loc 1 456 8 is_stmt 0 view .LVU7
  60 000a 0446     		mov	r4, r0
  61 000c 40B1     		cbz	r0, .L6
  62              	.LVL3:
  63              	.L1:
 457:src-gen/Main/core/reactor_common.c ****         e = (event_t*)calloc(1, sizeof(struct event_t));
 458:src-gen/Main/core/reactor_common.c ****         if (e == NULL) lf_print_error_and_exit("Out of memory!");
 459:src-gen/Main/core/reactor_common.c **** #ifdef FEDERATED_DECENTRALIZED
 460:src-gen/Main/core/reactor_common.c ****         e->intended_tag = (tag_t) { .time = NEVER, .microstep = 0u};
 461:src-gen/Main/core/reactor_common.c **** #endif
 462:src-gen/Main/core/reactor_common.c ****     }
 463:src-gen/Main/core/reactor_common.c ****     return e;
 464:src-gen/Main/core/reactor_common.c **** }
  64              		.loc 1 464 1 view .LVU8
  65 000e 2046     		mov	r0, r4
  66 0010 10BD     		pop	{r4, pc}
  67              	.LVL4:
  68              	.L5:
 453:src-gen/Main/core/reactor_common.c ****     // Recycle event_t structs, if possible.
  69              		.loc 1 453 5 discriminator 1 view .LVU9
  70 0012 094B     		ldr	r3, .L7
  71 0014 094A     		ldr	r2, .L7+4
  72 0016 40F2C511 		movw	r1, #453
  73 001a 0948     		ldr	r0, .L7+8
  74              	.LVL5:
 453:src-gen/Main/core/reactor_common.c ****     // Recycle event_t structs, if possible.
  75              		.loc 1 453 5 discriminator 1 view .LVU10
  76 001c FFF7FEFF 		bl	__assert_func
  77              	.LVL6:
  78              	.L6:
 457:src-gen/Main/core/reactor_common.c ****         e = (event_t*)calloc(1, sizeof(struct event_t));
  79              		.loc 1 457 9 is_stmt 1 view .LVU11
 457:src-gen/Main/core/reactor_common.c ****         e = (event_t*)calloc(1, sizeof(struct event_t));
  80              		.loc 1 457 23 is_stmt 0 view .LVU12
  81 0020 2021     		movs	r1, #32
  82 0022 0120     		movs	r0, #1
  83              	.LVL7:
 457:src-gen/Main/core/reactor_common.c ****         e = (event_t*)calloc(1, sizeof(struct event_t));
  84              		.loc 1 457 23 view .LVU13
  85 0024 FFF7FEFF 		bl	calloc
  86              	.LVL8:
 458:src-gen/Main/core/reactor_common.c **** #ifdef FEDERATED_DECENTRALIZED
  87              		.loc 1 458 9 is_stmt 1 view .LVU14
 458:src-gen/Main/core/reactor_common.c **** #ifdef FEDERATED_DECENTRALIZED
  88              		.loc 1 458 12 is_stmt 0 view .LVU15
  89 0028 0446     		mov	r4, r0
ARM GAS  /var/folders/2h/lww79zv53b510qlyvytqnvq40000gn/T//ccDbZlJP.s 			page 11


  90 002a 0028     		cmp	r0, #0
  91 002c EFD1     		bne	.L1
 458:src-gen/Main/core/reactor_common.c **** #ifdef FEDERATED_DECENTRALIZED
  92              		.loc 1 458 24 is_stmt 1 discriminator 1 view .LVU16
  93 002e 0548     		ldr	r0, .L7+12
  94              	.LVL9:
 458:src-gen/Main/core/reactor_common.c **** #ifdef FEDERATED_DECENTRALIZED
  95              		.loc 1 458 24 is_stmt 0 discriminator 1 view .LVU17
  96 0030 FFF7FEFF 		bl	lf_print_error_and_exit
  97              	.LVL10:
 463:src-gen/Main/core/reactor_common.c **** }
  98              		.loc 1 463 5 is_stmt 1 discriminator 1 view .LVU18
 463:src-gen/Main/core/reactor_common.c **** }
  99              		.loc 1 463 12 is_stmt 0 discriminator 1 view .LVU19
 100 0034 EBE7     		b	.L1
 101              	.L8:
 102 0036 00BF     		.align	2
 103              	.L7:
 104 0038 00000000 		.word	.LC0
 105 003c 00000000 		.word	__func__.10
 106 0040 1C000000 		.word	.LC1
 107 0044 40000000 		.word	.LC2
 108              		.cfi_endproc
 109              	.LFE144:
 111              		.section	.text._lf_replace_token,"ax",%progbits
 112              		.align	1
 113              		.syntax unified
 114              		.thumb
 115              		.thumb_func
 117              	_lf_replace_token:
 118              	.LVL11:
 119              	.LFB151:
 465:src-gen/Main/core/reactor_common.c **** 
 466:src-gen/Main/core/reactor_common.c **** /**
 467:src-gen/Main/core/reactor_common.c ****  * Initialize the given timer.
 468:src-gen/Main/core/reactor_common.c ****  * If this timer has a zero offset, enqueue the reactions it triggers.
 469:src-gen/Main/core/reactor_common.c ****  * If this timer is to trigger reactions at a _future_ tag as well,
 470:src-gen/Main/core/reactor_common.c ****  * schedule it accordingly.
 471:src-gen/Main/core/reactor_common.c ****  * @param env Environment in which we are executing.
 472:src-gen/Main/core/reactor_common.c ****  * @param timer The timer to initialize.
 473:src-gen/Main/core/reactor_common.c ****  */
 474:src-gen/Main/core/reactor_common.c **** void _lf_initialize_timer(environment_t* env, trigger_t* timer) {
 475:src-gen/Main/core/reactor_common.c ****     assert(env != GLOBAL_ENVIRONMENT);
 476:src-gen/Main/core/reactor_common.c ****     interval_t delay = 0;
 477:src-gen/Main/core/reactor_common.c **** 
 478:src-gen/Main/core/reactor_common.c **** #ifdef MODAL_REACTORS
 479:src-gen/Main/core/reactor_common.c ****     // Suspend all timer events that start in inactive mode
 480:src-gen/Main/core/reactor_common.c ****     if (!_lf_mode_is_active(timer->mode)) {
 481:src-gen/Main/core/reactor_common.c ****         // FIXME: The following check might not be working as
 482:src-gen/Main/core/reactor_common.c ****         // intended
 483:src-gen/Main/core/reactor_common.c ****         // && (timer->offset != 0 || timer->period != 0)) {
 484:src-gen/Main/core/reactor_common.c ****         event_t* e = _lf_get_new_event(env);
 485:src-gen/Main/core/reactor_common.c ****         e->trigger = timer;
 486:src-gen/Main/core/reactor_common.c ****         e->time = lf_time_logical(env) + timer->offset;
 487:src-gen/Main/core/reactor_common.c ****         _lf_add_suspended_event(e);
 488:src-gen/Main/core/reactor_common.c ****         return;
 489:src-gen/Main/core/reactor_common.c ****     }
ARM GAS  /var/folders/2h/lww79zv53b510qlyvytqnvq40000gn/T//ccDbZlJP.s 			page 12


 490:src-gen/Main/core/reactor_common.c **** #endif
 491:src-gen/Main/core/reactor_common.c ****     if (timer->offset == 0) {
 492:src-gen/Main/core/reactor_common.c ****         for (int i = 0; i < timer->number_of_reactions; i++) {
 493:src-gen/Main/core/reactor_common.c ****             _lf_trigger_reaction(env, timer->reactions[i], -1);
 494:src-gen/Main/core/reactor_common.c ****             tracepoint_schedule(env->trace, timer, 0LL); // Trace even though schedule is not calle
 495:src-gen/Main/core/reactor_common.c ****         }
 496:src-gen/Main/core/reactor_common.c ****         if (timer->period == 0) {
 497:src-gen/Main/core/reactor_common.c ****             return;
 498:src-gen/Main/core/reactor_common.c ****         } else {
 499:src-gen/Main/core/reactor_common.c ****             // Schedule at t + period.
 500:src-gen/Main/core/reactor_common.c ****             delay = timer->period;
 501:src-gen/Main/core/reactor_common.c ****         }
 502:src-gen/Main/core/reactor_common.c ****     } else {
 503:src-gen/Main/core/reactor_common.c ****         // Schedule at t + offset.
 504:src-gen/Main/core/reactor_common.c ****         delay = timer->offset;
 505:src-gen/Main/core/reactor_common.c ****     }
 506:src-gen/Main/core/reactor_common.c **** 
 507:src-gen/Main/core/reactor_common.c ****     // Get an event_t struct to put on the event queue.
 508:src-gen/Main/core/reactor_common.c ****     // Recycle event_t structs, if possible.
 509:src-gen/Main/core/reactor_common.c ****     event_t* e = _lf_get_new_event(env);
 510:src-gen/Main/core/reactor_common.c ****     e->trigger = timer;
 511:src-gen/Main/core/reactor_common.c ****     e->time = lf_time_logical(env) + delay;
 512:src-gen/Main/core/reactor_common.c ****     // NOTE: No lock is being held. Assuming this only happens at startup.
 513:src-gen/Main/core/reactor_common.c ****     pqueue_insert(env->event_q, e);
 514:src-gen/Main/core/reactor_common.c ****     tracepoint_schedule(env->trace, timer, delay); // Trace even though schedule is not called.
 515:src-gen/Main/core/reactor_common.c **** }
 516:src-gen/Main/core/reactor_common.c **** 
 517:src-gen/Main/core/reactor_common.c **** /**
 518:src-gen/Main/core/reactor_common.c ****  * @brief Initialize all the timers in the environment
 519:src-gen/Main/core/reactor_common.c ****  * @param env Environment in which we are executing.
 520:src-gen/Main/core/reactor_common.c ****  */
 521:src-gen/Main/core/reactor_common.c **** void _lf_initialize_timers(environment_t* env) {
 522:src-gen/Main/core/reactor_common.c ****     assert(env != GLOBAL_ENVIRONMENT);
 523:src-gen/Main/core/reactor_common.c ****     for (int i = 0; i < env->timer_triggers_size; i++) {
 524:src-gen/Main/core/reactor_common.c ****         if (env->timer_triggers[i] != NULL) {
 525:src-gen/Main/core/reactor_common.c ****             _lf_initialize_timer(env, env->timer_triggers[i]);
 526:src-gen/Main/core/reactor_common.c ****         }
 527:src-gen/Main/core/reactor_common.c ****     }
 528:src-gen/Main/core/reactor_common.c **** }
 529:src-gen/Main/core/reactor_common.c **** 
 530:src-gen/Main/core/reactor_common.c **** /**
 531:src-gen/Main/core/reactor_common.c ****  * @brief Trigger all the startup reactions in our environment
 532:src-gen/Main/core/reactor_common.c ****  * @param env Environment in which we are executing.
 533:src-gen/Main/core/reactor_common.c ****  */
 534:src-gen/Main/core/reactor_common.c **** void _lf_trigger_startup_reactions(environment_t* env) {
 535:src-gen/Main/core/reactor_common.c ****     assert(env != GLOBAL_ENVIRONMENT);
 536:src-gen/Main/core/reactor_common.c ****     for (int i = 0; i < env->startup_reactions_size; i++) {
 537:src-gen/Main/core/reactor_common.c ****         if (env->startup_reactions[i] != NULL) {
 538:src-gen/Main/core/reactor_common.c ****             if (env->startup_reactions[i]->mode != NULL) {
 539:src-gen/Main/core/reactor_common.c ****                 // Skip reactions in modes
 540:src-gen/Main/core/reactor_common.c ****                 continue;
 541:src-gen/Main/core/reactor_common.c ****             }
 542:src-gen/Main/core/reactor_common.c ****             _lf_trigger_reaction(env, env->startup_reactions[i], -1);
 543:src-gen/Main/core/reactor_common.c ****         }
 544:src-gen/Main/core/reactor_common.c ****     }
 545:src-gen/Main/core/reactor_common.c ****     #ifdef MODAL_REACTORS
 546:src-gen/Main/core/reactor_common.c ****     if (env->modes) {
ARM GAS  /var/folders/2h/lww79zv53b510qlyvytqnvq40000gn/T//ccDbZlJP.s 			page 13


 547:src-gen/Main/core/reactor_common.c ****         _lf_handle_mode_startup_reset_reactions(
 548:src-gen/Main/core/reactor_common.c ****             env,
 549:src-gen/Main/core/reactor_common.c ****             env->startup_reactions, env->startup_reactions_size,
 550:src-gen/Main/core/reactor_common.c ****             NULL, 0,
 551:src-gen/Main/core/reactor_common.c ****             env->modes->modal_reactor_states, env->modes->modal_reactor_states_size
 552:src-gen/Main/core/reactor_common.c ****         );
 553:src-gen/Main/core/reactor_common.c ****     }
 554:src-gen/Main/core/reactor_common.c ****     #endif
 555:src-gen/Main/core/reactor_common.c **** }
 556:src-gen/Main/core/reactor_common.c **** 
 557:src-gen/Main/core/reactor_common.c **** /**
 558:src-gen/Main/core/reactor_common.c ****  * @brief Trigger all the shutdown reactions in our environment
 559:src-gen/Main/core/reactor_common.c ****  * @param env Environment in which we are executing.
 560:src-gen/Main/core/reactor_common.c ****  */
 561:src-gen/Main/core/reactor_common.c **** void _lf_trigger_shutdown_reactions(environment_t *env) {
 562:src-gen/Main/core/reactor_common.c ****     assert(env != GLOBAL_ENVIRONMENT);
 563:src-gen/Main/core/reactor_common.c ****     for (int i = 0; i < env->shutdown_reactions_size; i++) {
 564:src-gen/Main/core/reactor_common.c ****         if (env->shutdown_reactions[i] != NULL) {
 565:src-gen/Main/core/reactor_common.c ****             if (env->shutdown_reactions[i]->mode != NULL) {
 566:src-gen/Main/core/reactor_common.c ****                 // Skip reactions in modes
 567:src-gen/Main/core/reactor_common.c ****                 continue;
 568:src-gen/Main/core/reactor_common.c ****             }
 569:src-gen/Main/core/reactor_common.c ****             _lf_trigger_reaction(env, env->shutdown_reactions[i], -1);
 570:src-gen/Main/core/reactor_common.c ****         }
 571:src-gen/Main/core/reactor_common.c ****     }
 572:src-gen/Main/core/reactor_common.c **** #ifdef MODAL_REACTORS
 573:src-gen/Main/core/reactor_common.c ****     if (env->modes) {
 574:src-gen/Main/core/reactor_common.c ****         _lf_handle_mode_shutdown_reactions(env, env->shutdown_reactions, env->shutdown_reactions_si
 575:src-gen/Main/core/reactor_common.c ****     }
 576:src-gen/Main/core/reactor_common.c **** #endif
 577:src-gen/Main/core/reactor_common.c **** }
 578:src-gen/Main/core/reactor_common.c **** 
 579:src-gen/Main/core/reactor_common.c **** /**
 580:src-gen/Main/core/reactor_common.c ****  * Recycle the given event.
 581:src-gen/Main/core/reactor_common.c ****  * Zero it out and pushed it onto the recycle queue.
 582:src-gen/Main/core/reactor_common.c ****  * @param env Environment in which we are executing.
 583:src-gen/Main/core/reactor_common.c ****  * @param e The event to recycle.
 584:src-gen/Main/core/reactor_common.c ****  */
 585:src-gen/Main/core/reactor_common.c **** void _lf_recycle_event(environment_t* env, event_t* e) {
 586:src-gen/Main/core/reactor_common.c ****     assert(env != GLOBAL_ENVIRONMENT);
 587:src-gen/Main/core/reactor_common.c ****     e->time = 0LL;
 588:src-gen/Main/core/reactor_common.c ****     e->trigger = NULL;
 589:src-gen/Main/core/reactor_common.c ****     e->pos = 0;
 590:src-gen/Main/core/reactor_common.c ****     e->token = NULL;
 591:src-gen/Main/core/reactor_common.c ****     e->is_dummy = false;
 592:src-gen/Main/core/reactor_common.c **** #ifdef FEDERATED_DECENTRALIZED
 593:src-gen/Main/core/reactor_common.c ****     e->intended_tag = (tag_t) { .time = NEVER, .microstep = 0u};
 594:src-gen/Main/core/reactor_common.c **** #endif
 595:src-gen/Main/core/reactor_common.c ****     e->next = NULL;
 596:src-gen/Main/core/reactor_common.c ****     pqueue_insert(env->recycle_q, e);
 597:src-gen/Main/core/reactor_common.c **** }
 598:src-gen/Main/core/reactor_common.c **** 
 599:src-gen/Main/core/reactor_common.c **** /**
 600:src-gen/Main/core/reactor_common.c ****  * Create dummy events to be used as spacers in the event queue.
 601:src-gen/Main/core/reactor_common.c ****  * @param env Environment in which we are executing.
 602:src-gen/Main/core/reactor_common.c ****  * @param trigger The eventual event to be triggered.
 603:src-gen/Main/core/reactor_common.c ****  * @param time The logical time of that event.
ARM GAS  /var/folders/2h/lww79zv53b510qlyvytqnvq40000gn/T//ccDbZlJP.s 			page 14


 604:src-gen/Main/core/reactor_common.c ****  * @param next The event to place after the dummy events.
 605:src-gen/Main/core/reactor_common.c ****  * @param offset The number of dummy events to insert.
 606:src-gen/Main/core/reactor_common.c ****  * @return A pointer to the first dummy event.
 607:src-gen/Main/core/reactor_common.c ****  */
 608:src-gen/Main/core/reactor_common.c **** event_t* _lf_create_dummy_events(environment_t* env, trigger_t* trigger, instant_t time, event_t* n
 609:src-gen/Main/core/reactor_common.c ****     event_t* first_dummy = _lf_get_new_event(env);
 610:src-gen/Main/core/reactor_common.c ****     event_t* dummy = first_dummy;
 611:src-gen/Main/core/reactor_common.c ****     dummy->time = time;
 612:src-gen/Main/core/reactor_common.c ****     dummy->is_dummy = true;
 613:src-gen/Main/core/reactor_common.c ****     dummy->trigger = trigger;
 614:src-gen/Main/core/reactor_common.c ****     while (offset > 0) {
 615:src-gen/Main/core/reactor_common.c ****         if (offset == 1) {
 616:src-gen/Main/core/reactor_common.c ****             dummy->next = next;
 617:src-gen/Main/core/reactor_common.c ****             break;
 618:src-gen/Main/core/reactor_common.c ****         }
 619:src-gen/Main/core/reactor_common.c ****         dummy->next = _lf_get_new_event(env);
 620:src-gen/Main/core/reactor_common.c ****         dummy = dummy->next;
 621:src-gen/Main/core/reactor_common.c ****         dummy->time = time;
 622:src-gen/Main/core/reactor_common.c ****         dummy->is_dummy = true;
 623:src-gen/Main/core/reactor_common.c ****         dummy->trigger = trigger;
 624:src-gen/Main/core/reactor_common.c ****         offset--;
 625:src-gen/Main/core/reactor_common.c ****     }
 626:src-gen/Main/core/reactor_common.c ****     return first_dummy;
 627:src-gen/Main/core/reactor_common.c **** }
 628:src-gen/Main/core/reactor_common.c **** 
 629:src-gen/Main/core/reactor_common.c **** /**
 630:src-gen/Main/core/reactor_common.c ****  * Replace the token on the specified event with the specified
 631:src-gen/Main/core/reactor_common.c ****  * token and free the old token.
 632:src-gen/Main/core/reactor_common.c ****  * @param event The event.
 633:src-gen/Main/core/reactor_common.c ****  * @param token The token.
 634:src-gen/Main/core/reactor_common.c ****  */
 635:src-gen/Main/core/reactor_common.c **** static void _lf_replace_token(event_t* event, lf_token_t* token) {
 120              		.loc 1 635 66 is_stmt 1 view -0
 121              		.cfi_startproc
 122              		@ args = 0, pretend = 0, frame = 0
 123              		@ frame_needed = 0, uses_anonymous_args = 0
 124              		.loc 1 635 66 is_stmt 0 view .LVU21
 125 0000 38B5     		push	{r3, r4, r5, lr}
 126              	.LCFI1:
 127              		.cfi_def_cfa_offset 16
 128              		.cfi_offset 3, -16
 129              		.cfi_offset 4, -12
 130              		.cfi_offset 5, -8
 131              		.cfi_offset 14, -4
 132 0002 0446     		mov	r4, r0
 133 0004 0D46     		mov	r5, r1
 636:src-gen/Main/core/reactor_common.c ****     if (event->token != token) {
 134              		.loc 1 636 5 is_stmt 1 view .LVU22
 135              		.loc 1 636 14 is_stmt 0 view .LVU23
 136 0006 0069     		ldr	r0, [r0, #16]
 137              	.LVL12:
 138              		.loc 1 636 8 view .LVU24
 139 0008 8842     		cmp	r0, r1
 140 000a 01D0     		beq	.L10
 637:src-gen/Main/core/reactor_common.c ****         // Free the existing token, if any.
 638:src-gen/Main/core/reactor_common.c ****         _lf_done_using(event->token);
 141              		.loc 1 638 9 is_stmt 1 view .LVU25
ARM GAS  /var/folders/2h/lww79zv53b510qlyvytqnvq40000gn/T//ccDbZlJP.s 			page 15


 142 000c FFF7FEFF 		bl	_lf_done_using
 143              	.LVL13:
 144              	.L10:
 639:src-gen/Main/core/reactor_common.c ****     }
 640:src-gen/Main/core/reactor_common.c ****     // Replace the token with ours.
 641:src-gen/Main/core/reactor_common.c ****     event->token = token;
 145              		.loc 1 641 5 view .LVU26
 146              		.loc 1 641 18 is_stmt 0 view .LVU27
 147 0010 2561     		str	r5, [r4, #16]
 642:src-gen/Main/core/reactor_common.c **** }
 148              		.loc 1 642 1 view .LVU28
 149 0012 38BD     		pop	{r3, r4, r5, pc}
 150              		.loc 1 642 1 view .LVU29
 151              		.cfi_endproc
 152              	.LFE151:
 154              		.section	.text._lf_allocate,"ax",%progbits
 155              		.align	1
 156              		.global	_lf_allocate
 157              		.syntax unified
 158              		.thumb
 159              		.thumb_func
 161              	_lf_allocate:
 162              	.LVL14:
 163              	.LFB133:
 130:src-gen/Main/core/reactor_common.c ****     void *mem = calloc(count, size);
 164              		.loc 1 130 71 is_stmt 1 view -0
 165              		.cfi_startproc
 166              		@ args = 0, pretend = 0, frame = 0
 167              		@ frame_needed = 0, uses_anonymous_args = 0
 130:src-gen/Main/core/reactor_common.c ****     void *mem = calloc(count, size);
 168              		.loc 1 130 71 is_stmt 0 view .LVU31
 169 0000 70B5     		push	{r4, r5, r6, lr}
 170              	.LCFI2:
 171              		.cfi_def_cfa_offset 16
 172              		.cfi_offset 4, -16
 173              		.cfi_offset 5, -12
 174              		.cfi_offset 6, -8
 175              		.cfi_offset 14, -4
 176 0002 1446     		mov	r4, r2
 131:src-gen/Main/core/reactor_common.c ****     if (mem == NULL) lf_print_error_and_exit("Out of memory!");
 177              		.loc 1 131 5 is_stmt 1 view .LVU32
 131:src-gen/Main/core/reactor_common.c ****     if (mem == NULL) lf_print_error_and_exit("Out of memory!");
 178              		.loc 1 131 17 is_stmt 0 view .LVU33
 179 0004 FFF7FEFF 		bl	calloc
 180              	.LVL15:
 132:src-gen/Main/core/reactor_common.c ****     if (head != NULL) {
 181              		.loc 1 132 5 is_stmt 1 view .LVU34
 132:src-gen/Main/core/reactor_common.c ****     if (head != NULL) {
 182              		.loc 1 132 8 is_stmt 0 view .LVU35
 183 0008 0546     		mov	r5, r0
 184 000a 60B1     		cbz	r0, .L17
 185              	.LVL16:
 186              	.L13:
 133:src-gen/Main/core/reactor_common.c ****         struct allocation_record_t* record
 187              		.loc 1 133 5 is_stmt 1 view .LVU36
 133:src-gen/Main/core/reactor_common.c ****         struct allocation_record_t* record
 188              		.loc 1 133 8 is_stmt 0 view .LVU37
ARM GAS  /var/folders/2h/lww79zv53b510qlyvytqnvq40000gn/T//ccDbZlJP.s 			page 16


 189 000c 4CB1     		cbz	r4, .L12
 190              	.LBB2:
 134:src-gen/Main/core/reactor_common.c ****                 = (allocation_record_t*)calloc(1, sizeof(allocation_record_t));
 191              		.loc 1 134 9 is_stmt 1 view .LVU38
 135:src-gen/Main/core/reactor_common.c ****         if (record == NULL) lf_print_error_and_exit("Out of memory!");
 192              		.loc 1 135 41 is_stmt 0 view .LVU39
 193 000e 0821     		movs	r1, #8
 194 0010 0120     		movs	r0, #1
 195 0012 FFF7FEFF 		bl	calloc
 196              	.LVL17:
 136:src-gen/Main/core/reactor_common.c ****         record->allocated = mem;
 197              		.loc 1 136 9 is_stmt 1 view .LVU40
 136:src-gen/Main/core/reactor_common.c ****         record->allocated = mem;
 198              		.loc 1 136 12 is_stmt 0 view .LVU41
 199 0016 0646     		mov	r6, r0
 200 0018 48B1     		cbz	r0, .L18
 201              	.LVL18:
 202              	.L15:
 137:src-gen/Main/core/reactor_common.c ****         allocation_record_t* tmp = *head; // Previous head of the list or NULL.
 203              		.loc 1 137 9 is_stmt 1 view .LVU42
 137:src-gen/Main/core/reactor_common.c ****         allocation_record_t* tmp = *head; // Previous head of the list or NULL.
 204              		.loc 1 137 27 is_stmt 0 view .LVU43
 205 001a 3560     		str	r5, [r6]
 138:src-gen/Main/core/reactor_common.c ****         *head = record;                   // New head of the list.
 206              		.loc 1 138 9 is_stmt 1 view .LVU44
 138:src-gen/Main/core/reactor_common.c ****         *head = record;                   // New head of the list.
 207              		.loc 1 138 30 is_stmt 0 view .LVU45
 208 001c 2368     		ldr	r3, [r4]
 209              	.LVL19:
 139:src-gen/Main/core/reactor_common.c ****         record->next = tmp;
 210              		.loc 1 139 9 is_stmt 1 view .LVU46
 139:src-gen/Main/core/reactor_common.c ****         record->next = tmp;
 211              		.loc 1 139 15 is_stmt 0 view .LVU47
 212 001e 2660     		str	r6, [r4]
 140:src-gen/Main/core/reactor_common.c ****     }
 213              		.loc 1 140 9 is_stmt 1 view .LVU48
 140:src-gen/Main/core/reactor_common.c ****     }
 214              		.loc 1 140 22 is_stmt 0 view .LVU49
 215 0020 7360     		str	r3, [r6, #4]
 216              	.LBE2:
 142:src-gen/Main/core/reactor_common.c **** }
 217              		.loc 1 142 5 is_stmt 1 view .LVU50
 218              	.LVL20:
 219              	.L12:
 143:src-gen/Main/core/reactor_common.c **** 
 220              		.loc 1 143 1 is_stmt 0 view .LVU51
 221 0022 2846     		mov	r0, r5
 222 0024 70BD     		pop	{r4, r5, r6, pc}
 223              	.LVL21:
 224              	.L17:
 132:src-gen/Main/core/reactor_common.c ****     if (head != NULL) {
 225              		.loc 1 132 22 is_stmt 1 discriminator 1 view .LVU52
 226 0026 0448     		ldr	r0, .L19
 227              	.LVL22:
 132:src-gen/Main/core/reactor_common.c ****     if (head != NULL) {
 228              		.loc 1 132 22 is_stmt 0 discriminator 1 view .LVU53
 229 0028 FFF7FEFF 		bl	lf_print_error_and_exit
ARM GAS  /var/folders/2h/lww79zv53b510qlyvytqnvq40000gn/T//ccDbZlJP.s 			page 17


 230              	.LVL23:
 231 002c EEE7     		b	.L13
 232              	.LVL24:
 233              	.L18:
 234              	.LBB3:
 136:src-gen/Main/core/reactor_common.c ****         record->allocated = mem;
 235              		.loc 1 136 29 is_stmt 1 discriminator 1 view .LVU54
 236 002e 0248     		ldr	r0, .L19
 237              	.LVL25:
 136:src-gen/Main/core/reactor_common.c ****         record->allocated = mem;
 238              		.loc 1 136 29 is_stmt 0 discriminator 1 view .LVU55
 239 0030 FFF7FEFF 		bl	lf_print_error_and_exit
 240              	.LVL26:
 241 0034 F1E7     		b	.L15
 242              	.L20:
 243 0036 00BF     		.align	2
 244              	.L19:
 245 0038 40000000 		.word	.LC2
 246              	.LBE3:
 247              		.cfi_endproc
 248              	.LFE133:
 250              		.section	.text._lf_new_reactor,"ax",%progbits
 251              		.align	1
 252              		.global	_lf_new_reactor
 253              		.syntax unified
 254              		.thumb
 255              		.thumb_func
 257              	_lf_new_reactor:
 258              	.LVL27:
 259              	.LFB134:
 158:src-gen/Main/core/reactor_common.c ****     return _lf_allocate(1, size, &_lf_reactors_to_free);
 260              		.loc 1 158 36 is_stmt 1 view -0
 261              		.cfi_startproc
 262              		@ args = 0, pretend = 0, frame = 0
 263              		@ frame_needed = 0, uses_anonymous_args = 0
 158:src-gen/Main/core/reactor_common.c ****     return _lf_allocate(1, size, &_lf_reactors_to_free);
 264              		.loc 1 158 36 is_stmt 0 view .LVU57
 265 0000 08B5     		push	{r3, lr}
 266              	.LCFI3:
 267              		.cfi_def_cfa_offset 8
 268              		.cfi_offset 3, -8
 269              		.cfi_offset 14, -4
 270 0002 0146     		mov	r1, r0
 159:src-gen/Main/core/reactor_common.c **** }
 271              		.loc 1 159 5 is_stmt 1 view .LVU58
 159:src-gen/Main/core/reactor_common.c **** }
 272              		.loc 1 159 12 is_stmt 0 view .LVU59
 273 0004 024A     		ldr	r2, .L23
 274 0006 0120     		movs	r0, #1
 275              	.LVL28:
 159:src-gen/Main/core/reactor_common.c **** }
 276              		.loc 1 159 12 view .LVU60
 277 0008 FFF7FEFF 		bl	_lf_allocate
 278              	.LVL29:
 160:src-gen/Main/core/reactor_common.c **** 
 279              		.loc 1 160 1 view .LVU61
 280 000c 08BD     		pop	{r3, pc}
ARM GAS  /var/folders/2h/lww79zv53b510qlyvytqnvq40000gn/T//ccDbZlJP.s 			page 18


 281              	.L24:
 282 000e 00BF     		.align	2
 283              	.L23:
 284 0010 00000000 		.word	_lf_reactors_to_free
 285              		.cfi_endproc
 286              	.LFE134:
 288              		.section	.text._lf_free,"ax",%progbits
 289              		.align	1
 290              		.global	_lf_free
 291              		.syntax unified
 292              		.thumb
 293              		.thumb_func
 295              	_lf_free:
 296              	.LVL30:
 297              	.LFB135:
 169:src-gen/Main/core/reactor_common.c ****     if (head == NULL) return;
 298              		.loc 1 169 50 is_stmt 1 view -0
 299              		.cfi_startproc
 300              		@ args = 0, pretend = 0, frame = 0
 301              		@ frame_needed = 0, uses_anonymous_args = 0
 170:src-gen/Main/core/reactor_common.c ****     struct allocation_record_t* record = *head;
 302              		.loc 1 170 5 view .LVU63
 170:src-gen/Main/core/reactor_common.c ****     struct allocation_record_t* record = *head;
 303              		.loc 1 170 8 is_stmt 0 view .LVU64
 304 0000 80B1     		cbz	r0, .L30
 169:src-gen/Main/core/reactor_common.c ****     if (head == NULL) return;
 305              		.loc 1 169 50 view .LVU65
 306 0002 70B5     		push	{r4, r5, r6, lr}
 307              	.LCFI4:
 308              		.cfi_def_cfa_offset 16
 309              		.cfi_offset 4, -16
 310              		.cfi_offset 5, -12
 311              		.cfi_offset 6, -8
 312              		.cfi_offset 14, -4
 313 0004 0646     		mov	r6, r0
 171:src-gen/Main/core/reactor_common.c ****     while (record != NULL) {
 314              		.loc 1 171 5 is_stmt 1 view .LVU66
 171:src-gen/Main/core/reactor_common.c ****     while (record != NULL) {
 315              		.loc 1 171 33 is_stmt 0 view .LVU67
 316 0006 0468     		ldr	r4, [r0]
 317              	.LVL31:
 172:src-gen/Main/core/reactor_common.c ****         LF_PRINT_DEBUG("Freeing memory at %p", record->allocated);
 318              		.loc 1 172 5 is_stmt 1 view .LVU68
 172:src-gen/Main/core/reactor_common.c ****         LF_PRINT_DEBUG("Freeing memory at %p", record->allocated);
 319              		.loc 1 172 11 is_stmt 0 view .LVU69
 320 0008 07E0     		b	.L27
 321              	.LVL32:
 322              	.L28:
 323              	.LBB4:
 173:src-gen/Main/core/reactor_common.c ****         free(record->allocated);
 324              		.loc 1 173 9 is_stmt 1 discriminator 3 view .LVU70
 173:src-gen/Main/core/reactor_common.c ****         free(record->allocated);
 325              		.loc 1 173 9 discriminator 3 view .LVU71
 173:src-gen/Main/core/reactor_common.c ****         free(record->allocated);
 326              		.loc 1 173 9 discriminator 3 view .LVU72
 174:src-gen/Main/core/reactor_common.c ****         struct allocation_record_t* tmp = record->next;
 327              		.loc 1 174 9 discriminator 3 view .LVU73
ARM GAS  /var/folders/2h/lww79zv53b510qlyvytqnvq40000gn/T//ccDbZlJP.s 			page 19


 328 000a 2068     		ldr	r0, [r4]
 329 000c FFF7FEFF 		bl	free
 330              	.LVL33:
 175:src-gen/Main/core/reactor_common.c ****     	LF_PRINT_DEBUG("Freeing allocation record at %p", record);
 331              		.loc 1 175 9 discriminator 3 view .LVU74
 175:src-gen/Main/core/reactor_common.c ****     	LF_PRINT_DEBUG("Freeing allocation record at %p", record);
 332              		.loc 1 175 37 is_stmt 0 discriminator 3 view .LVU75
 333 0010 6568     		ldr	r5, [r4, #4]
 334              	.LVL34:
 176:src-gen/Main/core/reactor_common.c ****         free(record);
 335              		.loc 1 176 6 is_stmt 1 discriminator 3 view .LVU76
 176:src-gen/Main/core/reactor_common.c ****         free(record);
 336              		.loc 1 176 6 discriminator 3 view .LVU77
 176:src-gen/Main/core/reactor_common.c ****         free(record);
 337              		.loc 1 176 6 discriminator 3 view .LVU78
 177:src-gen/Main/core/reactor_common.c ****         record = tmp;
 338              		.loc 1 177 9 discriminator 3 view .LVU79
 339 0012 2046     		mov	r0, r4
 340 0014 FFF7FEFF 		bl	free
 341              	.LVL35:
 178:src-gen/Main/core/reactor_common.c ****     }
 342              		.loc 1 178 9 discriminator 3 view .LVU80
 178:src-gen/Main/core/reactor_common.c ****     }
 343              		.loc 1 178 16 is_stmt 0 discriminator 3 view .LVU81
 344 0018 2C46     		mov	r4, r5
 345              	.LVL36:
 346              	.L27:
 178:src-gen/Main/core/reactor_common.c ****     }
 347              		.loc 1 178 16 discriminator 3 view .LVU82
 348              	.LBE4:
 172:src-gen/Main/core/reactor_common.c ****         LF_PRINT_DEBUG("Freeing memory at %p", record->allocated);
 349              		.loc 1 172 19 is_stmt 1 view .LVU83
 350 001a 002C     		cmp	r4, #0
 351 001c F5D1     		bne	.L28
 180:src-gen/Main/core/reactor_common.c **** }
 352              		.loc 1 180 5 view .LVU84
 180:src-gen/Main/core/reactor_common.c **** }
 353              		.loc 1 180 11 is_stmt 0 view .LVU85
 354 001e 0023     		movs	r3, #0
 355 0020 3360     		str	r3, [r6]
 181:src-gen/Main/core/reactor_common.c **** 
 356              		.loc 1 181 1 view .LVU86
 357 0022 70BD     		pop	{r4, r5, r6, pc}
 358              	.LVL37:
 359              	.L30:
 360              	.LCFI5:
 361              		.cfi_def_cfa_offset 0
 362              		.cfi_restore 4
 363              		.cfi_restore 5
 364              		.cfi_restore 6
 365              		.cfi_restore 14
 181:src-gen/Main/core/reactor_common.c **** 
 366              		.loc 1 181 1 view .LVU87
 367 0024 7047     		bx	lr
 368              		.cfi_endproc
 369              	.LFE135:
 371              		.section	.text._lf_free_reactor,"ax",%progbits
ARM GAS  /var/folders/2h/lww79zv53b510qlyvytqnvq40000gn/T//ccDbZlJP.s 			page 20


 372              		.align	1
 373              		.global	_lf_free_reactor
 374              		.syntax unified
 375              		.thumb
 376              		.thumb_func
 378              	_lf_free_reactor:
 379              	.LVL38:
 380              	.LFB136:
 188:src-gen/Main/core/reactor_common.c ****     _lf_free(&self->allocations);
 381              		.loc 1 188 42 is_stmt 1 view -0
 382              		.cfi_startproc
 383              		@ args = 0, pretend = 0, frame = 0
 384              		@ frame_needed = 0, uses_anonymous_args = 0
 188:src-gen/Main/core/reactor_common.c ****     _lf_free(&self->allocations);
 385              		.loc 1 188 42 is_stmt 0 view .LVU89
 386 0000 10B5     		push	{r4, lr}
 387              	.LCFI6:
 388              		.cfi_def_cfa_offset 8
 389              		.cfi_offset 4, -8
 390              		.cfi_offset 14, -4
 391 0002 0446     		mov	r4, r0
 189:src-gen/Main/core/reactor_common.c ****     free(self);
 392              		.loc 1 189 5 is_stmt 1 view .LVU90
 393 0004 FFF7FEFF 		bl	_lf_free
 394              	.LVL39:
 190:src-gen/Main/core/reactor_common.c **** }
 395              		.loc 1 190 5 view .LVU91
 396 0008 2046     		mov	r0, r4
 397 000a FFF7FEFF 		bl	free
 398              	.LVL40:
 191:src-gen/Main/core/reactor_common.c **** 
 399              		.loc 1 191 1 is_stmt 0 view .LVU92
 400 000e 10BD     		pop	{r4, pc}
 191:src-gen/Main/core/reactor_common.c **** 
 401              		.loc 1 191 1 view .LVU93
 402              		.cfi_endproc
 403              	.LFE136:
 405              		.section	.text._lf_free_all_reactors,"ax",%progbits
 406              		.align	1
 407              		.global	_lf_free_all_reactors
 408              		.syntax unified
 409              		.thumb
 410              		.thumb_func
 412              	_lf_free_all_reactors:
 413              	.LFB137:
 197:src-gen/Main/core/reactor_common.c ****     struct allocation_record_t* head = _lf_reactors_to_free;
 414              		.loc 1 197 34 is_stmt 1 view -0
 415              		.cfi_startproc
 416              		@ args = 0, pretend = 0, frame = 0
 417              		@ frame_needed = 0, uses_anonymous_args = 0
 418 0000 38B5     		push	{r3, r4, r5, lr}
 419              	.LCFI7:
 420              		.cfi_def_cfa_offset 16
 421              		.cfi_offset 3, -16
 422              		.cfi_offset 4, -12
 423              		.cfi_offset 5, -8
 424              		.cfi_offset 14, -4
ARM GAS  /var/folders/2h/lww79zv53b510qlyvytqnvq40000gn/T//ccDbZlJP.s 			page 21


 198:src-gen/Main/core/reactor_common.c ****     while (head != NULL) {
 425              		.loc 1 198 5 view .LVU95
 198:src-gen/Main/core/reactor_common.c ****     while (head != NULL) {
 426              		.loc 1 198 33 is_stmt 0 view .LVU96
 427 0002 084B     		ldr	r3, .L39
 428 0004 1C68     		ldr	r4, [r3]
 429              	.LVL41:
 199:src-gen/Main/core/reactor_common.c ****         _lf_free_reactor((self_base_t*)head->allocated);
 430              		.loc 1 199 5 is_stmt 1 view .LVU97
 199:src-gen/Main/core/reactor_common.c ****         _lf_free_reactor((self_base_t*)head->allocated);
 431              		.loc 1 199 11 is_stmt 0 view .LVU98
 432 0006 07E0     		b	.L36
 433              	.L37:
 434              	.LBB5:
 200:src-gen/Main/core/reactor_common.c ****         struct allocation_record_t* tmp = head->next;
 435              		.loc 1 200 9 is_stmt 1 view .LVU99
 436 0008 2068     		ldr	r0, [r4]
 437 000a FFF7FEFF 		bl	_lf_free_reactor
 438              	.LVL42:
 201:src-gen/Main/core/reactor_common.c ****         free(head);
 439              		.loc 1 201 9 view .LVU100
 201:src-gen/Main/core/reactor_common.c ****         free(head);
 440              		.loc 1 201 37 is_stmt 0 view .LVU101
 441 000e 6568     		ldr	r5, [r4, #4]
 442              	.LVL43:
 202:src-gen/Main/core/reactor_common.c ****         head = tmp;
 443              		.loc 1 202 9 is_stmt 1 view .LVU102
 444 0010 2046     		mov	r0, r4
 445 0012 FFF7FEFF 		bl	free
 446              	.LVL44:
 203:src-gen/Main/core/reactor_common.c ****     }
 447              		.loc 1 203 9 view .LVU103
 203:src-gen/Main/core/reactor_common.c ****     }
 448              		.loc 1 203 14 is_stmt 0 view .LVU104
 449 0016 2C46     		mov	r4, r5
 450              	.LVL45:
 451              	.L36:
 203:src-gen/Main/core/reactor_common.c ****     }
 452              		.loc 1 203 14 view .LVU105
 453              	.LBE5:
 199:src-gen/Main/core/reactor_common.c ****         _lf_free_reactor((self_base_t*)head->allocated);
 454              		.loc 1 199 17 is_stmt 1 view .LVU106
 455 0018 002C     		cmp	r4, #0
 456 001a F5D1     		bne	.L37
 205:src-gen/Main/core/reactor_common.c **** }
 457              		.loc 1 205 5 view .LVU107
 205:src-gen/Main/core/reactor_common.c **** }
 458              		.loc 1 205 26 is_stmt 0 view .LVU108
 459 001c 014B     		ldr	r3, .L39
 460 001e 0022     		movs	r2, #0
 461 0020 1A60     		str	r2, [r3]
 206:src-gen/Main/core/reactor_common.c **** 
 462              		.loc 1 206 1 view .LVU109
 463 0022 38BD     		pop	{r3, r4, r5, pc}
 464              	.LVL46:
 465              	.L40:
 206:src-gen/Main/core/reactor_common.c **** 
ARM GAS  /var/folders/2h/lww79zv53b510qlyvytqnvq40000gn/T//ccDbZlJP.s 			page 22


 466              		.loc 1 206 1 view .LVU110
 467              		.align	2
 468              	.L39:
 469 0024 00000000 		.word	_lf_reactors_to_free
 470              		.cfi_endproc
 471              	.LFE137:
 473              		.section	.text._lf_set_stop_tag,"ax",%progbits
 474              		.align	1
 475              		.global	_lf_set_stop_tag
 476              		.syntax unified
 477              		.thumb
 478              		.thumb_func
 480              	_lf_set_stop_tag:
 481              	.LVL47:
 482              	.LFB138:
 217:src-gen/Main/core/reactor_common.c ****     assert(env != GLOBAL_ENVIRONMENT);
 483              		.loc 1 217 54 is_stmt 1 view -0
 484              		.cfi_startproc
 485              		@ args = 16, pretend = 8, frame = 0
 486              		@ frame_needed = 0, uses_anonymous_args = 0
 217:src-gen/Main/core/reactor_common.c ****     assert(env != GLOBAL_ENVIRONMENT);
 487              		.loc 1 217 54 is_stmt 0 view .LVU112
 488 0000 82B0     		sub	sp, sp, #8
 489              	.LCFI8:
 490              		.cfi_def_cfa_offset 8
 491 0002 10B5     		push	{r4, lr}
 492              	.LCFI9:
 493              		.cfi_def_cfa_offset 16
 494              		.cfi_offset 4, -16
 495              		.cfi_offset 14, -12
 496 0004 84B0     		sub	sp, sp, #16
 497              	.LCFI10:
 498              		.cfi_def_cfa_offset 32
 499 0006 06A9     		add	r1, sp, #24
 500 0008 81E80C00 		stm	r1, {r2, r3}
 218:src-gen/Main/core/reactor_common.c ****     if (lf_tag_compare(tag, env->stop_tag) < 0) {
 501              		.loc 1 218 5 is_stmt 1 view .LVU113
 502 000c 80B1     		cbz	r0, .L45
 503 000e 0446     		mov	r4, r0
 219:src-gen/Main/core/reactor_common.c ****         env->stop_tag = tag;
 504              		.loc 1 219 5 view .LVU114
 219:src-gen/Main/core/reactor_common.c ****         env->stop_tag = tag;
 505              		.loc 1 219 9 is_stmt 0 view .LVU115
 506 0010 00F11803 		add	r3, r0, #24
 507 0014 0FCB     		ldm	r3, {r0, r1, r2, r3}
 508              	.LVL48:
 219:src-gen/Main/core/reactor_common.c ****         env->stop_tag = tag;
 509              		.loc 1 219 9 view .LVU116
 510 0016 8DE80F00 		stm	sp, {r0, r1, r2, r3}
 511 001a 06AB     		add	r3, sp, #24
 512 001c 0FCB     		ldm	r3, {r0, r1, r2, r3}
 513 001e FFF7FEFF 		bl	lf_tag_compare
 514              	.LVL49:
 219:src-gen/Main/core/reactor_common.c ****         env->stop_tag = tag;
 515              		.loc 1 219 8 view .LVU117
 516 0022 0028     		cmp	r0, #0
 517 0024 0ADB     		blt	.L46
ARM GAS  /var/folders/2h/lww79zv53b510qlyvytqnvq40000gn/T//ccDbZlJP.s 			page 23


 518              	.LVL50:
 519              	.L41:
 222:src-gen/Main/core/reactor_common.c **** 
 520              		.loc 1 222 1 view .LVU118
 521 0026 04B0     		add	sp, sp, #16
 522              	.LCFI11:
 523              		.cfi_remember_state
 524              		.cfi_def_cfa_offset 16
 525              		@ sp needed
 526 0028 BDE81040 		pop	{r4, lr}
 527              	.LCFI12:
 528              		.cfi_restore 14
 529              		.cfi_restore 4
 530              		.cfi_def_cfa_offset 8
 531 002c 02B0     		add	sp, sp, #8
 532              	.LCFI13:
 533              		.cfi_def_cfa_offset 0
 534 002e 7047     		bx	lr
 535              	.LVL51:
 536              	.L45:
 537              	.LCFI14:
 538              		.cfi_restore_state
 218:src-gen/Main/core/reactor_common.c ****     if (lf_tag_compare(tag, env->stop_tag) < 0) {
 539              		.loc 1 218 5 discriminator 1 view .LVU119
 540 0030 054B     		ldr	r3, .L47
 541 0032 064A     		ldr	r2, .L47+4
 542 0034 DA21     		movs	r1, #218
 543 0036 0648     		ldr	r0, .L47+8
 544              	.LVL52:
 218:src-gen/Main/core/reactor_common.c ****     if (lf_tag_compare(tag, env->stop_tag) < 0) {
 545              		.loc 1 218 5 discriminator 1 view .LVU120
 546 0038 FFF7FEFF 		bl	__assert_func
 547              	.LVL53:
 548              	.L46:
 220:src-gen/Main/core/reactor_common.c ****     }
 549              		.loc 1 220 9 is_stmt 1 view .LVU121
 220:src-gen/Main/core/reactor_common.c ****     }
 550              		.loc 1 220 23 is_stmt 0 view .LVU122
 551 003c 1834     		adds	r4, r4, #24
 552              	.LVL54:
 220:src-gen/Main/core/reactor_common.c ****     }
 553              		.loc 1 220 23 view .LVU123
 554 003e 06AB     		add	r3, sp, #24
 555 0040 0FCB     		ldm	r3, {r0, r1, r2, r3}
 556 0042 84E80F00 		stm	r4, {r0, r1, r2, r3}
 222:src-gen/Main/core/reactor_common.c **** 
 557              		.loc 1 222 1 view .LVU124
 558 0046 EEE7     		b	.L41
 559              	.L48:
 560              		.align	2
 561              	.L47:
 562 0048 00000000 		.word	.LC0
 563 004c 00000000 		.word	__func__.15
 564 0050 1C000000 		.word	.LC1
 565              		.cfi_endproc
 566              	.LFE138:
 568              		.section	.text.lf_get_stp_offset,"ax",%progbits
ARM GAS  /var/folders/2h/lww79zv53b510qlyvytqnvq40000gn/T//ccDbZlJP.s 			page 24


 569              		.align	1
 570              		.global	lf_get_stp_offset
 571              		.syntax unified
 572              		.thumb
 573              		.thumb_func
 575              	lf_get_stp_offset:
 576              	.LFB139:
 231:src-gen/Main/core/reactor_common.c ****     return _lf_fed_STA_offset;
 577              		.loc 1 231 32 is_stmt 1 view -0
 578              		.cfi_startproc
 579              		@ args = 0, pretend = 0, frame = 0
 580              		@ frame_needed = 0, uses_anonymous_args = 0
 581              		@ link register save eliminated.
 232:src-gen/Main/core/reactor_common.c **** }
 582              		.loc 1 232 5 view .LVU126
 233:src-gen/Main/core/reactor_common.c **** 
 583              		.loc 1 233 1 is_stmt 0 view .LVU127
 584 0000 014B     		ldr	r3, .L50
 585 0002 D3E90001 		ldrd	r0, [r3]
 586 0006 7047     		bx	lr
 587              	.L51:
 588              		.align	2
 589              	.L50:
 590 0008 00000000 		.word	_lf_fed_STA_offset
 591              		.cfi_endproc
 592              	.LFE139:
 594              		.section	.text.lf_set_stp_offset,"ax",%progbits
 595              		.align	1
 596              		.global	lf_set_stp_offset
 597              		.syntax unified
 598              		.thumb
 599              		.thumb_func
 601              	lf_set_stp_offset:
 602              	.LVL55:
 603              	.LFB140:
 242:src-gen/Main/core/reactor_common.c ****     if (offset > 0LL) {
 604              		.loc 1 242 43 is_stmt 1 view -0
 605              		.cfi_startproc
 606              		@ args = 0, pretend = 0, frame = 0
 607              		@ frame_needed = 0, uses_anonymous_args = 0
 608              		@ link register save eliminated.
 243:src-gen/Main/core/reactor_common.c ****         _lf_fed_STA_offset = offset;
 609              		.loc 1 243 5 view .LVU129
 243:src-gen/Main/core/reactor_common.c ****         _lf_fed_STA_offset = offset;
 610              		.loc 1 243 8 is_stmt 0 view .LVU130
 611 0000 0128     		cmp	r0, #1
 612 0002 71F10003 		sbcs	r3, r1, #0
 613 0006 02DB     		blt	.L52
 244:src-gen/Main/core/reactor_common.c ****     }
 614              		.loc 1 244 9 is_stmt 1 view .LVU131
 244:src-gen/Main/core/reactor_common.c ****     }
 615              		.loc 1 244 28 is_stmt 0 view .LVU132
 616 0008 014B     		ldr	r3, .L54
 617 000a 1860     		str	r0, [r3]
 618 000c 5960     		str	r1, [r3, #4]
 619              	.L52:
 246:src-gen/Main/core/reactor_common.c **** 
ARM GAS  /var/folders/2h/lww79zv53b510qlyvytqnvq40000gn/T//ccDbZlJP.s 			page 25


 620              		.loc 1 246 1 view .LVU133
 621 000e 7047     		bx	lr
 622              	.L55:
 623              		.align	2
 624              	.L54:
 625 0010 00000000 		.word	_lf_fed_STA_offset
 626              		.cfi_endproc
 627              	.LFE140:
 629              		.section	.text._lf_start_time_step,"ax",%progbits
 630              		.align	1
 631              		.global	_lf_start_time_step
 632              		.syntax unified
 633              		.thumb
 634              		.thumb_func
 636              	_lf_start_time_step:
 637              	.LVL56:
 638              	.LFB141:
 267:src-gen/Main/core/reactor_common.c ****     assert(env != GLOBAL_ENVIRONMENT);
 639              		.loc 1 267 46 is_stmt 1 view -0
 640              		.cfi_startproc
 641              		@ args = 0, pretend = 0, frame = 0
 642              		@ frame_needed = 0, uses_anonymous_args = 0
 267:src-gen/Main/core/reactor_common.c ****     assert(env != GLOBAL_ENVIRONMENT);
 643              		.loc 1 267 46 is_stmt 0 view .LVU135
 644 0000 70B5     		push	{r4, r5, r6, lr}
 645              	.LCFI15:
 646              		.cfi_def_cfa_offset 16
 647              		.cfi_offset 4, -16
 648              		.cfi_offset 5, -12
 649              		.cfi_offset 6, -8
 650              		.cfi_offset 14, -4
 268:src-gen/Main/core/reactor_common.c ****     LF_PRINT_LOG("--------- Start time step at tag " PRINTF_TAG ".", env->current_tag.time - start_
 651              		.loc 1 268 5 is_stmt 1 view .LVU136
 652 0002 58B1     		cbz	r0, .L67
 653 0004 0646     		mov	r6, r0
 269:src-gen/Main/core/reactor_common.c ****     // Handle dynamically created tokens for mutable inputs.
 654              		.loc 1 269 5 discriminator 3 view .LVU137
 269:src-gen/Main/core/reactor_common.c ****     // Handle dynamically created tokens for mutable inputs.
 655              		.loc 1 269 5 discriminator 3 view .LVU138
 269:src-gen/Main/core/reactor_common.c ****     // Handle dynamically created tokens for mutable inputs.
 656              		.loc 1 269 5 discriminator 3 view .LVU139
 271:src-gen/Main/core/reactor_common.c **** 
 657              		.loc 1 271 5 discriminator 3 view .LVU140
 658 0006 FFF7FEFF 		bl	_lf_free_token_copies
 659              	.LVL57:
 273:src-gen/Main/core/reactor_common.c ****     int size = env->is_present_fields_abbreviated_size;
 660              		.loc 1 273 5 discriminator 3 view .LVU141
 273:src-gen/Main/core/reactor_common.c ****     int size = env->is_present_fields_abbreviated_size;
 661              		.loc 1 273 12 is_stmt 0 discriminator 3 view .LVU142
 662 000a F46B     		ldr	r4, [r6, #60]
 663              	.LVL58:
 274:src-gen/Main/core/reactor_common.c ****     if (env->is_present_fields_abbreviated_size > env->is_present_fields_size) {
 664              		.loc 1 274 5 is_stmt 1 discriminator 3 view .LVU143
 274:src-gen/Main/core/reactor_common.c ****     if (env->is_present_fields_abbreviated_size > env->is_present_fields_size) {
 665              		.loc 1 274 9 is_stmt 0 discriminator 3 view .LVU144
 666 000c 306C     		ldr	r0, [r6, #64]
 667              	.LVL59:
ARM GAS  /var/folders/2h/lww79zv53b510qlyvytqnvq40000gn/T//ccDbZlJP.s 			page 26


 275:src-gen/Main/core/reactor_common.c ****         size = env->is_present_fields_size;
 668              		.loc 1 275 5 is_stmt 1 discriminator 3 view .LVU145
 275:src-gen/Main/core/reactor_common.c ****         size = env->is_present_fields_size;
 669              		.loc 1 275 54 is_stmt 0 discriminator 3 view .LVU146
 670 000e B36B     		ldr	r3, [r6, #56]
 275:src-gen/Main/core/reactor_common.c ****         size = env->is_present_fields_size;
 671              		.loc 1 275 8 discriminator 3 view .LVU147
 672 0010 8342     		cmp	r3, r0
 673 0012 01DA     		bge	.L58
 276:src-gen/Main/core/reactor_common.c ****         is_present_fields = env->is_present_fields;
 674              		.loc 1 276 9 is_stmt 1 view .LVU148
 675              	.LVL60:
 277:src-gen/Main/core/reactor_common.c ****     }
 676              		.loc 1 277 9 view .LVU149
 277:src-gen/Main/core/reactor_common.c ****     }
 677              		.loc 1 277 27 is_stmt 0 view .LVU150
 678 0014 746B     		ldr	r4, [r6, #52]
 679              	.LVL61:
 276:src-gen/Main/core/reactor_common.c ****         is_present_fields = env->is_present_fields;
 680              		.loc 1 276 14 view .LVU151
 681 0016 1846     		mov	r0, r3
 682              	.LVL62:
 683              	.L58:
 279:src-gen/Main/core/reactor_common.c ****         *is_present_fields[i] = false;
 684              		.loc 1 279 5 is_stmt 1 view .LVU152
 685              	.LBB6:
 279:src-gen/Main/core/reactor_common.c ****         *is_present_fields[i] = false;
 686              		.loc 1 279 9 view .LVU153
 279:src-gen/Main/core/reactor_common.c ****         *is_present_fields[i] = false;
 687              		.loc 1 279 13 is_stmt 0 view .LVU154
 688 0018 0023     		movs	r3, #0
 279:src-gen/Main/core/reactor_common.c ****         *is_present_fields[i] = false;
 689              		.loc 1 279 5 view .LVU155
 690 001a 0BE0     		b	.L59
 691              	.LVL63:
 692              	.L67:
 279:src-gen/Main/core/reactor_common.c ****         *is_present_fields[i] = false;
 693              		.loc 1 279 5 view .LVU156
 694              	.LBE6:
 268:src-gen/Main/core/reactor_common.c ****     LF_PRINT_LOG("--------- Start time step at tag " PRINTF_TAG ".", env->current_tag.time - start_
 695              		.loc 1 268 5 discriminator 1 view .LVU157
 696 001c 144B     		ldr	r3, .L68
 697 001e 154A     		ldr	r2, .L68+4
 698 0020 4FF48671 		mov	r1, #268
 699 0024 1448     		ldr	r0, .L68+8
 700              	.LVL64:
 268:src-gen/Main/core/reactor_common.c ****     LF_PRINT_LOG("--------- Start time step at tag " PRINTF_TAG ".", env->current_tag.time - start_
 701              		.loc 1 268 5 discriminator 1 view .LVU158
 702 0026 FFF7FEFF 		bl	__assert_func
 703              	.LVL65:
 704              	.L60:
 705              	.LBB7:
 280:src-gen/Main/core/reactor_common.c ****     }
 706              		.loc 1 280 9 is_stmt 1 discriminator 3 view .LVU159
 280:src-gen/Main/core/reactor_common.c ****     }
 707              		.loc 1 280 27 is_stmt 0 discriminator 3 view .LVU160
 708 002a 54F82320 		ldr	r2, [r4, r3, lsl #2]
ARM GAS  /var/folders/2h/lww79zv53b510qlyvytqnvq40000gn/T//ccDbZlJP.s 			page 27


 280:src-gen/Main/core/reactor_common.c ****     }
 709              		.loc 1 280 31 discriminator 3 view .LVU161
 710 002e 0021     		movs	r1, #0
 711 0030 1170     		strb	r1, [r2]
 279:src-gen/Main/core/reactor_common.c ****         *is_present_fields[i] = false;
 712              		.loc 1 279 31 is_stmt 1 discriminator 3 view .LVU162
 713 0032 0133     		adds	r3, r3, #1
 714              	.LVL66:
 715              	.L59:
 279:src-gen/Main/core/reactor_common.c ****         *is_present_fields[i] = false;
 716              		.loc 1 279 22 discriminator 1 view .LVU163
 717 0034 9842     		cmp	r0, r3
 718 0036 F8DC     		bgt	.L60
 719              	.LBE7:
 283:src-gen/Main/core/reactor_common.c ****         for (size_t i = 0; i < vector_size(&env->sparse_io_record_sizes); i++) {
 720              		.loc 1 283 5 view .LVU164
 283:src-gen/Main/core/reactor_common.c ****         for (size_t i = 0; i < vector_size(&env->sparse_io_record_sizes); i++) {
 721              		.loc 1 283 36 is_stmt 0 view .LVU165
 722 0038 736C     		ldr	r3, [r6, #68]
 723              	.LVL67:
 283:src-gen/Main/core/reactor_common.c ****         for (size_t i = 0; i < vector_size(&env->sparse_io_record_sizes); i++) {
 724              		.loc 1 283 8 view .LVU166
 725 003a ABB1     		cbz	r3, .L62
 726              	.LBB8:
 284:src-gen/Main/core/reactor_common.c ****             // NOTE: vector_at does not return the element at
 727              		.loc 1 284 21 view .LVU167
 728 003c 0024     		movs	r4, #0
 729              	.LVL68:
 284:src-gen/Main/core/reactor_common.c ****             // NOTE: vector_at does not return the element at
 730              		.loc 1 284 21 view .LVU168
 731 003e 00E0     		b	.L61
 732              	.LVL69:
 733              	.L63:
 284:src-gen/Main/core/reactor_common.c ****             // NOTE: vector_at does not return the element at
 734              		.loc 1 284 76 is_stmt 1 discriminator 2 view .LVU169
 735 0040 0134     		adds	r4, r4, #1
 736              	.LVL70:
 737              	.L61:
 284:src-gen/Main/core/reactor_common.c ****             // NOTE: vector_at does not return the element at
 738              		.loc 1 284 30 discriminator 1 view .LVU170
 284:src-gen/Main/core/reactor_common.c ****             // NOTE: vector_at does not return the element at
 739              		.loc 1 284 32 is_stmt 0 discriminator 1 view .LVU171
 740 0042 06F14405 		add	r5, r6, #68
 741 0046 2846     		mov	r0, r5
 742 0048 FFF7FEFF 		bl	vector_size
 743              	.LVL71:
 284:src-gen/Main/core/reactor_common.c ****             // NOTE: vector_at does not return the element at
 744              		.loc 1 284 30 discriminator 1 view .LVU172
 745 004c 8442     		cmp	r4, r0
 746 004e 0BD2     		bcs	.L62
 747              	.LBB9:
 288:src-gen/Main/core/reactor_common.c ****             if (sizep != NULL && *sizep != NULL) {
 748              		.loc 1 288 13 is_stmt 1 view .LVU173
 288:src-gen/Main/core/reactor_common.c ****             if (sizep != NULL && *sizep != NULL) {
 749              		.loc 1 288 34 is_stmt 0 view .LVU174
 750 0050 2146     		mov	r1, r4
 751 0052 2846     		mov	r0, r5
ARM GAS  /var/folders/2h/lww79zv53b510qlyvytqnvq40000gn/T//ccDbZlJP.s 			page 28


 752 0054 FFF7FEFF 		bl	vector_at
 753              	.LVL72:
 289:src-gen/Main/core/reactor_common.c ****                 **sizep = 0;
 754              		.loc 1 289 13 is_stmt 1 view .LVU175
 289:src-gen/Main/core/reactor_common.c ****                 **sizep = 0;
 755              		.loc 1 289 16 is_stmt 0 view .LVU176
 756 0058 0028     		cmp	r0, #0
 757 005a F1D0     		beq	.L63
 289:src-gen/Main/core/reactor_common.c ****                 **sizep = 0;
 758              		.loc 1 289 34 discriminator 1 view .LVU177
 759 005c 0368     		ldr	r3, [r0]
 289:src-gen/Main/core/reactor_common.c ****                 **sizep = 0;
 760              		.loc 1 289 31 discriminator 1 view .LVU178
 761 005e 002B     		cmp	r3, #0
 762 0060 EED0     		beq	.L63
 290:src-gen/Main/core/reactor_common.c ****             }
 763              		.loc 1 290 17 is_stmt 1 view .LVU179
 290:src-gen/Main/core/reactor_common.c ****             }
 764              		.loc 1 290 25 is_stmt 0 view .LVU180
 765 0062 0022     		movs	r2, #0
 766 0064 1A60     		str	r2, [r3]
 767 0066 EBE7     		b	.L63
 768              	.LVL73:
 769              	.L62:
 290:src-gen/Main/core/reactor_common.c ****             }
 770              		.loc 1 290 25 view .LVU181
 771              	.LBE9:
 772              	.LBE8:
 309:src-gen/Main/core/reactor_common.c **** }
 773              		.loc 1 309 5 is_stmt 1 view .LVU182
 309:src-gen/Main/core/reactor_common.c **** }
 774              		.loc 1 309 45 is_stmt 0 view .LVU183
 775 0068 0023     		movs	r3, #0
 776 006a 3364     		str	r3, [r6, #64]
 310:src-gen/Main/core/reactor_common.c **** 
 777              		.loc 1 310 1 view .LVU184
 778 006c 70BD     		pop	{r4, r5, r6, pc}
 779              	.LVL74:
 780              	.L69:
 310:src-gen/Main/core/reactor_common.c **** 
 781              		.loc 1 310 1 view .LVU185
 782 006e 00BF     		.align	2
 783              	.L68:
 784 0070 00000000 		.word	.LC0
 785 0074 00000000 		.word	__func__.14
 786 0078 1C000000 		.word	.LC1
 787              		.cfi_endproc
 788              	.LFE141:
 790              		.section	.text._lf_is_tag_after_stop_tag,"ax",%progbits
 791              		.align	1
 792              		.global	_lf_is_tag_after_stop_tag
 793              		.syntax unified
 794              		.thumb
 795              		.thumb_func
 797              	_lf_is_tag_after_stop_tag:
 798              	.LVL75:
 799              	.LFB142:
ARM GAS  /var/folders/2h/lww79zv53b510qlyvytqnvq40000gn/T//ccDbZlJP.s 			page 29


 318:src-gen/Main/core/reactor_common.c ****     assert(env != GLOBAL_ENVIRONMENT);
 800              		.loc 1 318 63 is_stmt 1 view -0
 801              		.cfi_startproc
 802              		@ args = 16, pretend = 8, frame = 0
 803              		@ frame_needed = 0, uses_anonymous_args = 0
 318:src-gen/Main/core/reactor_common.c ****     assert(env != GLOBAL_ENVIRONMENT);
 804              		.loc 1 318 63 is_stmt 0 view .LVU187
 805 0000 82B0     		sub	sp, sp, #8
 806              	.LCFI16:
 807              		.cfi_def_cfa_offset 8
 808 0002 00B5     		push	{lr}
 809              	.LCFI17:
 810              		.cfi_def_cfa_offset 12
 811              		.cfi_offset 14, -12
 812 0004 85B0     		sub	sp, sp, #20
 813              	.LCFI18:
 814              		.cfi_def_cfa_offset 32
 815 0006 06A9     		add	r1, sp, #24
 816 0008 81E80C00 		stm	r1, {r2, r3}
 319:src-gen/Main/core/reactor_common.c ****     return (lf_tag_compare(tag, env->stop_tag) > 0);
 817              		.loc 1 319 5 is_stmt 1 view .LVU188
 818 000c 88B1     		cbz	r0, .L73
 819 000e 0346     		mov	r3, r0
 320:src-gen/Main/core/reactor_common.c **** }
 820              		.loc 1 320 5 view .LVU189
 320:src-gen/Main/core/reactor_common.c **** }
 821              		.loc 1 320 13 is_stmt 0 view .LVU190
 822 0010 1833     		adds	r3, r3, #24
 823 0012 0FCB     		ldm	r3, {r0, r1, r2, r3}
 824              	.LVL76:
 320:src-gen/Main/core/reactor_common.c **** }
 825              		.loc 1 320 13 view .LVU191
 826 0014 8DE80F00 		stm	sp, {r0, r1, r2, r3}
 827 0018 06AB     		add	r3, sp, #24
 828 001a 0FCB     		ldm	r3, {r0, r1, r2, r3}
 829 001c FFF7FEFF 		bl	lf_tag_compare
 830              	.LVL77:
 321:src-gen/Main/core/reactor_common.c **** 
 831              		.loc 1 321 1 view .LVU192
 832 0020 0028     		cmp	r0, #0
 833 0022 D4BF     		ite	le
 834 0024 0020     		movle	r0, #0
 835 0026 0120     		movgt	r0, #1
 836 0028 05B0     		add	sp, sp, #20
 837              	.LCFI19:
 838              		.cfi_remember_state
 839              		.cfi_def_cfa_offset 12
 840              		@ sp needed
 841 002a 5DF804EB 		ldr	lr, [sp], #4
 842              	.LCFI20:
 843              		.cfi_restore 14
 844              		.cfi_def_cfa_offset 8
 845 002e 02B0     		add	sp, sp, #8
 846              	.LCFI21:
 847              		.cfi_def_cfa_offset 0
 848 0030 7047     		bx	lr
 849              	.LVL78:
ARM GAS  /var/folders/2h/lww79zv53b510qlyvytqnvq40000gn/T//ccDbZlJP.s 			page 30


 850              	.L73:
 851              	.LCFI22:
 852              		.cfi_restore_state
 319:src-gen/Main/core/reactor_common.c ****     return (lf_tag_compare(tag, env->stop_tag) > 0);
 853              		.loc 1 319 5 discriminator 1 view .LVU193
 854 0032 034B     		ldr	r3, .L74
 855 0034 034A     		ldr	r2, .L74+4
 856 0036 40F23F11 		movw	r1, #319
 857 003a 0348     		ldr	r0, .L74+8
 858              	.LVL79:
 319:src-gen/Main/core/reactor_common.c ****     return (lf_tag_compare(tag, env->stop_tag) > 0);
 859              		.loc 1 319 5 discriminator 1 view .LVU194
 860 003c FFF7FEFF 		bl	__assert_func
 861              	.LVL80:
 862              	.L75:
 863              		.align	2
 864              	.L74:
 865 0040 00000000 		.word	.LC0
 866 0044 00000000 		.word	__func__.13
 867 0048 1C000000 		.word	.LC1
 868              		.cfi_endproc
 869              	.LFE142:
 871              		.section	.text._lf_initialize_timer,"ax",%progbits
 872              		.align	1
 873              		.global	_lf_initialize_timer
 874              		.syntax unified
 875              		.thumb
 876              		.thumb_func
 878              	_lf_initialize_timer:
 879              	.LVL81:
 880              	.LFB145:
 474:src-gen/Main/core/reactor_common.c ****     assert(env != GLOBAL_ENVIRONMENT);
 881              		.loc 1 474 65 is_stmt 1 view -0
 882              		.cfi_startproc
 883              		@ args = 0, pretend = 0, frame = 0
 884              		@ frame_needed = 0, uses_anonymous_args = 0
 474:src-gen/Main/core/reactor_common.c ****     assert(env != GLOBAL_ENVIRONMENT);
 885              		.loc 1 474 65 is_stmt 0 view .LVU196
 886 0000 2DE9F041 		push	{r4, r5, r6, r7, r8, lr}
 887              	.LCFI23:
 888              		.cfi_def_cfa_offset 24
 889              		.cfi_offset 4, -24
 890              		.cfi_offset 5, -20
 891              		.cfi_offset 6, -16
 892              		.cfi_offset 7, -12
 893              		.cfi_offset 8, -8
 894              		.cfi_offset 14, -4
 475:src-gen/Main/core/reactor_common.c ****     interval_t delay = 0;
 895              		.loc 1 475 5 is_stmt 1 view .LVU197
 896 0004 48B1     		cbz	r0, .L84
 897 0006 0D46     		mov	r5, r1
 898 0008 0646     		mov	r6, r0
 476:src-gen/Main/core/reactor_common.c **** 
 899              		.loc 1 476 5 view .LVU198
 900              	.LVL82:
 491:src-gen/Main/core/reactor_common.c ****         for (int i = 0; i < timer->number_of_reactions; i++) {
 901              		.loc 1 491 5 view .LVU199
ARM GAS  /var/folders/2h/lww79zv53b510qlyvytqnvq40000gn/T//ccDbZlJP.s 			page 31


 491:src-gen/Main/core/reactor_common.c ****         for (int i = 0; i < timer->number_of_reactions; i++) {
 902              		.loc 1 491 14 is_stmt 0 view .LVU200
 903 000a D1F82080 		ldr	r8, [r1, #32]
 904 000e 4C6A     		ldr	r4, [r1, #36]
 491:src-gen/Main/core/reactor_common.c ****         for (int i = 0; i < timer->number_of_reactions; i++) {
 905              		.loc 1 491 8 view .LVU201
 906 0010 58EA0403 		orrs	r3, r8, r4
 907 0014 1AD1     		bne	.L79
 908              	.LBB10:
 492:src-gen/Main/core/reactor_common.c ****             _lf_trigger_reaction(env, timer->reactions[i], -1);
 909              		.loc 1 492 18 view .LVU202
 910 0016 0024     		movs	r4, #0
 911 0018 0FE0     		b	.L78
 912              	.LVL83:
 913              	.L84:
 492:src-gen/Main/core/reactor_common.c ****             _lf_trigger_reaction(env, timer->reactions[i], -1);
 914              		.loc 1 492 18 view .LVU203
 915              	.LBE10:
 475:src-gen/Main/core/reactor_common.c ****     interval_t delay = 0;
 916              		.loc 1 475 5 discriminator 1 view .LVU204
 917 001a 164B     		ldr	r3, .L85
 918 001c 164A     		ldr	r2, .L85+4
 919 001e 40F2DB11 		movw	r1, #475
 920              	.LVL84:
 475:src-gen/Main/core/reactor_common.c ****     interval_t delay = 0;
 921              		.loc 1 475 5 discriminator 1 view .LVU205
 922 0022 1648     		ldr	r0, .L85+8
 923              	.LVL85:
 475:src-gen/Main/core/reactor_common.c ****     interval_t delay = 0;
 924              		.loc 1 475 5 discriminator 1 view .LVU206
 925 0024 FFF7FEFF 		bl	__assert_func
 926              	.LVL86:
 927              	.L80:
 928              	.LBB11:
 493:src-gen/Main/core/reactor_common.c ****             tracepoint_schedule(env->trace, timer, 0LL); // Trace even though schedule is not calle
 929              		.loc 1 493 13 is_stmt 1 discriminator 3 view .LVU207
 493:src-gen/Main/core/reactor_common.c ****             tracepoint_schedule(env->trace, timer, 0LL); // Trace even though schedule is not calle
 930              		.loc 1 493 44 is_stmt 0 discriminator 3 view .LVU208
 931 0028 6B69     		ldr	r3, [r5, #20]
 493:src-gen/Main/core/reactor_common.c ****             tracepoint_schedule(env->trace, timer, 0LL); // Trace even though schedule is not calle
 932              		.loc 1 493 13 discriminator 3 view .LVU209
 933 002a 4FF0FF32 		mov	r2, #-1
 934 002e 53F82410 		ldr	r1, [r3, r4, lsl #2]
 935 0032 3046     		mov	r0, r6
 936 0034 FFF7FEFF 		bl	_lf_trigger_reaction
 937              	.LVL87:
 494:src-gen/Main/core/reactor_common.c ****         }
 938              		.loc 1 494 56 is_stmt 1 discriminator 3 view .LVU210
 492:src-gen/Main/core/reactor_common.c ****             _lf_trigger_reaction(env, timer->reactions[i], -1);
 939              		.loc 1 492 58 discriminator 3 view .LVU211
 940 0038 0134     		adds	r4, r4, #1
 941              	.LVL88:
 942              	.L78:
 492:src-gen/Main/core/reactor_common.c ****             _lf_trigger_reaction(env, timer->reactions[i], -1);
 943              		.loc 1 492 27 discriminator 1 view .LVU212
 492:src-gen/Main/core/reactor_common.c ****             _lf_trigger_reaction(env, timer->reactions[i], -1);
 944              		.loc 1 492 34 is_stmt 0 discriminator 1 view .LVU213
ARM GAS  /var/folders/2h/lww79zv53b510qlyvytqnvq40000gn/T//ccDbZlJP.s 			page 32


 945 003a AB69     		ldr	r3, [r5, #24]
 492:src-gen/Main/core/reactor_common.c ****             _lf_trigger_reaction(env, timer->reactions[i], -1);
 946              		.loc 1 492 27 discriminator 1 view .LVU214
 947 003c A342     		cmp	r3, r4
 948 003e F3DC     		bgt	.L80
 949              	.LBE11:
 496:src-gen/Main/core/reactor_common.c ****             return;
 950              		.loc 1 496 9 is_stmt 1 view .LVU215
 496:src-gen/Main/core/reactor_common.c ****             return;
 951              		.loc 1 496 18 is_stmt 0 view .LVU216
 952 0040 D5F82880 		ldr	r8, [r5, #40]
 953 0044 EC6A     		ldr	r4, [r5, #44]
 954              	.LVL89:
 496:src-gen/Main/core/reactor_common.c ****             return;
 955              		.loc 1 496 12 view .LVU217
 956 0046 58EA0403 		orrs	r3, r8, r4
 957 004a 11D0     		beq	.L76
 958              	.LVL90:
 959              	.L79:
 509:src-gen/Main/core/reactor_common.c ****     e->trigger = timer;
 960              		.loc 1 509 5 is_stmt 1 view .LVU218
 509:src-gen/Main/core/reactor_common.c ****     e->trigger = timer;
 961              		.loc 1 509 18 is_stmt 0 view .LVU219
 962 004c 3046     		mov	r0, r6
 963 004e FFF7FEFF 		bl	_lf_get_new_event
 964              	.LVL91:
 965 0052 0746     		mov	r7, r0
 966              	.LVL92:
 510:src-gen/Main/core/reactor_common.c ****     e->time = lf_time_logical(env) + delay;
 967              		.loc 1 510 5 is_stmt 1 view .LVU220
 510:src-gen/Main/core/reactor_common.c ****     e->time = lf_time_logical(env) + delay;
 968              		.loc 1 510 16 is_stmt 0 view .LVU221
 969 0054 8560     		str	r5, [r0, #8]
 511:src-gen/Main/core/reactor_common.c ****     // NOTE: No lock is being held. Assuming this only happens at startup.
 970              		.loc 1 511 5 is_stmt 1 view .LVU222
 511:src-gen/Main/core/reactor_common.c ****     // NOTE: No lock is being held. Assuming this only happens at startup.
 971              		.loc 1 511 15 is_stmt 0 view .LVU223
 972 0056 3046     		mov	r0, r6
 973              	.LVL93:
 511:src-gen/Main/core/reactor_common.c ****     // NOTE: No lock is being held. Assuming this only happens at startup.
 974              		.loc 1 511 15 view .LVU224
 975 0058 FFF7FEFF 		bl	lf_time_logical
 976              	.LVL94:
 511:src-gen/Main/core/reactor_common.c ****     // NOTE: No lock is being held. Assuming this only happens at startup.
 977              		.loc 1 511 36 view .LVU225
 978 005c 10EB0800 		adds	r0, r0, r8
 979 0060 44EB0104 		adc	r4, r4, r1
 980              	.LVL95:
 511:src-gen/Main/core/reactor_common.c ****     // NOTE: No lock is being held. Assuming this only happens at startup.
 981              		.loc 1 511 13 view .LVU226
 982 0064 3860     		str	r0, [r7]
 983 0066 7C60     		str	r4, [r7, #4]
 513:src-gen/Main/core/reactor_common.c ****     tracepoint_schedule(env->trace, timer, delay); // Trace even though schedule is not called.
 984              		.loc 1 513 5 is_stmt 1 view .LVU227
 985 0068 3946     		mov	r1, r7
 986 006a B06A     		ldr	r0, [r6, #40]
 987 006c FFF7FEFF 		bl	pqueue_insert
ARM GAS  /var/folders/2h/lww79zv53b510qlyvytqnvq40000gn/T//ccDbZlJP.s 			page 33


 988              	.LVL96:
 514:src-gen/Main/core/reactor_common.c **** }
 989              		.loc 1 514 50 view .LVU228
 990              	.L76:
 515:src-gen/Main/core/reactor_common.c **** 
 991              		.loc 1 515 1 is_stmt 0 view .LVU229
 992 0070 BDE8F081 		pop	{r4, r5, r6, r7, r8, pc}
 993              	.LVL97:
 994              	.L86:
 515:src-gen/Main/core/reactor_common.c **** 
 995              		.loc 1 515 1 view .LVU230
 996              		.align	2
 997              	.L85:
 998 0074 00000000 		.word	.LC0
 999 0078 00000000 		.word	__func__.11
 1000 007c 1C000000 		.word	.LC1
 1001              		.cfi_endproc
 1002              	.LFE145:
 1004              		.section	.text._lf_initialize_timers,"ax",%progbits
 1005              		.align	1
 1006              		.global	_lf_initialize_timers
 1007              		.syntax unified
 1008              		.thumb
 1009              		.thumb_func
 1011              	_lf_initialize_timers:
 1012              	.LVL98:
 1013              	.LFB146:
 521:src-gen/Main/core/reactor_common.c ****     assert(env != GLOBAL_ENVIRONMENT);
 1014              		.loc 1 521 48 is_stmt 1 view -0
 1015              		.cfi_startproc
 1016              		@ args = 0, pretend = 0, frame = 0
 1017              		@ frame_needed = 0, uses_anonymous_args = 0
 521:src-gen/Main/core/reactor_common.c ****     assert(env != GLOBAL_ENVIRONMENT);
 1018              		.loc 1 521 48 is_stmt 0 view .LVU232
 1019 0000 38B5     		push	{r3, r4, r5, lr}
 1020              	.LCFI24:
 1021              		.cfi_def_cfa_offset 16
 1022              		.cfi_offset 3, -16
 1023              		.cfi_offset 4, -12
 1024              		.cfi_offset 5, -8
 1025              		.cfi_offset 14, -4
 522:src-gen/Main/core/reactor_common.c ****     for (int i = 0; i < env->timer_triggers_size; i++) {
 1026              		.loc 1 522 5 is_stmt 1 view .LVU233
 1027 0002 10B1     		cbz	r0, .L93
 1028 0004 0546     		mov	r5, r0
 1029              	.LBB12:
 523:src-gen/Main/core/reactor_common.c ****         if (env->timer_triggers[i] != NULL) {
 1030              		.loc 1 523 14 is_stmt 0 view .LVU234
 1031 0006 0024     		movs	r4, #0
 1032 0008 07E0     		b	.L88
 1033              	.L93:
 523:src-gen/Main/core/reactor_common.c ****         if (env->timer_triggers[i] != NULL) {
 1034              		.loc 1 523 14 view .LVU235
 1035              	.LBE12:
 522:src-gen/Main/core/reactor_common.c ****     for (int i = 0; i < env->timer_triggers_size; i++) {
 1036              		.loc 1 522 5 discriminator 1 view .LVU236
 1037 000a 0A4B     		ldr	r3, .L95
ARM GAS  /var/folders/2h/lww79zv53b510qlyvytqnvq40000gn/T//ccDbZlJP.s 			page 34


 1038 000c 0A4A     		ldr	r2, .L95+4
 1039 000e 40F20A21 		movw	r1, #522
 1040 0012 0A48     		ldr	r0, .L95+8
 1041              	.LVL99:
 522:src-gen/Main/core/reactor_common.c ****     for (int i = 0; i < env->timer_triggers_size; i++) {
 1042              		.loc 1 522 5 discriminator 1 view .LVU237
 1043 0014 FFF7FEFF 		bl	__assert_func
 1044              	.LVL100:
 1045              	.L89:
 1046              	.LBB13:
 523:src-gen/Main/core/reactor_common.c ****         if (env->timer_triggers[i] != NULL) {
 1047              		.loc 1 523 52 is_stmt 1 discriminator 2 view .LVU238
 1048 0018 0134     		adds	r4, r4, #1
 1049              	.LVL101:
 1050              	.L88:
 523:src-gen/Main/core/reactor_common.c ****         if (env->timer_triggers[i] != NULL) {
 1051              		.loc 1 523 23 discriminator 1 view .LVU239
 523:src-gen/Main/core/reactor_common.c ****         if (env->timer_triggers[i] != NULL) {
 1052              		.loc 1 523 28 is_stmt 0 discriminator 1 view .LVU240
 1053 001a 2B6E     		ldr	r3, [r5, #96]
 523:src-gen/Main/core/reactor_common.c ****         if (env->timer_triggers[i] != NULL) {
 1054              		.loc 1 523 23 discriminator 1 view .LVU241
 1055 001c A342     		cmp	r3, r4
 1056 001e 08DD     		ble	.L94
 524:src-gen/Main/core/reactor_common.c ****             _lf_initialize_timer(env, env->timer_triggers[i]);
 1057              		.loc 1 524 9 is_stmt 1 view .LVU242
 524:src-gen/Main/core/reactor_common.c ****             _lf_initialize_timer(env, env->timer_triggers[i]);
 1058              		.loc 1 524 16 is_stmt 0 view .LVU243
 1059 0020 EB6D     		ldr	r3, [r5, #92]
 524:src-gen/Main/core/reactor_common.c ****             _lf_initialize_timer(env, env->timer_triggers[i]);
 1060              		.loc 1 524 32 view .LVU244
 1061 0022 53F82410 		ldr	r1, [r3, r4, lsl #2]
 524:src-gen/Main/core/reactor_common.c ****             _lf_initialize_timer(env, env->timer_triggers[i]);
 1062              		.loc 1 524 12 view .LVU245
 1063 0026 0029     		cmp	r1, #0
 1064 0028 F6D0     		beq	.L89
 525:src-gen/Main/core/reactor_common.c ****         }
 1065              		.loc 1 525 13 is_stmt 1 view .LVU246
 1066 002a 2846     		mov	r0, r5
 1067 002c FFF7FEFF 		bl	_lf_initialize_timer
 1068              	.LVL102:
 1069 0030 F2E7     		b	.L89
 1070              	.L94:
 1071              	.LBE13:
 528:src-gen/Main/core/reactor_common.c **** 
 1072              		.loc 1 528 1 is_stmt 0 view .LVU247
 1073 0032 38BD     		pop	{r3, r4, r5, pc}
 1074              	.LVL103:
 1075              	.L96:
 528:src-gen/Main/core/reactor_common.c **** 
 1076              		.loc 1 528 1 view .LVU248
 1077              		.align	2
 1078              	.L95:
 1079 0034 00000000 		.word	.LC0
 1080 0038 00000000 		.word	__func__.9
 1081 003c 1C000000 		.word	.LC1
 1082              		.cfi_endproc
ARM GAS  /var/folders/2h/lww79zv53b510qlyvytqnvq40000gn/T//ccDbZlJP.s 			page 35


 1083              	.LFE146:
 1085              		.section	.text._lf_trigger_startup_reactions,"ax",%progbits
 1086              		.align	1
 1087              		.global	_lf_trigger_startup_reactions
 1088              		.syntax unified
 1089              		.thumb
 1090              		.thumb_func
 1092              	_lf_trigger_startup_reactions:
 1093              	.LVL104:
 1094              	.LFB147:
 534:src-gen/Main/core/reactor_common.c ****     assert(env != GLOBAL_ENVIRONMENT);
 1095              		.loc 1 534 56 is_stmt 1 view -0
 1096              		.cfi_startproc
 1097              		@ args = 0, pretend = 0, frame = 0
 1098              		@ frame_needed = 0, uses_anonymous_args = 0
 534:src-gen/Main/core/reactor_common.c ****     assert(env != GLOBAL_ENVIRONMENT);
 1099              		.loc 1 534 56 is_stmt 0 view .LVU250
 1100 0000 38B5     		push	{r3, r4, r5, lr}
 1101              	.LCFI25:
 1102              		.cfi_def_cfa_offset 16
 1103              		.cfi_offset 3, -16
 1104              		.cfi_offset 4, -12
 1105              		.cfi_offset 5, -8
 1106              		.cfi_offset 14, -4
 535:src-gen/Main/core/reactor_common.c ****     for (int i = 0; i < env->startup_reactions_size; i++) {
 1107              		.loc 1 535 5 is_stmt 1 view .LVU251
 1108 0002 10B1     		cbz	r0, .L103
 1109 0004 0546     		mov	r5, r0
 1110              	.LBB14:
 536:src-gen/Main/core/reactor_common.c ****         if (env->startup_reactions[i] != NULL) {
 1111              		.loc 1 536 14 is_stmt 0 view .LVU252
 1112 0006 0024     		movs	r4, #0
 1113 0008 07E0     		b	.L98
 1114              	.L103:
 536:src-gen/Main/core/reactor_common.c ****         if (env->startup_reactions[i] != NULL) {
 1115              		.loc 1 536 14 view .LVU253
 1116              	.LBE14:
 535:src-gen/Main/core/reactor_common.c ****     for (int i = 0; i < env->startup_reactions_size; i++) {
 1117              		.loc 1 535 5 discriminator 1 view .LVU254
 1118 000a 0D4B     		ldr	r3, .L105
 1119 000c 0D4A     		ldr	r2, .L105+4
 1120 000e 40F21721 		movw	r1, #535
 1121 0012 0D48     		ldr	r0, .L105+8
 1122              	.LVL105:
 535:src-gen/Main/core/reactor_common.c ****     for (int i = 0; i < env->startup_reactions_size; i++) {
 1123              		.loc 1 535 5 discriminator 1 view .LVU255
 1124 0014 FFF7FEFF 		bl	__assert_func
 1125              	.LVL106:
 1126              	.L99:
 1127              	.LBB15:
 536:src-gen/Main/core/reactor_common.c ****         if (env->startup_reactions[i] != NULL) {
 1128              		.loc 1 536 55 is_stmt 1 discriminator 2 view .LVU256
 1129 0018 0134     		adds	r4, r4, #1
 1130              	.LVL107:
 1131              	.L98:
 536:src-gen/Main/core/reactor_common.c ****         if (env->startup_reactions[i] != NULL) {
 1132              		.loc 1 536 23 discriminator 1 view .LVU257
ARM GAS  /var/folders/2h/lww79zv53b510qlyvytqnvq40000gn/T//ccDbZlJP.s 			page 36


 536:src-gen/Main/core/reactor_common.c ****         if (env->startup_reactions[i] != NULL) {
 1133              		.loc 1 536 28 is_stmt 0 discriminator 1 view .LVU258
 1134 001a AB6E     		ldr	r3, [r5, #104]
 536:src-gen/Main/core/reactor_common.c ****         if (env->startup_reactions[i] != NULL) {
 1135              		.loc 1 536 23 discriminator 1 view .LVU259
 1136 001c A342     		cmp	r3, r4
 1137 001e 0DDD     		ble	.L104
 537:src-gen/Main/core/reactor_common.c ****             if (env->startup_reactions[i]->mode != NULL) {
 1138              		.loc 1 537 9 is_stmt 1 view .LVU260
 537:src-gen/Main/core/reactor_common.c ****             if (env->startup_reactions[i]->mode != NULL) {
 1139              		.loc 1 537 16 is_stmt 0 view .LVU261
 1140 0020 6B6E     		ldr	r3, [r5, #100]
 537:src-gen/Main/core/reactor_common.c ****             if (env->startup_reactions[i]->mode != NULL) {
 1141              		.loc 1 537 35 view .LVU262
 1142 0022 53F82410 		ldr	r1, [r3, r4, lsl #2]
 537:src-gen/Main/core/reactor_common.c ****             if (env->startup_reactions[i]->mode != NULL) {
 1143              		.loc 1 537 12 view .LVU263
 1144 0026 0029     		cmp	r1, #0
 1145 0028 F6D0     		beq	.L99
 538:src-gen/Main/core/reactor_common.c ****                 // Skip reactions in modes
 1146              		.loc 1 538 13 is_stmt 1 view .LVU264
 538:src-gen/Main/core/reactor_common.c ****                 // Skip reactions in modes
 1147              		.loc 1 538 42 is_stmt 0 view .LVU265
 1148 002a 0B6E     		ldr	r3, [r1, #96]
 538:src-gen/Main/core/reactor_common.c ****                 // Skip reactions in modes
 1149              		.loc 1 538 16 view .LVU266
 1150 002c 002B     		cmp	r3, #0
 1151 002e F3D1     		bne	.L99
 542:src-gen/Main/core/reactor_common.c ****         }
 1152              		.loc 1 542 13 is_stmt 1 view .LVU267
 1153 0030 4FF0FF32 		mov	r2, #-1
 1154 0034 2846     		mov	r0, r5
 1155 0036 FFF7FEFF 		bl	_lf_trigger_reaction
 1156              	.LVL108:
 1157 003a EDE7     		b	.L99
 1158              	.L104:
 1159              	.LBE15:
 555:src-gen/Main/core/reactor_common.c **** 
 1160              		.loc 1 555 1 is_stmt 0 view .LVU268
 1161 003c 38BD     		pop	{r3, r4, r5, pc}
 1162              	.LVL109:
 1163              	.L106:
 555:src-gen/Main/core/reactor_common.c **** 
 1164              		.loc 1 555 1 view .LVU269
 1165 003e 00BF     		.align	2
 1166              	.L105:
 1167 0040 00000000 		.word	.LC0
 1168 0044 00000000 		.word	__func__.8
 1169 0048 1C000000 		.word	.LC1
 1170              		.cfi_endproc
 1171              	.LFE147:
 1173              		.section	.text._lf_trigger_shutdown_reactions,"ax",%progbits
 1174              		.align	1
 1175              		.global	_lf_trigger_shutdown_reactions
 1176              		.syntax unified
 1177              		.thumb
 1178              		.thumb_func
ARM GAS  /var/folders/2h/lww79zv53b510qlyvytqnvq40000gn/T//ccDbZlJP.s 			page 37


 1180              	_lf_trigger_shutdown_reactions:
 1181              	.LVL110:
 1182              	.LFB148:
 561:src-gen/Main/core/reactor_common.c ****     assert(env != GLOBAL_ENVIRONMENT);
 1183              		.loc 1 561 57 is_stmt 1 view -0
 1184              		.cfi_startproc
 1185              		@ args = 0, pretend = 0, frame = 0
 1186              		@ frame_needed = 0, uses_anonymous_args = 0
 561:src-gen/Main/core/reactor_common.c ****     assert(env != GLOBAL_ENVIRONMENT);
 1187              		.loc 1 561 57 is_stmt 0 view .LVU271
 1188 0000 38B5     		push	{r3, r4, r5, lr}
 1189              	.LCFI26:
 1190              		.cfi_def_cfa_offset 16
 1191              		.cfi_offset 3, -16
 1192              		.cfi_offset 4, -12
 1193              		.cfi_offset 5, -8
 1194              		.cfi_offset 14, -4
 562:src-gen/Main/core/reactor_common.c ****     for (int i = 0; i < env->shutdown_reactions_size; i++) {
 1195              		.loc 1 562 5 is_stmt 1 view .LVU272
 1196 0002 10B1     		cbz	r0, .L113
 1197 0004 0546     		mov	r5, r0
 1198              	.LBB16:
 563:src-gen/Main/core/reactor_common.c ****         if (env->shutdown_reactions[i] != NULL) {
 1199              		.loc 1 563 14 is_stmt 0 view .LVU273
 1200 0006 0024     		movs	r4, #0
 1201 0008 07E0     		b	.L108
 1202              	.L113:
 563:src-gen/Main/core/reactor_common.c ****         if (env->shutdown_reactions[i] != NULL) {
 1203              		.loc 1 563 14 view .LVU274
 1204              	.LBE16:
 562:src-gen/Main/core/reactor_common.c ****     for (int i = 0; i < env->shutdown_reactions_size; i++) {
 1205              		.loc 1 562 5 discriminator 1 view .LVU275
 1206 000a 0D4B     		ldr	r3, .L115
 1207 000c 0D4A     		ldr	r2, .L115+4
 1208 000e 40F23221 		movw	r1, #562
 1209 0012 0D48     		ldr	r0, .L115+8
 1210              	.LVL111:
 562:src-gen/Main/core/reactor_common.c ****     for (int i = 0; i < env->shutdown_reactions_size; i++) {
 1211              		.loc 1 562 5 discriminator 1 view .LVU276
 1212 0014 FFF7FEFF 		bl	__assert_func
 1213              	.LVL112:
 1214              	.L109:
 1215              	.LBB17:
 563:src-gen/Main/core/reactor_common.c ****         if (env->shutdown_reactions[i] != NULL) {
 1216              		.loc 1 563 56 is_stmt 1 discriminator 2 view .LVU277
 1217 0018 0134     		adds	r4, r4, #1
 1218              	.LVL113:
 1219              	.L108:
 563:src-gen/Main/core/reactor_common.c ****         if (env->shutdown_reactions[i] != NULL) {
 1220              		.loc 1 563 23 discriminator 1 view .LVU278
 563:src-gen/Main/core/reactor_common.c ****         if (env->shutdown_reactions[i] != NULL) {
 1221              		.loc 1 563 28 is_stmt 0 discriminator 1 view .LVU279
 1222 001a 2B6F     		ldr	r3, [r5, #112]
 563:src-gen/Main/core/reactor_common.c ****         if (env->shutdown_reactions[i] != NULL) {
 1223              		.loc 1 563 23 discriminator 1 view .LVU280
 1224 001c A342     		cmp	r3, r4
 1225 001e 0DDD     		ble	.L114
ARM GAS  /var/folders/2h/lww79zv53b510qlyvytqnvq40000gn/T//ccDbZlJP.s 			page 38


 564:src-gen/Main/core/reactor_common.c ****             if (env->shutdown_reactions[i]->mode != NULL) {
 1226              		.loc 1 564 9 is_stmt 1 view .LVU281
 564:src-gen/Main/core/reactor_common.c ****             if (env->shutdown_reactions[i]->mode != NULL) {
 1227              		.loc 1 564 16 is_stmt 0 view .LVU282
 1228 0020 EB6E     		ldr	r3, [r5, #108]
 564:src-gen/Main/core/reactor_common.c ****             if (env->shutdown_reactions[i]->mode != NULL) {
 1229              		.loc 1 564 36 view .LVU283
 1230 0022 53F82410 		ldr	r1, [r3, r4, lsl #2]
 564:src-gen/Main/core/reactor_common.c ****             if (env->shutdown_reactions[i]->mode != NULL) {
 1231              		.loc 1 564 12 view .LVU284
 1232 0026 0029     		cmp	r1, #0
 1233 0028 F6D0     		beq	.L109
 565:src-gen/Main/core/reactor_common.c ****                 // Skip reactions in modes
 1234              		.loc 1 565 13 is_stmt 1 view .LVU285
 565:src-gen/Main/core/reactor_common.c ****                 // Skip reactions in modes
 1235              		.loc 1 565 43 is_stmt 0 view .LVU286
 1236 002a 0B6E     		ldr	r3, [r1, #96]
 565:src-gen/Main/core/reactor_common.c ****                 // Skip reactions in modes
 1237              		.loc 1 565 16 view .LVU287
 1238 002c 002B     		cmp	r3, #0
 1239 002e F3D1     		bne	.L109
 569:src-gen/Main/core/reactor_common.c ****         }
 1240              		.loc 1 569 13 is_stmt 1 view .LVU288
 1241 0030 4FF0FF32 		mov	r2, #-1
 1242 0034 2846     		mov	r0, r5
 1243 0036 FFF7FEFF 		bl	_lf_trigger_reaction
 1244              	.LVL114:
 1245 003a EDE7     		b	.L109
 1246              	.L114:
 1247              	.LBE17:
 577:src-gen/Main/core/reactor_common.c **** 
 1248              		.loc 1 577 1 is_stmt 0 view .LVU289
 1249 003c 38BD     		pop	{r3, r4, r5, pc}
 1250              	.LVL115:
 1251              	.L116:
 577:src-gen/Main/core/reactor_common.c **** 
 1252              		.loc 1 577 1 view .LVU290
 1253 003e 00BF     		.align	2
 1254              	.L115:
 1255 0040 00000000 		.word	.LC0
 1256 0044 00000000 		.word	__func__.7
 1257 0048 1C000000 		.word	.LC1
 1258              		.cfi_endproc
 1259              	.LFE148:
 1261              		.section	.text._lf_recycle_event,"ax",%progbits
 1262              		.align	1
 1263              		.global	_lf_recycle_event
 1264              		.syntax unified
 1265              		.thumb
 1266              		.thumb_func
 1268              	_lf_recycle_event:
 1269              	.LVL116:
 1270              	.LFB149:
 585:src-gen/Main/core/reactor_common.c ****     assert(env != GLOBAL_ENVIRONMENT);
 1271              		.loc 1 585 56 is_stmt 1 view -0
 1272              		.cfi_startproc
 1273              		@ args = 0, pretend = 0, frame = 0
ARM GAS  /var/folders/2h/lww79zv53b510qlyvytqnvq40000gn/T//ccDbZlJP.s 			page 39


 1274              		@ frame_needed = 0, uses_anonymous_args = 0
 585:src-gen/Main/core/reactor_common.c ****     assert(env != GLOBAL_ENVIRONMENT);
 1275              		.loc 1 585 56 is_stmt 0 view .LVU292
 1276 0000 08B5     		push	{r3, lr}
 1277              	.LCFI27:
 1278              		.cfi_def_cfa_offset 8
 1279              		.cfi_offset 3, -8
 1280              		.cfi_offset 14, -4
 586:src-gen/Main/core/reactor_common.c ****     e->time = 0LL;
 1281              		.loc 1 586 5 is_stmt 1 view .LVU293
 1282 0002 68B1     		cbz	r0, .L120
 587:src-gen/Main/core/reactor_common.c ****     e->trigger = NULL;
 1283              		.loc 1 587 5 view .LVU294
 587:src-gen/Main/core/reactor_common.c ****     e->trigger = NULL;
 1284              		.loc 1 587 13 is_stmt 0 view .LVU295
 1285 0004 9FED0A7B 		vldr.64	d7, .L121	@ int
 1286 0008 81ED007B 		vstr.64	d7, [r1]	@ int
 588:src-gen/Main/core/reactor_common.c ****     e->pos = 0;
 1287              		.loc 1 588 5 is_stmt 1 view .LVU296
 588:src-gen/Main/core/reactor_common.c ****     e->pos = 0;
 1288              		.loc 1 588 16 is_stmt 0 view .LVU297
 1289 000c 0023     		movs	r3, #0
 1290 000e 8B60     		str	r3, [r1, #8]
 589:src-gen/Main/core/reactor_common.c ****     e->token = NULL;
 1291              		.loc 1 589 5 is_stmt 1 view .LVU298
 589:src-gen/Main/core/reactor_common.c ****     e->token = NULL;
 1292              		.loc 1 589 12 is_stmt 0 view .LVU299
 1293 0010 CB60     		str	r3, [r1, #12]
 590:src-gen/Main/core/reactor_common.c ****     e->is_dummy = false;
 1294              		.loc 1 590 5 is_stmt 1 view .LVU300
 590:src-gen/Main/core/reactor_common.c ****     e->is_dummy = false;
 1295              		.loc 1 590 14 is_stmt 0 view .LVU301
 1296 0012 0B61     		str	r3, [r1, #16]
 591:src-gen/Main/core/reactor_common.c **** #ifdef FEDERATED_DECENTRALIZED
 1297              		.loc 1 591 5 is_stmt 1 view .LVU302
 591:src-gen/Main/core/reactor_common.c **** #ifdef FEDERATED_DECENTRALIZED
 1298              		.loc 1 591 17 is_stmt 0 view .LVU303
 1299 0014 0B75     		strb	r3, [r1, #20]
 595:src-gen/Main/core/reactor_common.c ****     pqueue_insert(env->recycle_q, e);
 1300              		.loc 1 595 5 is_stmt 1 view .LVU304
 595:src-gen/Main/core/reactor_common.c ****     pqueue_insert(env->recycle_q, e);
 1301              		.loc 1 595 13 is_stmt 0 view .LVU305
 1302 0016 8B61     		str	r3, [r1, #24]
 596:src-gen/Main/core/reactor_common.c **** }
 1303              		.loc 1 596 5 is_stmt 1 view .LVU306
 1304 0018 C06A     		ldr	r0, [r0, #44]
 1305              	.LVL117:
 596:src-gen/Main/core/reactor_common.c **** }
 1306              		.loc 1 596 5 is_stmt 0 view .LVU307
 1307 001a FFF7FEFF 		bl	pqueue_insert
 1308              	.LVL118:
 597:src-gen/Main/core/reactor_common.c **** 
 1309              		.loc 1 597 1 view .LVU308
 1310 001e 08BD     		pop	{r3, pc}
 1311              	.LVL119:
 1312              	.L120:
 586:src-gen/Main/core/reactor_common.c ****     e->time = 0LL;
ARM GAS  /var/folders/2h/lww79zv53b510qlyvytqnvq40000gn/T//ccDbZlJP.s 			page 40


 1313              		.loc 1 586 5 discriminator 1 view .LVU309
 1314 0020 054B     		ldr	r3, .L121+8
 1315 0022 064A     		ldr	r2, .L121+12
 1316 0024 40F24A21 		movw	r1, #586
 1317              	.LVL120:
 586:src-gen/Main/core/reactor_common.c ****     e->time = 0LL;
 1318              		.loc 1 586 5 discriminator 1 view .LVU310
 1319 0028 0548     		ldr	r0, .L121+16
 1320              	.LVL121:
 586:src-gen/Main/core/reactor_common.c ****     e->time = 0LL;
 1321              		.loc 1 586 5 discriminator 1 view .LVU311
 1322 002a FFF7FEFF 		bl	__assert_func
 1323              	.LVL122:
 1324              	.L122:
 1325 002e 00BF     		.align	3
 1326              	.L121:
 1327 0030 00000000 		.word	0
 1328 0034 00000000 		.word	0
 1329 0038 00000000 		.word	.LC0
 1330 003c 00000000 		.word	__func__.6
 1331 0040 1C000000 		.word	.LC1
 1332              		.cfi_endproc
 1333              	.LFE149:
 1335              		.section	.text._lf_create_dummy_events,"ax",%progbits
 1336              		.align	1
 1337              		.global	_lf_create_dummy_events
 1338              		.syntax unified
 1339              		.thumb
 1340              		.thumb_func
 1342              	_lf_create_dummy_events:
 1343              	.LVL123:
 1344              	.LFB150:
 608:src-gen/Main/core/reactor_common.c ****     event_t* first_dummy = _lf_get_new_event(env);
 1345              		.loc 1 608 125 is_stmt 1 view -0
 1346              		.cfi_startproc
 1347              		@ args = 8, pretend = 0, frame = 0
 1348              		@ frame_needed = 0, uses_anonymous_args = 0
 608:src-gen/Main/core/reactor_common.c ****     event_t* first_dummy = _lf_get_new_event(env);
 1349              		.loc 1 608 125 is_stmt 0 view .LVU313
 1350 0000 2DE9F047 		push	{r4, r5, r6, r7, r8, r9, r10, lr}
 1351              	.LCFI28:
 1352              		.cfi_def_cfa_offset 32
 1353              		.cfi_offset 4, -32
 1354              		.cfi_offset 5, -28
 1355              		.cfi_offset 6, -24
 1356              		.cfi_offset 7, -20
 1357              		.cfi_offset 8, -16
 1358              		.cfi_offset 9, -12
 1359              		.cfi_offset 10, -8
 1360              		.cfi_offset 14, -4
 1361 0004 8146     		mov	r9, r0
 1362 0006 0E46     		mov	r6, r1
 1363 0008 9046     		mov	r8, r2
 1364 000a 1F46     		mov	r7, r3
 1365 000c 099C     		ldr	r4, [sp, #36]
 609:src-gen/Main/core/reactor_common.c ****     event_t* dummy = first_dummy;
 1366              		.loc 1 609 5 is_stmt 1 view .LVU314
ARM GAS  /var/folders/2h/lww79zv53b510qlyvytqnvq40000gn/T//ccDbZlJP.s 			page 41


 609:src-gen/Main/core/reactor_common.c ****     event_t* dummy = first_dummy;
 1367              		.loc 1 609 28 is_stmt 0 view .LVU315
 1368 000e FFF7FEFF 		bl	_lf_get_new_event
 1369              	.LVL124:
 609:src-gen/Main/core/reactor_common.c ****     event_t* dummy = first_dummy;
 1370              		.loc 1 609 28 view .LVU316
 1371 0012 8246     		mov	r10, r0
 1372              	.LVL125:
 610:src-gen/Main/core/reactor_common.c ****     dummy->time = time;
 1373              		.loc 1 610 5 is_stmt 1 view .LVU317
 611:src-gen/Main/core/reactor_common.c ****     dummy->is_dummy = true;
 1374              		.loc 1 611 5 view .LVU318
 611:src-gen/Main/core/reactor_common.c ****     dummy->is_dummy = true;
 1375              		.loc 1 611 17 is_stmt 0 view .LVU319
 1376 0014 C0F80080 		str	r8, [r0]
 1377 0018 4760     		str	r7, [r0, #4]
 612:src-gen/Main/core/reactor_common.c ****     dummy->trigger = trigger;
 1378              		.loc 1 612 5 is_stmt 1 view .LVU320
 612:src-gen/Main/core/reactor_common.c ****     dummy->trigger = trigger;
 1379              		.loc 1 612 21 is_stmt 0 view .LVU321
 1380 001a 0123     		movs	r3, #1
 1381 001c 0375     		strb	r3, [r0, #20]
 613:src-gen/Main/core/reactor_common.c ****     while (offset > 0) {
 1382              		.loc 1 613 5 is_stmt 1 view .LVU322
 613:src-gen/Main/core/reactor_common.c ****     while (offset > 0) {
 1383              		.loc 1 613 20 is_stmt 0 view .LVU323
 1384 001e 8660     		str	r6, [r0, #8]
 614:src-gen/Main/core/reactor_common.c ****         if (offset == 1) {
 1385              		.loc 1 614 5 is_stmt 1 view .LVU324
 610:src-gen/Main/core/reactor_common.c ****     dummy->time = time;
 1386              		.loc 1 610 14 is_stmt 0 view .LVU325
 1387 0020 0546     		mov	r5, r0
 614:src-gen/Main/core/reactor_common.c ****         if (offset == 1) {
 1388              		.loc 1 614 11 view .LVU326
 1389 0022 0BE0     		b	.L124
 1390              	.LVL126:
 1391              	.L125:
 619:src-gen/Main/core/reactor_common.c ****         dummy = dummy->next;
 1392              		.loc 1 619 9 is_stmt 1 view .LVU327
 619:src-gen/Main/core/reactor_common.c ****         dummy = dummy->next;
 1393              		.loc 1 619 23 is_stmt 0 view .LVU328
 1394 0024 4846     		mov	r0, r9
 1395              	.LVL127:
 619:src-gen/Main/core/reactor_common.c ****         dummy = dummy->next;
 1396              		.loc 1 619 23 view .LVU329
 1397 0026 FFF7FEFF 		bl	_lf_get_new_event
 1398              	.LVL128:
 619:src-gen/Main/core/reactor_common.c ****         dummy = dummy->next;
 1399              		.loc 1 619 21 view .LVU330
 1400 002a A861     		str	r0, [r5, #24]
 620:src-gen/Main/core/reactor_common.c ****         dummy->time = time;
 1401              		.loc 1 620 9 is_stmt 1 view .LVU331
 1402              	.LVL129:
 621:src-gen/Main/core/reactor_common.c ****         dummy->is_dummy = true;
 1403              		.loc 1 621 9 view .LVU332
 621:src-gen/Main/core/reactor_common.c ****         dummy->is_dummy = true;
 1404              		.loc 1 621 21 is_stmt 0 view .LVU333
ARM GAS  /var/folders/2h/lww79zv53b510qlyvytqnvq40000gn/T//ccDbZlJP.s 			page 42


 1405 002c C0F80080 		str	r8, [r0]
 1406 0030 4760     		str	r7, [r0, #4]
 622:src-gen/Main/core/reactor_common.c ****         dummy->trigger = trigger;
 1407              		.loc 1 622 9 is_stmt 1 view .LVU334
 622:src-gen/Main/core/reactor_common.c ****         dummy->trigger = trigger;
 1408              		.loc 1 622 25 is_stmt 0 view .LVU335
 1409 0032 0123     		movs	r3, #1
 1410 0034 0375     		strb	r3, [r0, #20]
 623:src-gen/Main/core/reactor_common.c ****         offset--;
 1411              		.loc 1 623 9 is_stmt 1 view .LVU336
 623:src-gen/Main/core/reactor_common.c ****         offset--;
 1412              		.loc 1 623 24 is_stmt 0 view .LVU337
 1413 0036 8660     		str	r6, [r0, #8]
 624:src-gen/Main/core/reactor_common.c ****     }
 1414              		.loc 1 624 9 is_stmt 1 view .LVU338
 624:src-gen/Main/core/reactor_common.c ****     }
 1415              		.loc 1 624 15 is_stmt 0 view .LVU339
 1416 0038 013C     		subs	r4, r4, #1
 1417              	.LVL130:
 620:src-gen/Main/core/reactor_common.c ****         dummy->time = time;
 1418              		.loc 1 620 15 view .LVU340
 1419 003a 0546     		mov	r5, r0
 1420              	.LVL131:
 1421              	.L124:
 614:src-gen/Main/core/reactor_common.c ****         if (offset == 1) {
 1422              		.loc 1 614 19 is_stmt 1 view .LVU341
 1423 003c 1CB1     		cbz	r4, .L123
 615:src-gen/Main/core/reactor_common.c ****             dummy->next = next;
 1424              		.loc 1 615 9 view .LVU342
 615:src-gen/Main/core/reactor_common.c ****             dummy->next = next;
 1425              		.loc 1 615 12 is_stmt 0 view .LVU343
 1426 003e 012C     		cmp	r4, #1
 1427 0040 F0D1     		bne	.L125
 616:src-gen/Main/core/reactor_common.c ****             break;
 1428              		.loc 1 616 13 is_stmt 1 view .LVU344
 616:src-gen/Main/core/reactor_common.c ****             break;
 1429              		.loc 1 616 25 is_stmt 0 view .LVU345
 1430 0042 089B     		ldr	r3, [sp, #32]
 1431 0044 AB61     		str	r3, [r5, #24]
 617:src-gen/Main/core/reactor_common.c ****         }
 1432              		.loc 1 617 13 is_stmt 1 view .LVU346
 1433              	.L123:
 627:src-gen/Main/core/reactor_common.c **** 
 1434              		.loc 1 627 1 is_stmt 0 view .LVU347
 1435 0046 5046     		mov	r0, r10
 1436              	.LVL132:
 627:src-gen/Main/core/reactor_common.c **** 
 1437              		.loc 1 627 1 view .LVU348
 1438 0048 BDE8F087 		pop	{r4, r5, r6, r7, r8, r9, r10, pc}
 627:src-gen/Main/core/reactor_common.c **** 
 1439              		.loc 1 627 1 view .LVU349
 1440              		.cfi_endproc
 1441              	.LFE150:
 1443              		.section	.rodata._lf_schedule_at_tag.str1.4,"aMS",%progbits,1
 1444              		.align	2
 1445              	.LC3:
 1446 0000 5F6C665F 		.ascii	"_lf_schedule_at_tag(): requested to schedule an eve"
ARM GAS  /var/folders/2h/lww79zv53b510qlyvytqnvq40000gn/T//ccDbZlJP.s 			page 43


 1446      73636865 
 1446      64756C65 
 1446      5F61745F 
 1446      74616728 
 1447 0033 6E742069 		.ascii	"nt in the past.\000"
 1447      6E207468 
 1447      65207061 
 1447      73742E00 
 1448 0043 00       		.align	2
 1449              	.LC4:
 1450 0044 5F6C665F 		.ascii	"_lf_schedule_at_tag: event time is past the timeout"
 1450      73636865 
 1450      64756C65 
 1450      5F61745F 
 1450      7461673A 
 1451 0077 2E204469 		.ascii	". Discarding event.\000"
 1451      73636172 
 1451      64696E67 
 1451      20657665 
 1451      6E742E00 
 1452 008b 00       		.align	2
 1453              	.LC5:
 1454 008c 5F6C665F 		.ascii	"_lf_schedule_at_tag: in-order contract violated.\000"
 1454      73636865 
 1454      64756C65 
 1454      5F61745F 
 1454      7461673A 
 1455              		.section	.text._lf_schedule_at_tag,"ax",%progbits
 1456              		.align	1
 1457              		.global	_lf_schedule_at_tag
 1458              		.syntax unified
 1459              		.thumb
 1460              		.thumb_func
 1462              	_lf_schedule_at_tag:
 1463              	.LVL133:
 1464              	.LFB152:
 643:src-gen/Main/core/reactor_common.c **** 
 644:src-gen/Main/core/reactor_common.c **** /**
 645:src-gen/Main/core/reactor_common.c ****  * Schedule events at a specific tag (time, microstep), provided
 646:src-gen/Main/core/reactor_common.c ****  * that the tag is in the future relative to the current tag.
 647:src-gen/Main/core/reactor_common.c ****  * The input time values are absolute.
 648:src-gen/Main/core/reactor_common.c ****  *
 649:src-gen/Main/core/reactor_common.c ****  * If there is an event found at the requested tag, the payload
 650:src-gen/Main/core/reactor_common.c ****  * is replaced and 0 is returned.
 651:src-gen/Main/core/reactor_common.c ****  *
 652:src-gen/Main/core/reactor_common.c ****  * Note that this function is an internal API that must
 653:src-gen/Main/core/reactor_common.c ****  * be called with tags that are in order for a given
 654:src-gen/Main/core/reactor_common.c ****  * trigger. This means that the following order is illegal:
 655:src-gen/Main/core/reactor_common.c ****  * _lf_schedule_at_tag(trigger1, bigger_tag, ...);
 656:src-gen/Main/core/reactor_common.c ****  * _lf_schedule_at_tag(trigger1, smaller_tag, ...);
 657:src-gen/Main/core/reactor_common.c ****  * where bigger_tag > smaller_tag. This function is primarily
 658:src-gen/Main/core/reactor_common.c ****  * used for network communication (which is assumed to be
 659:src-gen/Main/core/reactor_common.c ****  * in order).
 660:src-gen/Main/core/reactor_common.c ****  *
 661:src-gen/Main/core/reactor_common.c ****  * This function assumes the caller holds the mutex lock.
 662:src-gen/Main/core/reactor_common.c ****  *
 663:src-gen/Main/core/reactor_common.c ****  * @param env Environment in which we are executing.
ARM GAS  /var/folders/2h/lww79zv53b510qlyvytqnvq40000gn/T//ccDbZlJP.s 			page 44


 664:src-gen/Main/core/reactor_common.c ****  * @param trigger The trigger to be invoked at a later logical time.
 665:src-gen/Main/core/reactor_common.c ****  * @param tag Logical tag of the event
 666:src-gen/Main/core/reactor_common.c ****  * @param token The token wrapping the payload or NULL for no payload.
 667:src-gen/Main/core/reactor_common.c ****  *
 668:src-gen/Main/core/reactor_common.c ****  * @return 1 for success, 0 if no new event was scheduled (instead, the payload was updated),
 669:src-gen/Main/core/reactor_common.c ****  *  or -1 for error (the tag is equal to or less than the current tag).
 670:src-gen/Main/core/reactor_common.c ****  */
 671:src-gen/Main/core/reactor_common.c **** int _lf_schedule_at_tag(environment_t* env, trigger_t* trigger, tag_t tag, lf_token_t* token) {
 1465              		.loc 1 671 95 is_stmt 1 view -0
 1466              		.cfi_startproc
 1467              		@ args = 20, pretend = 8, frame = 48
 1468              		@ frame_needed = 0, uses_anonymous_args = 0
 1469              		.loc 1 671 95 is_stmt 0 view .LVU351
 1470 0000 82B0     		sub	sp, sp, #8
 1471              	.LCFI29:
 1472              		.cfi_def_cfa_offset 8
 1473 0002 2DE9F047 		push	{r4, r5, r6, r7, r8, r9, r10, lr}
 1474              	.LCFI30:
 1475              		.cfi_def_cfa_offset 40
 1476              		.cfi_offset 4, -40
 1477              		.cfi_offset 5, -36
 1478              		.cfi_offset 6, -32
 1479              		.cfi_offset 7, -28
 1480              		.cfi_offset 8, -24
 1481              		.cfi_offset 9, -20
 1482              		.cfi_offset 10, -16
 1483              		.cfi_offset 14, -12
 1484 0006 90B0     		sub	sp, sp, #64
 1485              	.LCFI31:
 1486              		.cfi_def_cfa_offset 104
 1487 0008 8846     		mov	r8, r1
 1488 000a 18A9     		add	r1, sp, #96
 1489              	.LVL134:
 1490              		.loc 1 671 95 view .LVU352
 1491 000c 81E80C00 		stm	r1, {r2, r3}
 1492 0010 1C9F     		ldr	r7, [sp, #112]
 672:src-gen/Main/core/reactor_common.c ****     assert(env != GLOBAL_ENVIRONMENT);
 1493              		.loc 1 672 5 is_stmt 1 view .LVU353
 1494 0012 0028     		cmp	r0, #0
 1495 0014 59D0     		beq	.L165
 1496 0016 0646     		mov	r6, r0
 673:src-gen/Main/core/reactor_common.c ****     tag_t current_logical_tag = env->current_tag;
 1497              		.loc 1 673 5 view .LVU354
 1498              		.loc 1 673 11 is_stmt 0 view .LVU355
 1499 0018 0DF1100C 		add	ip, sp, #16
 1500 001c 00F10803 		add	r3, r0, #8
 1501 0020 0FCB     		ldm	r3, {r0, r1, r2, r3}
 1502              	.LVL135:
 1503              		.loc 1 673 11 view .LVU356
 1504 0022 8CE80F00 		stm	ip, {r0, r1, r2, r3}
 674:src-gen/Main/core/reactor_common.c **** 
 675:src-gen/Main/core/reactor_common.c ****     LF_PRINT_DEBUG("_lf_schedule_at_tag() called with tag " PRINTF_TAG " at tag " PRINTF_TAG ".",
 1505              		.loc 1 675 5 is_stmt 1 view .LVU357
 1506              		.loc 1 675 5 view .LVU358
 1507              		.loc 1 675 5 view .LVU359
 676:src-gen/Main/core/reactor_common.c ****                   tag.time - start_time, tag.microstep,
 677:src-gen/Main/core/reactor_common.c ****                   current_logical_tag.time - start_time, current_logical_tag.microstep);
ARM GAS  /var/folders/2h/lww79zv53b510qlyvytqnvq40000gn/T//ccDbZlJP.s 			page 45


 678:src-gen/Main/core/reactor_common.c ****     if (lf_tag_compare(tag, current_logical_tag) <= 0) {
 1508              		.loc 1 678 5 view .LVU360
 1509              		.loc 1 678 9 is_stmt 0 view .LVU361
 1510 0026 8DE80F00 		stm	sp, {r0, r1, r2, r3}
 1511 002a 18AB     		add	r3, sp, #96
 1512 002c 0FCB     		ldm	r3, {r0, r1, r2, r3}
 1513 002e FFF7FEFF 		bl	lf_tag_compare
 1514              	.LVL136:
 1515              		.loc 1 678 8 view .LVU362
 1516 0032 0028     		cmp	r0, #0
 1517 0034 50DD     		ble	.L166
 679:src-gen/Main/core/reactor_common.c ****         lf_print_warning("_lf_schedule_at_tag(): requested to schedule an event in the past.");
 680:src-gen/Main/core/reactor_common.c ****         return -1;
 681:src-gen/Main/core/reactor_common.c ****     }
 682:src-gen/Main/core/reactor_common.c **** 
 683:src-gen/Main/core/reactor_common.c ****     // Increment the reference count of the token.
 684:src-gen/Main/core/reactor_common.c ****     if (token != NULL) {
 1518              		.loc 1 684 5 is_stmt 1 view .LVU363
 1519              		.loc 1 684 8 is_stmt 0 view .LVU364
 1520 0036 17B1     		cbz	r7, .L133
 685:src-gen/Main/core/reactor_common.c ****         token->ref_count++;
 1521              		.loc 1 685 9 is_stmt 1 view .LVU365
 1522              		.loc 1 685 14 is_stmt 0 view .LVU366
 1523 0038 FB68     		ldr	r3, [r7, #12]
 1524              		.loc 1 685 25 view .LVU367
 1525 003a 0133     		adds	r3, r3, #1
 1526 003c FB60     		str	r3, [r7, #12]
 686:src-gen/Main/core/reactor_common.c ****         LF_PRINT_DEBUG("_lf_schedule_at_tag: Incremented ref_count of %p to %zu.",
 1527              		.loc 1 686 9 is_stmt 1 view .LVU368
 1528              		.loc 1 686 9 view .LVU369
 1529              	.L133:
 1530              		.loc 1 686 9 discriminator 3 view .LVU370
 687:src-gen/Main/core/reactor_common.c ****                 token, token->ref_count);
 688:src-gen/Main/core/reactor_common.c ****     }
 689:src-gen/Main/core/reactor_common.c **** 
 690:src-gen/Main/core/reactor_common.c ****     // Do not schedule events if the tag is after the stop tag
 691:src-gen/Main/core/reactor_common.c ****     if (_lf_is_tag_after_stop_tag(env, tag)) {
 1531              		.loc 1 691 5 discriminator 3 view .LVU371
 1532              		.loc 1 691 9 is_stmt 0 discriminator 3 view .LVU372
 1533 003e 1AAB     		add	r3, sp, #104
 1534 0040 93E80300 		ldm	r3, {r0, r1}
 1535 0044 8DE80300 		stm	sp, {r0, r1}
 1536 0048 18AB     		add	r3, sp, #96
 1537 004a 0CCB     		ldm	r3, {r2, r3}
 1538 004c 3046     		mov	r0, r6
 1539 004e FFF7FEFF 		bl	_lf_is_tag_after_stop_tag
 1540              	.LVL137:
 1541              		.loc 1 691 8 discriminator 3 view .LVU373
 1542 0052 0028     		cmp	r0, #0
 1543 0054 46D1     		bne	.L167
 692:src-gen/Main/core/reactor_common.c ****          lf_print_warning("_lf_schedule_at_tag: event time is past the timeout. Discarding event.")
 693:src-gen/Main/core/reactor_common.c ****         _lf_done_using(token);
 694:src-gen/Main/core/reactor_common.c ****         return -1;
 695:src-gen/Main/core/reactor_common.c ****     }
 696:src-gen/Main/core/reactor_common.c **** 
 697:src-gen/Main/core/reactor_common.c ****     event_t* e = _lf_get_new_event(env);
 1544              		.loc 1 697 5 is_stmt 1 view .LVU374
ARM GAS  /var/folders/2h/lww79zv53b510qlyvytqnvq40000gn/T//ccDbZlJP.s 			page 46


 1545              		.loc 1 697 18 is_stmt 0 view .LVU375
 1546 0056 3046     		mov	r0, r6
 1547 0058 FFF7FEFF 		bl	_lf_get_new_event
 1548              	.LVL138:
 1549 005c 0446     		mov	r4, r0
 1550              	.LVL139:
 698:src-gen/Main/core/reactor_common.c ****     // Set the event time
 699:src-gen/Main/core/reactor_common.c ****     e->time = tag.time;
 1551              		.loc 1 699 5 is_stmt 1 view .LVU376
 1552              		.loc 1 699 18 is_stmt 0 view .LVU377
 1553 005e DDF860A0 		ldr	r10, [sp, #96]
 1554 0062 DDF86490 		ldr	r9, [sp, #100]
 1555              		.loc 1 699 13 view .LVU378
 1556 0066 C0F800A0 		str	r10, [r0]
 1557 006a C0F80490 		str	r9, [r0, #4]
 700:src-gen/Main/core/reactor_common.c **** 
 701:src-gen/Main/core/reactor_common.c ****     tracepoint_schedule(env->trace, trigger, tag.time - current_logical_tag.time);
 1558              		.loc 1 701 82 is_stmt 1 view .LVU379
 702:src-gen/Main/core/reactor_common.c **** 
 703:src-gen/Main/core/reactor_common.c ****     // Make sure the event points to this trigger so when it is
 704:src-gen/Main/core/reactor_common.c ****     // dequeued, it will trigger this trigger.
 705:src-gen/Main/core/reactor_common.c ****     e->trigger = trigger;
 1559              		.loc 1 705 5 view .LVU380
 1560              		.loc 1 705 16 is_stmt 0 view .LVU381
 1561 006e C0F80880 		str	r8, [r0, #8]
 706:src-gen/Main/core/reactor_common.c **** 
 707:src-gen/Main/core/reactor_common.c ****     // Set the payload.
 708:src-gen/Main/core/reactor_common.c ****     e->token = token;
 1562              		.loc 1 708 5 is_stmt 1 view .LVU382
 1563              		.loc 1 708 14 is_stmt 0 view .LVU383
 1564 0072 0761     		str	r7, [r0, #16]
 709:src-gen/Main/core/reactor_common.c **** 
 710:src-gen/Main/core/reactor_common.c **** #ifdef FEDERATED_DECENTRALIZED
 711:src-gen/Main/core/reactor_common.c ****     // Set the intended tag
 712:src-gen/Main/core/reactor_common.c ****     e->intended_tag = trigger->intended_tag;
 713:src-gen/Main/core/reactor_common.c **** #endif
 714:src-gen/Main/core/reactor_common.c **** 
 715:src-gen/Main/core/reactor_common.c ****     event_t* found = (event_t *)pqueue_find_equal_same_priority(env->event_q, e);
 1565              		.loc 1 715 5 is_stmt 1 view .LVU384
 1566              		.loc 1 715 33 is_stmt 0 view .LVU385
 1567 0074 0146     		mov	r1, r0
 1568 0076 B06A     		ldr	r0, [r6, #40]
 1569              	.LVL140:
 1570              		.loc 1 715 33 view .LVU386
 1571 0078 FFF7FEFF 		bl	pqueue_find_equal_same_priority
 1572              	.LVL141:
 716:src-gen/Main/core/reactor_common.c ****     if (found != NULL) {
 1573              		.loc 1 716 5 is_stmt 1 view .LVU387
 1574              		.loc 1 716 8 is_stmt 0 view .LVU388
 1575 007c 0546     		mov	r5, r0
 1576 007e 0028     		cmp	r0, #0
 1577 0080 00F0C380 		beq	.L135
 717:src-gen/Main/core/reactor_common.c ****         if (tag.microstep == 0u) {
 1578              		.loc 1 717 9 is_stmt 1 view .LVU389
 1579              		.loc 1 717 16 is_stmt 0 view .LVU390
 1580 0084 1A99     		ldr	r1, [sp, #104]
 1581              		.loc 1 717 12 view .LVU391
ARM GAS  /var/folders/2h/lww79zv53b510qlyvytqnvq40000gn/T//ccDbZlJP.s 			page 47


 1582 0086 0029     		cmp	r1, #0
 1583 0088 5AD1     		bne	.L136
 718:src-gen/Main/core/reactor_common.c ****                 // The microstep is 0, which means that the event is being scheduled
 719:src-gen/Main/core/reactor_common.c ****                 // at a future time and at the beginning of the skip list of events
 720:src-gen/Main/core/reactor_common.c ****                 // at that time.
 721:src-gen/Main/core/reactor_common.c ****                 // In case the event is a dummy event
 722:src-gen/Main/core/reactor_common.c ****                 // convert it to a real event.
 723:src-gen/Main/core/reactor_common.c ****                 found->is_dummy = false;
 1584              		.loc 1 723 17 is_stmt 1 view .LVU392
 1585              		.loc 1 723 33 is_stmt 0 view .LVU393
 1586 008a 0023     		movs	r3, #0
 1587 008c 0375     		strb	r3, [r0, #20]
 724:src-gen/Main/core/reactor_common.c ****                 switch (trigger->policy) {
 1588              		.loc 1 724 17 is_stmt 1 view .LVU394
 1589              		.loc 1 724 32 is_stmt 0 view .LVU395
 1590 008e 98F83830 		ldrb	r3, [r8, #56]	@ zero_extendqisi2
 1591              		.loc 1 724 17 view .LVU396
 1592 0092 012B     		cmp	r3, #1
 1593 0094 33D0     		beq	.L137
 1594 0096 022B     		cmp	r3, #2
 1595 0098 3DD0     		beq	.L138
 725:src-gen/Main/core/reactor_common.c ****                     case drop:
 726:src-gen/Main/core/reactor_common.c ****                         if (found->token != token) {
 727:src-gen/Main/core/reactor_common.c ****                             _lf_done_using(token);
 728:src-gen/Main/core/reactor_common.c ****                         }
 729:src-gen/Main/core/reactor_common.c ****                         _lf_recycle_event(env, e);
 730:src-gen/Main/core/reactor_common.c ****                         return(0);
 731:src-gen/Main/core/reactor_common.c ****                         break;
 732:src-gen/Main/core/reactor_common.c ****                     case replace:
 733:src-gen/Main/core/reactor_common.c ****                         // Replace the payload of the event at the head with our
 734:src-gen/Main/core/reactor_common.c ****                         // current payload.
 735:src-gen/Main/core/reactor_common.c ****                         _lf_replace_token(found, token);
 736:src-gen/Main/core/reactor_common.c ****                         _lf_recycle_event(env, e);
 737:src-gen/Main/core/reactor_common.c ****                         return 0;
 738:src-gen/Main/core/reactor_common.c ****                         break;
 1596              		.loc 1 738 25 is_stmt 1 view .LVU397
 739:src-gen/Main/core/reactor_common.c ****                     default:
 740:src-gen/Main/core/reactor_common.c ****                         // Adding a microstep to the original
 741:src-gen/Main/core/reactor_common.c ****                         // intended tag.
 742:src-gen/Main/core/reactor_common.c ****                         if (_lf_is_tag_after_stop_tag(env, (tag_t) {.time=found->time,.microstep=1}
 1597              		.loc 1 742 25 view .LVU398
 1598              	.LBB18:
 1599              		.loc 1 742 80 is_stmt 0 view .LVU399
 1600 009a D0E90023 		ldrd	r2, [r0]
 1601              		.loc 1 742 68 view .LVU400
 1602 009e CDE90823 		strd	r2, [sp, #32]
 1603 00a2 0123     		movs	r3, #1
 1604 00a4 0A93     		str	r3, [sp, #40]
 1605              		.loc 1 742 29 view .LVU401
 1606 00a6 0AAB     		add	r3, sp, #40
 1607 00a8 93E80300 		ldm	r3, {r0, r1}
 1608              	.LVL142:
 1609              		.loc 1 742 29 view .LVU402
 1610 00ac 8DE80300 		stm	sp, {r0, r1}
 1611 00b0 08AB     		add	r3, sp, #32
 1612 00b2 0CCB     		ldm	r3, {r2, r3}
 1613 00b4 3046     		mov	r0, r6
ARM GAS  /var/folders/2h/lww79zv53b510qlyvytqnvq40000gn/T//ccDbZlJP.s 			page 48


 1614 00b6 FFF7FEFF 		bl	_lf_is_tag_after_stop_tag
 1615              	.LVL143:
 1616              		.loc 1 742 28 view .LVU403
 1617 00ba 0028     		cmp	r0, #0
 1618 00bc 34D1     		bne	.L168
 1619              	.LBE18:
 743:src-gen/Main/core/reactor_common.c ****                             // Scheduling e will incur a microstep after the stop tag,
 744:src-gen/Main/core/reactor_common.c ****                             // which is illegal.
 745:src-gen/Main/core/reactor_common.c ****                             _lf_recycle_event(env, e);
 746:src-gen/Main/core/reactor_common.c ****                             return 0;
 747:src-gen/Main/core/reactor_common.c ****                         }
 748:src-gen/Main/core/reactor_common.c ****                         if (found->next != NULL) {
 1620              		.loc 1 748 25 is_stmt 1 view .LVU404
 1621              		.loc 1 748 34 is_stmt 0 view .LVU405
 1622 00be AB69     		ldr	r3, [r5, #24]
 1623              		.loc 1 748 28 view .LVU406
 1624 00c0 002B     		cmp	r3, #0
 1625 00c2 37D1     		bne	.L169
 749:src-gen/Main/core/reactor_common.c ****                             lf_print_error("_lf_schedule_at_tag: in-order contract violated.");
 750:src-gen/Main/core/reactor_common.c ****                             return -1;
 751:src-gen/Main/core/reactor_common.c ****                         }
 752:src-gen/Main/core/reactor_common.c ****                         found->next = e;
 1626              		.loc 1 752 25 is_stmt 1 view .LVU407
 1627              		.loc 1 752 37 is_stmt 0 view .LVU408
 1628 00c4 AC61     		str	r4, [r5, #24]
 753:src-gen/Main/core/reactor_common.c ****                 }
 754:src-gen/Main/core/reactor_common.c ****         } else {
 755:src-gen/Main/core/reactor_common.c ****             // We are requesting a microstep greater than 0
 756:src-gen/Main/core/reactor_common.c ****             // where there is already an event for this trigger on the event queue.
 757:src-gen/Main/core/reactor_common.c ****             // That event may itself be a dummy event for a real event that is
 758:src-gen/Main/core/reactor_common.c ****             // also at a microstep greater than 0.
 759:src-gen/Main/core/reactor_common.c ****             // We have to insert our event into the chain or append it
 760:src-gen/Main/core/reactor_common.c ****             // to the end of the chain, depending on which microstep is lesser.
 761:src-gen/Main/core/reactor_common.c ****             microstep_t microstep_of_found = 0;
 762:src-gen/Main/core/reactor_common.c ****             if (tag.time == current_logical_tag.time) {
 763:src-gen/Main/core/reactor_common.c ****                 // This is a situation where the head of the queue
 764:src-gen/Main/core/reactor_common.c ****                 // is an event with microstep == current_microstep + 1
 765:src-gen/Main/core/reactor_common.c ****                 // which should be reflected in our steps calculation.
 766:src-gen/Main/core/reactor_common.c ****                 microstep_of_found += current_logical_tag.microstep + 1; // Indicating that
 767:src-gen/Main/core/reactor_common.c ****                                                             // the found event
 768:src-gen/Main/core/reactor_common.c ****                                                             // is at this microstep.
 769:src-gen/Main/core/reactor_common.c ****             }
 770:src-gen/Main/core/reactor_common.c ****             // Follow the chain of events until the right point
 771:src-gen/Main/core/reactor_common.c ****             // to insert the new event.
 772:src-gen/Main/core/reactor_common.c ****             while (microstep_of_found < tag.microstep - 1) {
 773:src-gen/Main/core/reactor_common.c ****                 if (found->next == NULL) {
 774:src-gen/Main/core/reactor_common.c ****                     // The chain stops short of where we want to be.
 775:src-gen/Main/core/reactor_common.c ****                     // If it exactly one microstep short of where we want to be,
 776:src-gen/Main/core/reactor_common.c ****                     // then we don't need a dummy. Otherwise, we do.
 777:src-gen/Main/core/reactor_common.c ****                     microstep_t undershot_by = (tag.microstep - 1) - microstep_of_found;
 778:src-gen/Main/core/reactor_common.c ****                     if (undershot_by > 0) {
 779:src-gen/Main/core/reactor_common.c ****                         found->next = _lf_create_dummy_events(env, trigger, tag.time, e, undershot_
 780:src-gen/Main/core/reactor_common.c ****                     } else {
 781:src-gen/Main/core/reactor_common.c ****                         found->next = e;
 782:src-gen/Main/core/reactor_common.c ****                     }
 783:src-gen/Main/core/reactor_common.c ****                     return 1;
 784:src-gen/Main/core/reactor_common.c ****                 }
ARM GAS  /var/folders/2h/lww79zv53b510qlyvytqnvq40000gn/T//ccDbZlJP.s 			page 49


 785:src-gen/Main/core/reactor_common.c ****                 found = found->next;
 786:src-gen/Main/core/reactor_common.c ****                 microstep_of_found++;
 787:src-gen/Main/core/reactor_common.c ****             }
 788:src-gen/Main/core/reactor_common.c ****             // At this point, microstep_of_found == tag.microstep - 1.
 789:src-gen/Main/core/reactor_common.c ****             if (found->next == NULL) {
 790:src-gen/Main/core/reactor_common.c ****                 found->next = e;
 791:src-gen/Main/core/reactor_common.c ****             } else {
 792:src-gen/Main/core/reactor_common.c ****                 switch (trigger->policy) {
 793:src-gen/Main/core/reactor_common.c ****                     case drop:
 794:src-gen/Main/core/reactor_common.c ****                         if (found->next->token != token) {
 795:src-gen/Main/core/reactor_common.c ****                             _lf_done_using(token);
 796:src-gen/Main/core/reactor_common.c ****                         }
 797:src-gen/Main/core/reactor_common.c ****                         _lf_recycle_event(env, e);
 798:src-gen/Main/core/reactor_common.c ****                         return 0;
 799:src-gen/Main/core/reactor_common.c ****                         break;
 800:src-gen/Main/core/reactor_common.c ****                     case replace:
 801:src-gen/Main/core/reactor_common.c ****                         // Replace the payload of the event at the head with our
 802:src-gen/Main/core/reactor_common.c ****                         // current payload.
 803:src-gen/Main/core/reactor_common.c ****                         _lf_replace_token(found->next, token);
 804:src-gen/Main/core/reactor_common.c ****                         _lf_recycle_event(env, e);
 805:src-gen/Main/core/reactor_common.c ****                         return 0;
 806:src-gen/Main/core/reactor_common.c ****                         break;
 807:src-gen/Main/core/reactor_common.c ****                     default:
 808:src-gen/Main/core/reactor_common.c ****                         // Adding a microstep to the original
 809:src-gen/Main/core/reactor_common.c ****                         // intended tag.
 810:src-gen/Main/core/reactor_common.c ****                         if (_lf_is_tag_after_stop_tag(env, (tag_t){.time=found->time,.microstep=mic
 811:src-gen/Main/core/reactor_common.c ****                             // Scheduling e will incur a microstep at timeout,
 812:src-gen/Main/core/reactor_common.c ****                             // which is illegal.
 813:src-gen/Main/core/reactor_common.c ****                             _lf_recycle_event(env, e);
 814:src-gen/Main/core/reactor_common.c ****                             return 0;
 815:src-gen/Main/core/reactor_common.c ****                         }
 816:src-gen/Main/core/reactor_common.c ****                         if (found->next->next != NULL) {
 817:src-gen/Main/core/reactor_common.c ****                             lf_print_error("_lf_schedule_at_tag: in-order contract violated.");
 818:src-gen/Main/core/reactor_common.c ****                             return -1;
 819:src-gen/Main/core/reactor_common.c ****                         }
 820:src-gen/Main/core/reactor_common.c ****                         found->next->next = e;
 821:src-gen/Main/core/reactor_common.c ****                 }
 822:src-gen/Main/core/reactor_common.c ****             }
 823:src-gen/Main/core/reactor_common.c ****         }
 824:src-gen/Main/core/reactor_common.c ****     } else {
 825:src-gen/Main/core/reactor_common.c ****         // No existing event queued.
 826:src-gen/Main/core/reactor_common.c ****         microstep_t relative_microstep = tag.microstep;
 827:src-gen/Main/core/reactor_common.c ****         if (tag.time == current_logical_tag.time) {
 828:src-gen/Main/core/reactor_common.c ****             relative_microstep -= current_logical_tag.microstep;
 829:src-gen/Main/core/reactor_common.c ****         }
 830:src-gen/Main/core/reactor_common.c ****         if (((tag.time == current_logical_tag.time) && (relative_microstep == 1)) ||
 831:src-gen/Main/core/reactor_common.c ****                 tag.microstep == 0) {
 832:src-gen/Main/core/reactor_common.c ****             // Do not need a dummy event if we are scheduling at 1 microstep
 833:src-gen/Main/core/reactor_common.c ****             // in the future at current time or at microstep 0 in a future time.
 834:src-gen/Main/core/reactor_common.c ****             pqueue_insert(env->event_q, e);
 835:src-gen/Main/core/reactor_common.c ****         } else {
 836:src-gen/Main/core/reactor_common.c ****             // Create a dummy event. Insert it into the queue, and let its next
 837:src-gen/Main/core/reactor_common.c ****             // pointer point to the actual event.
 838:src-gen/Main/core/reactor_common.c ****             pqueue_insert(env->event_q, _lf_create_dummy_events(env, trigger, tag.time, e, relative
 839:src-gen/Main/core/reactor_common.c ****         }
 840:src-gen/Main/core/reactor_common.c ****     }
 841:src-gen/Main/core/reactor_common.c ****     return 1;
ARM GAS  /var/folders/2h/lww79zv53b510qlyvytqnvq40000gn/T//ccDbZlJP.s 			page 50


 1629              		.loc 1 841 12 view .LVU409
 1630 00c6 0120     		movs	r0, #1
 1631 00c8 14E0     		b	.L129
 1632              	.LVL144:
 1633              	.L165:
 672:src-gen/Main/core/reactor_common.c ****     tag_t current_logical_tag = env->current_tag;
 1634              		.loc 1 672 5 discriminator 1 view .LVU410
 1635 00ca 644B     		ldr	r3, .L179
 1636 00cc 644A     		ldr	r2, .L179+4
 1637 00ce 4FF42871 		mov	r1, #672
 1638 00d2 6448     		ldr	r0, .L179+8
 1639              	.LVL145:
 672:src-gen/Main/core/reactor_common.c ****     tag_t current_logical_tag = env->current_tag;
 1640              		.loc 1 672 5 discriminator 1 view .LVU411
 1641 00d4 FFF7FEFF 		bl	__assert_func
 1642              	.LVL146:
 1643              	.L166:
 679:src-gen/Main/core/reactor_common.c ****         return -1;
 1644              		.loc 1 679 9 is_stmt 1 view .LVU412
 1645 00d8 6348     		ldr	r0, .L179+12
 1646 00da FFF7FEFF 		bl	lf_print_warning
 1647              	.LVL147:
 680:src-gen/Main/core/reactor_common.c ****     }
 1648              		.loc 1 680 9 view .LVU413
 680:src-gen/Main/core/reactor_common.c ****     }
 1649              		.loc 1 680 16 is_stmt 0 view .LVU414
 1650 00de 4FF0FF30 		mov	r0, #-1
 1651 00e2 07E0     		b	.L129
 1652              	.L167:
 692:src-gen/Main/core/reactor_common.c ****         _lf_done_using(token);
 1653              		.loc 1 692 10 is_stmt 1 view .LVU415
 1654 00e4 6148     		ldr	r0, .L179+16
 1655 00e6 FFF7FEFF 		bl	lf_print_warning
 1656              	.LVL148:
 693:src-gen/Main/core/reactor_common.c ****         return -1;
 1657              		.loc 1 693 9 view .LVU416
 1658 00ea 3846     		mov	r0, r7
 1659 00ec FFF7FEFF 		bl	_lf_done_using
 1660              	.LVL149:
 694:src-gen/Main/core/reactor_common.c ****     }
 1661              		.loc 1 694 9 view .LVU417
 694:src-gen/Main/core/reactor_common.c ****     }
 1662              		.loc 1 694 16 is_stmt 0 view .LVU418
 1663 00f0 4FF0FF30 		mov	r0, #-1
 1664              	.L129:
 842:src-gen/Main/core/reactor_common.c **** }
 1665              		.loc 1 842 1 view .LVU419
 1666 00f4 10B0     		add	sp, sp, #64
 1667              	.LCFI32:
 1668              		.cfi_remember_state
 1669              		.cfi_def_cfa_offset 40
 1670              		@ sp needed
 1671 00f6 BDE8F047 		pop	{r4, r5, r6, r7, r8, r9, r10, lr}
 1672              	.LCFI33:
 1673              		.cfi_restore 14
 1674              		.cfi_restore 10
 1675              		.cfi_restore 9
ARM GAS  /var/folders/2h/lww79zv53b510qlyvytqnvq40000gn/T//ccDbZlJP.s 			page 51


 1676              		.cfi_restore 8
 1677              		.cfi_restore 7
 1678              		.cfi_restore 6
 1679              		.cfi_restore 5
 1680              		.cfi_restore 4
 1681              		.cfi_def_cfa_offset 8
 1682              	.LVL150:
 1683              		.loc 1 842 1 view .LVU420
 1684 00fa 02B0     		add	sp, sp, #8
 1685              	.LCFI34:
 1686              		.cfi_def_cfa_offset 0
 1687 00fc 7047     		bx	lr
 1688              	.LVL151:
 1689              	.L137:
 1690              	.LCFI35:
 1691              		.cfi_restore_state
 726:src-gen/Main/core/reactor_common.c ****                             _lf_done_using(token);
 1692              		.loc 1 726 25 is_stmt 1 view .LVU421
 726:src-gen/Main/core/reactor_common.c ****                             _lf_done_using(token);
 1693              		.loc 1 726 34 is_stmt 0 view .LVU422
 1694 00fe 0369     		ldr	r3, [r0, #16]
 726:src-gen/Main/core/reactor_common.c ****                             _lf_done_using(token);
 1695              		.loc 1 726 28 view .LVU423
 1696 0100 BB42     		cmp	r3, r7
 1697 0102 02D0     		beq	.L140
 727:src-gen/Main/core/reactor_common.c ****                         }
 1698              		.loc 1 727 29 is_stmt 1 view .LVU424
 1699 0104 3846     		mov	r0, r7
 1700              	.LVL152:
 727:src-gen/Main/core/reactor_common.c ****                         }
 1701              		.loc 1 727 29 is_stmt 0 view .LVU425
 1702 0106 FFF7FEFF 		bl	_lf_done_using
 1703              	.LVL153:
 1704              	.L140:
 729:src-gen/Main/core/reactor_common.c ****                         return(0);
 1705              		.loc 1 729 25 is_stmt 1 view .LVU426
 1706 010a 2146     		mov	r1, r4
 1707 010c 3046     		mov	r0, r6
 1708 010e FFF7FEFF 		bl	_lf_recycle_event
 1709              	.LVL154:
 730:src-gen/Main/core/reactor_common.c ****                         break;
 1710              		.loc 1 730 25 view .LVU427
 730:src-gen/Main/core/reactor_common.c ****                         break;
 1711              		.loc 1 730 31 is_stmt 0 view .LVU428
 1712 0112 0020     		movs	r0, #0
 1713 0114 EEE7     		b	.L129
 1714              	.LVL155:
 1715              	.L138:
 731:src-gen/Main/core/reactor_common.c ****                     case replace:
 1716              		.loc 1 731 25 is_stmt 1 view .LVU429
 735:src-gen/Main/core/reactor_common.c ****                         _lf_recycle_event(env, e);
 1717              		.loc 1 735 25 view .LVU430
 1718 0116 3946     		mov	r1, r7
 1719 0118 FFF7FEFF 		bl	_lf_replace_token
 1720              	.LVL156:
 736:src-gen/Main/core/reactor_common.c ****                         return 0;
 1721              		.loc 1 736 25 view .LVU431
ARM GAS  /var/folders/2h/lww79zv53b510qlyvytqnvq40000gn/T//ccDbZlJP.s 			page 52


 1722 011c 2146     		mov	r1, r4
 1723 011e 3046     		mov	r0, r6
 1724 0120 FFF7FEFF 		bl	_lf_recycle_event
 1725              	.LVL157:
 737:src-gen/Main/core/reactor_common.c ****                         break;
 1726              		.loc 1 737 25 view .LVU432
 737:src-gen/Main/core/reactor_common.c ****                         break;
 1727              		.loc 1 737 32 is_stmt 0 view .LVU433
 1728 0124 0020     		movs	r0, #0
 1729 0126 E5E7     		b	.L129
 1730              	.L168:
 1731              	.LBB19:
 745:src-gen/Main/core/reactor_common.c ****                             return 0;
 1732              		.loc 1 745 29 is_stmt 1 view .LVU434
 1733 0128 2146     		mov	r1, r4
 1734 012a 3046     		mov	r0, r6
 1735 012c FFF7FEFF 		bl	_lf_recycle_event
 1736              	.LVL158:
 746:src-gen/Main/core/reactor_common.c ****                         }
 1737              		.loc 1 746 29 view .LVU435
 746:src-gen/Main/core/reactor_common.c ****                         }
 1738              		.loc 1 746 36 is_stmt 0 view .LVU436
 1739 0130 0020     		movs	r0, #0
 1740 0132 DFE7     		b	.L129
 1741              	.L169:
 746:src-gen/Main/core/reactor_common.c ****                         }
 1742              		.loc 1 746 36 view .LVU437
 1743              	.LBE19:
 749:src-gen/Main/core/reactor_common.c ****                             return -1;
 1744              		.loc 1 749 29 is_stmt 1 view .LVU438
 1745 0134 4E48     		ldr	r0, .L179+20
 1746 0136 FFF7FEFF 		bl	lf_print_error
 1747              	.LVL159:
 750:src-gen/Main/core/reactor_common.c ****                         }
 1748              		.loc 1 750 29 view .LVU439
 750:src-gen/Main/core/reactor_common.c ****                         }
 1749              		.loc 1 750 36 is_stmt 0 view .LVU440
 1750 013a 4FF0FF30 		mov	r0, #-1
 1751 013e D9E7     		b	.L129
 1752              	.LVL160:
 1753              	.L136:
 1754              	.LBB20:
 761:src-gen/Main/core/reactor_common.c ****             if (tag.time == current_logical_tag.time) {
 1755              		.loc 1 761 13 is_stmt 1 view .LVU441
 762:src-gen/Main/core/reactor_common.c ****                 // This is a situation where the head of the queue
 1756              		.loc 1 762 13 view .LVU442
 762:src-gen/Main/core/reactor_common.c ****                 // This is a situation where the head of the queue
 1757              		.loc 1 762 16 is_stmt 0 view .LVU443
 1758 0140 049A     		ldr	r2, [sp, #16]
 1759 0142 059B     		ldr	r3, [sp, #20]
 1760 0144 9945     		cmp	r9, r3
 1761 0146 08BF     		it	eq
 1762 0148 9245     		cmpeq	r10, r2
 1763 014a 08D0     		beq	.L170
 761:src-gen/Main/core/reactor_common.c ****             if (tag.time == current_logical_tag.time) {
 1764              		.loc 1 761 25 view .LVU444
 1765 014c 0023     		movs	r3, #0
ARM GAS  /var/folders/2h/lww79zv53b510qlyvytqnvq40000gn/T//ccDbZlJP.s 			page 53


 1766              	.LVL161:
 1767              	.L147:
 772:src-gen/Main/core/reactor_common.c ****                 if (found->next == NULL) {
 1768              		.loc 1 772 39 is_stmt 1 view .LVU445
 772:src-gen/Main/core/reactor_common.c ****                 if (found->next == NULL) {
 1769              		.loc 1 772 55 is_stmt 0 view .LVU446
 1770 014e 4A1E     		subs	r2, r1, #1
 772:src-gen/Main/core/reactor_common.c ****                 if (found->next == NULL) {
 1771              		.loc 1 772 39 view .LVU447
 1772 0150 9342     		cmp	r3, r2
 1773 0152 17D2     		bcs	.L171
 773:src-gen/Main/core/reactor_common.c ****                     // The chain stops short of where we want to be.
 1774              		.loc 1 773 17 is_stmt 1 view .LVU448
 773:src-gen/Main/core/reactor_common.c ****                     // The chain stops short of where we want to be.
 1775              		.loc 1 773 26 is_stmt 0 view .LVU449
 1776 0154 AA69     		ldr	r2, [r5, #24]
 773:src-gen/Main/core/reactor_common.c ****                     // The chain stops short of where we want to be.
 1777              		.loc 1 773 20 view .LVU450
 1778 0156 2AB1     		cbz	r2, .L172
 785:src-gen/Main/core/reactor_common.c ****                 microstep_of_found++;
 1779              		.loc 1 785 17 is_stmt 1 view .LVU451
 1780              	.LVL162:
 786:src-gen/Main/core/reactor_common.c ****             }
 1781              		.loc 1 786 17 view .LVU452
 786:src-gen/Main/core/reactor_common.c ****             }
 1782              		.loc 1 786 35 is_stmt 0 view .LVU453
 1783 0158 0133     		adds	r3, r3, #1
 1784              	.LVL163:
 785:src-gen/Main/core/reactor_common.c ****                 microstep_of_found++;
 1785              		.loc 1 785 23 view .LVU454
 1786 015a 1546     		mov	r5, r2
 1787 015c F7E7     		b	.L147
 1788              	.LVL164:
 1789              	.L170:
 766:src-gen/Main/core/reactor_common.c ****                                                             // the found event
 1790              		.loc 1 766 17 is_stmt 1 view .LVU455
 766:src-gen/Main/core/reactor_common.c ****                                                             // the found event
 1791              		.loc 1 766 58 is_stmt 0 view .LVU456
 1792 015e 069B     		ldr	r3, [sp, #24]
 766:src-gen/Main/core/reactor_common.c ****                                                             // the found event
 1793              		.loc 1 766 36 view .LVU457
 1794 0160 0133     		adds	r3, r3, #1
 1795              	.LVL165:
 766:src-gen/Main/core/reactor_common.c ****                                                             // the found event
 1796              		.loc 1 766 36 view .LVU458
 1797 0162 F4E7     		b	.L147
 1798              	.LVL166:
 1799              	.L172:
 1800              	.LBB21:
 777:src-gen/Main/core/reactor_common.c ****                     if (undershot_by > 0) {
 1801              		.loc 1 777 21 is_stmt 1 view .LVU459
 777:src-gen/Main/core/reactor_common.c ****                     if (undershot_by > 0) {
 1802              		.loc 1 777 68 is_stmt 0 view .LVU460
 1803 0164 C91A     		subs	r1, r1, r3
 1804              	.LVL167:
 778:src-gen/Main/core/reactor_common.c ****                         found->next = _lf_create_dummy_events(env, trigger, tag.time, e, undershot_
 1805              		.loc 1 778 21 is_stmt 1 view .LVU461
ARM GAS  /var/folders/2h/lww79zv53b510qlyvytqnvq40000gn/T//ccDbZlJP.s 			page 54


 778:src-gen/Main/core/reactor_common.c ****                         found->next = _lf_create_dummy_events(env, trigger, tag.time, e, undershot_
 1806              		.loc 1 778 24 is_stmt 0 view .LVU462
 1807 0166 0139     		subs	r1, r1, #1
 1808              	.LVL168:
 778:src-gen/Main/core/reactor_common.c ****                         found->next = _lf_create_dummy_events(env, trigger, tag.time, e, undershot_
 1809              		.loc 1 778 24 view .LVU463
 1810 0168 02D1     		bne	.L173
 781:src-gen/Main/core/reactor_common.c ****                     }
 1811              		.loc 1 781 25 is_stmt 1 view .LVU464
 781:src-gen/Main/core/reactor_common.c ****                     }
 1812              		.loc 1 781 37 is_stmt 0 view .LVU465
 1813 016a AC61     		str	r4, [r5, #24]
 1814              	.LVL169:
 1815              	.L146:
 783:src-gen/Main/core/reactor_common.c ****                 }
 1816              		.loc 1 783 21 is_stmt 1 view .LVU466
 783:src-gen/Main/core/reactor_common.c ****                 }
 1817              		.loc 1 783 28 is_stmt 0 view .LVU467
 1818 016c 0120     		movs	r0, #1
 1819 016e C1E7     		b	.L129
 1820              	.LVL170:
 1821              	.L173:
 779:src-gen/Main/core/reactor_common.c ****                     } else {
 1822              		.loc 1 779 25 is_stmt 1 view .LVU468
 779:src-gen/Main/core/reactor_common.c ****                     } else {
 1823              		.loc 1 779 39 is_stmt 0 view .LVU469
 1824 0170 0191     		str	r1, [sp, #4]
 1825 0172 0094     		str	r4, [sp]
 1826 0174 5246     		mov	r2, r10
 1827 0176 4B46     		mov	r3, r9
 1828              	.LVL171:
 779:src-gen/Main/core/reactor_common.c ****                     } else {
 1829              		.loc 1 779 39 view .LVU470
 1830 0178 4146     		mov	r1, r8
 1831              	.LVL172:
 779:src-gen/Main/core/reactor_common.c ****                     } else {
 1832              		.loc 1 779 39 view .LVU471
 1833 017a 3046     		mov	r0, r6
 1834 017c FFF7FEFF 		bl	_lf_create_dummy_events
 1835              	.LVL173:
 779:src-gen/Main/core/reactor_common.c ****                     } else {
 1836              		.loc 1 779 37 view .LVU472
 1837 0180 A861     		str	r0, [r5, #24]
 1838 0182 F3E7     		b	.L146
 1839              	.LVL174:
 1840              	.L171:
 779:src-gen/Main/core/reactor_common.c ****                     } else {
 1841              		.loc 1 779 37 view .LVU473
 1842              	.LBE21:
 789:src-gen/Main/core/reactor_common.c ****                 found->next = e;
 1843              		.loc 1 789 13 is_stmt 1 view .LVU474
 789:src-gen/Main/core/reactor_common.c ****                 found->next = e;
 1844              		.loc 1 789 22 is_stmt 0 view .LVU475
 1845 0184 A869     		ldr	r0, [r5, #24]
 789:src-gen/Main/core/reactor_common.c ****                 found->next = e;
 1846              		.loc 1 789 16 view .LVU476
 1847 0186 E0B1     		cbz	r0, .L174
ARM GAS  /var/folders/2h/lww79zv53b510qlyvytqnvq40000gn/T//ccDbZlJP.s 			page 55


 792:src-gen/Main/core/reactor_common.c ****                     case drop:
 1848              		.loc 1 792 17 is_stmt 1 view .LVU477
 792:src-gen/Main/core/reactor_common.c ****                     case drop:
 1849              		.loc 1 792 32 is_stmt 0 view .LVU478
 1850 0188 98F83820 		ldrb	r2, [r8, #56]	@ zero_extendqisi2
 792:src-gen/Main/core/reactor_common.c ****                     case drop:
 1851              		.loc 1 792 17 view .LVU479
 1852 018c 012A     		cmp	r2, #1
 1853 018e 1BD0     		beq	.L150
 1854 0190 022A     		cmp	r2, #2
 1855 0192 25D0     		beq	.L151
 806:src-gen/Main/core/reactor_common.c ****                     default:
 1856              		.loc 1 806 25 is_stmt 1 view .LVU480
 810:src-gen/Main/core/reactor_common.c ****                             // Scheduling e will incur a microstep at timeout,
 1857              		.loc 1 810 25 view .LVU481
 1858              	.LBB22:
 810:src-gen/Main/core/reactor_common.c ****                             // Scheduling e will incur a microstep at timeout,
 1859              		.loc 1 810 79 is_stmt 0 view .LVU482
 1860 0194 D5E90001 		ldrd	r0, [r5]
 810:src-gen/Main/core/reactor_common.c ****                             // Scheduling e will incur a microstep at timeout,
 1861              		.loc 1 810 67 view .LVU483
 1862 0198 CDE90C01 		strd	r0, [sp, #48]
 810:src-gen/Main/core/reactor_common.c ****                             // Scheduling e will incur a microstep at timeout,
 1863              		.loc 1 810 115 view .LVU484
 1864 019c 0133     		adds	r3, r3, #1
 1865              	.LVL175:
 810:src-gen/Main/core/reactor_common.c ****                             // Scheduling e will incur a microstep at timeout,
 1866              		.loc 1 810 67 view .LVU485
 1867 019e 0E93     		str	r3, [sp, #56]
 810:src-gen/Main/core/reactor_common.c ****                             // Scheduling e will incur a microstep at timeout,
 1868              		.loc 1 810 29 view .LVU486
 1869 01a0 10AB     		add	r3, sp, #64
 1870              	.LVL176:
 810:src-gen/Main/core/reactor_common.c ****                             // Scheduling e will incur a microstep at timeout,
 1871              		.loc 1 810 29 view .LVU487
 1872 01a2 13E90300 		ldmdb	r3, {r0, r1}
 1873 01a6 8DE80300 		stm	sp, {r0, r1}
 1874 01aa 0CAB     		add	r3, sp, #48
 1875 01ac 0CCB     		ldm	r3, {r2, r3}
 1876 01ae 3046     		mov	r0, r6
 1877 01b0 FFF7FEFF 		bl	_lf_is_tag_after_stop_tag
 1878              	.LVL177:
 810:src-gen/Main/core/reactor_common.c ****                             // Scheduling e will incur a microstep at timeout,
 1879              		.loc 1 810 28 view .LVU488
 1880 01b4 E8B9     		cbnz	r0, .L175
 1881              	.LBE22:
 816:src-gen/Main/core/reactor_common.c ****                             lf_print_error("_lf_schedule_at_tag: in-order contract violated.");
 1882              		.loc 1 816 25 is_stmt 1 view .LVU489
 816:src-gen/Main/core/reactor_common.c ****                             lf_print_error("_lf_schedule_at_tag: in-order contract violated.");
 1883              		.loc 1 816 34 is_stmt 0 view .LVU490
 1884 01b6 AB69     		ldr	r3, [r5, #24]
 816:src-gen/Main/core/reactor_common.c ****                             lf_print_error("_lf_schedule_at_tag: in-order contract violated.");
 1885              		.loc 1 816 40 view .LVU491
 1886 01b8 9A69     		ldr	r2, [r3, #24]
 816:src-gen/Main/core/reactor_common.c ****                             lf_print_error("_lf_schedule_at_tag: in-order contract violated.");
 1887              		.loc 1 816 28 view .LVU492
 1888 01ba 02BB     		cbnz	r2, .L176
ARM GAS  /var/folders/2h/lww79zv53b510qlyvytqnvq40000gn/T//ccDbZlJP.s 			page 56


 820:src-gen/Main/core/reactor_common.c ****                 }
 1889              		.loc 1 820 25 is_stmt 1 view .LVU493
 820:src-gen/Main/core/reactor_common.c ****                 }
 1890              		.loc 1 820 43 is_stmt 0 view .LVU494
 1891 01bc 9C61     		str	r4, [r3, #24]
 1892              	.LBE20:
 841:src-gen/Main/core/reactor_common.c **** }
 1893              		.loc 1 841 12 view .LVU495
 1894 01be 0120     		movs	r0, #1
 1895 01c0 98E7     		b	.L129
 1896              	.LVL178:
 1897              	.L174:
 1898              	.LBB24:
 790:src-gen/Main/core/reactor_common.c ****             } else {
 1899              		.loc 1 790 17 is_stmt 1 view .LVU496
 790:src-gen/Main/core/reactor_common.c ****             } else {
 1900              		.loc 1 790 29 is_stmt 0 view .LVU497
 1901 01c2 AC61     		str	r4, [r5, #24]
 1902              	.LBE24:
 841:src-gen/Main/core/reactor_common.c **** }
 1903              		.loc 1 841 12 view .LVU498
 1904 01c4 0120     		movs	r0, #1
 1905              	.LBB25:
 1906 01c6 95E7     		b	.L129
 1907              	.L150:
 794:src-gen/Main/core/reactor_common.c ****                             _lf_done_using(token);
 1908              		.loc 1 794 25 is_stmt 1 view .LVU499
 794:src-gen/Main/core/reactor_common.c ****                             _lf_done_using(token);
 1909              		.loc 1 794 40 is_stmt 0 view .LVU500
 1910 01c8 0369     		ldr	r3, [r0, #16]
 1911              	.LVL179:
 794:src-gen/Main/core/reactor_common.c ****                             _lf_done_using(token);
 1912              		.loc 1 794 28 view .LVU501
 1913 01ca BB42     		cmp	r3, r7
 1914 01cc 02D0     		beq	.L153
 795:src-gen/Main/core/reactor_common.c ****                         }
 1915              		.loc 1 795 29 is_stmt 1 view .LVU502
 1916 01ce 3846     		mov	r0, r7
 1917 01d0 FFF7FEFF 		bl	_lf_done_using
 1918              	.LVL180:
 1919              	.L153:
 797:src-gen/Main/core/reactor_common.c ****                         return 0;
 1920              		.loc 1 797 25 view .LVU503
 1921 01d4 2146     		mov	r1, r4
 1922 01d6 3046     		mov	r0, r6
 1923 01d8 FFF7FEFF 		bl	_lf_recycle_event
 1924              	.LVL181:
 798:src-gen/Main/core/reactor_common.c ****                         break;
 1925              		.loc 1 798 25 view .LVU504
 798:src-gen/Main/core/reactor_common.c ****                         break;
 1926              		.loc 1 798 32 is_stmt 0 view .LVU505
 1927 01dc 0020     		movs	r0, #0
 1928 01de 89E7     		b	.L129
 1929              	.LVL182:
 1930              	.L151:
 799:src-gen/Main/core/reactor_common.c ****                     case replace:
 1931              		.loc 1 799 25 is_stmt 1 view .LVU506
ARM GAS  /var/folders/2h/lww79zv53b510qlyvytqnvq40000gn/T//ccDbZlJP.s 			page 57


 803:src-gen/Main/core/reactor_common.c ****                         _lf_recycle_event(env, e);
 1932              		.loc 1 803 25 view .LVU507
 1933 01e0 3946     		mov	r1, r7
 1934 01e2 FFF7FEFF 		bl	_lf_replace_token
 1935              	.LVL183:
 804:src-gen/Main/core/reactor_common.c ****                         return 0;
 1936              		.loc 1 804 25 view .LVU508
 1937 01e6 2146     		mov	r1, r4
 1938 01e8 3046     		mov	r0, r6
 1939 01ea FFF7FEFF 		bl	_lf_recycle_event
 1940              	.LVL184:
 805:src-gen/Main/core/reactor_common.c ****                         break;
 1941              		.loc 1 805 25 view .LVU509
 805:src-gen/Main/core/reactor_common.c ****                         break;
 1942              		.loc 1 805 32 is_stmt 0 view .LVU510
 1943 01ee 0020     		movs	r0, #0
 1944 01f0 80E7     		b	.L129
 1945              	.LVL185:
 1946              	.L175:
 1947              	.LBB23:
 813:src-gen/Main/core/reactor_common.c ****                             return 0;
 1948              		.loc 1 813 29 is_stmt 1 view .LVU511
 1949 01f2 2146     		mov	r1, r4
 1950 01f4 3046     		mov	r0, r6
 1951 01f6 FFF7FEFF 		bl	_lf_recycle_event
 1952              	.LVL186:
 814:src-gen/Main/core/reactor_common.c ****                         }
 1953              		.loc 1 814 29 view .LVU512
 814:src-gen/Main/core/reactor_common.c ****                         }
 1954              		.loc 1 814 36 is_stmt 0 view .LVU513
 1955 01fa 0020     		movs	r0, #0
 1956 01fc 7AE7     		b	.L129
 1957              	.L176:
 814:src-gen/Main/core/reactor_common.c ****                         }
 1958              		.loc 1 814 36 view .LVU514
 1959              	.LBE23:
 817:src-gen/Main/core/reactor_common.c ****                             return -1;
 1960              		.loc 1 817 29 is_stmt 1 view .LVU515
 1961 01fe 1C48     		ldr	r0, .L179+20
 1962 0200 FFF7FEFF 		bl	lf_print_error
 1963              	.LVL187:
 818:src-gen/Main/core/reactor_common.c ****                         }
 1964              		.loc 1 818 29 view .LVU516
 818:src-gen/Main/core/reactor_common.c ****                         }
 1965              		.loc 1 818 36 is_stmt 0 view .LVU517
 1966 0204 4FF0FF30 		mov	r0, #-1
 1967 0208 74E7     		b	.L129
 1968              	.LVL188:
 1969              	.L135:
 818:src-gen/Main/core/reactor_common.c ****                         }
 1970              		.loc 1 818 36 view .LVU518
 1971              	.LBE25:
 1972              	.LBB26:
 826:src-gen/Main/core/reactor_common.c ****         if (tag.time == current_logical_tag.time) {
 1973              		.loc 1 826 9 is_stmt 1 view .LVU519
 826:src-gen/Main/core/reactor_common.c ****         if (tag.time == current_logical_tag.time) {
 1974              		.loc 1 826 21 is_stmt 0 view .LVU520
ARM GAS  /var/folders/2h/lww79zv53b510qlyvytqnvq40000gn/T//ccDbZlJP.s 			page 58


 1975 020a 1A99     		ldr	r1, [sp, #104]
 1976              	.LVL189:
 827:src-gen/Main/core/reactor_common.c ****             relative_microstep -= current_logical_tag.microstep;
 1977              		.loc 1 827 9 is_stmt 1 view .LVU521
 827:src-gen/Main/core/reactor_common.c ****             relative_microstep -= current_logical_tag.microstep;
 1978              		.loc 1 827 44 is_stmt 0 view .LVU522
 1979 020c 049A     		ldr	r2, [sp, #16]
 1980 020e 059B     		ldr	r3, [sp, #20]
 827:src-gen/Main/core/reactor_common.c ****             relative_microstep -= current_logical_tag.microstep;
 1981              		.loc 1 827 12 view .LVU523
 1982 0210 9945     		cmp	r9, r3
 1983 0212 08BF     		it	eq
 1984 0214 9245     		cmpeq	r10, r2
 1985 0216 0BD0     		beq	.L177
 826:src-gen/Main/core/reactor_common.c ****         if (tag.time == current_logical_tag.time) {
 1986              		.loc 1 826 21 view .LVU524
 1987 0218 0846     		mov	r0, r1
 1988              	.LVL190:
 1989              	.L156:
 830:src-gen/Main/core/reactor_common.c ****                 tag.microstep == 0) {
 1990              		.loc 1 830 9 is_stmt 1 view .LVU525
 830:src-gen/Main/core/reactor_common.c ****                 tag.microstep == 0) {
 1991              		.loc 1 830 12 is_stmt 0 view .LVU526
 1992 021a 9945     		cmp	r9, r3
 1993 021c 08BF     		it	eq
 1994 021e 9245     		cmpeq	r10, r2
 1995 0220 09D0     		beq	.L178
 1996              	.L157:
 830:src-gen/Main/core/reactor_common.c ****                 tag.microstep == 0) {
 1997              		.loc 1 830 83 discriminator 3 view .LVU527
 1998 0222 59B9     		cbnz	r1, .L159
 1999              	.L158:
 834:src-gen/Main/core/reactor_common.c ****         } else {
 2000              		.loc 1 834 13 is_stmt 1 view .LVU528
 2001 0224 2146     		mov	r1, r4
 2002 0226 B06A     		ldr	r0, [r6, #40]
 2003              	.LVL191:
 834:src-gen/Main/core/reactor_common.c ****         } else {
 2004              		.loc 1 834 13 is_stmt 0 view .LVU529
 2005 0228 FFF7FEFF 		bl	pqueue_insert
 2006              	.LVL192:
 2007              	.LBE26:
 841:src-gen/Main/core/reactor_common.c **** }
 2008              		.loc 1 841 12 view .LVU530
 2009 022c 0120     		movs	r0, #1
 2010              	.LBB27:
 834:src-gen/Main/core/reactor_common.c ****         } else {
 2011              		.loc 1 834 13 view .LVU531
 2012 022e 61E7     		b	.L129
 2013              	.LVL193:
 2014              	.L177:
 828:src-gen/Main/core/reactor_common.c ****         }
 2015              		.loc 1 828 13 is_stmt 1 view .LVU532
 828:src-gen/Main/core/reactor_common.c ****         }
 2016              		.loc 1 828 54 is_stmt 0 view .LVU533
 2017 0230 0698     		ldr	r0, [sp, #24]
 2018              	.LVL194:
ARM GAS  /var/folders/2h/lww79zv53b510qlyvytqnvq40000gn/T//ccDbZlJP.s 			page 59


 828:src-gen/Main/core/reactor_common.c ****         }
 2019              		.loc 1 828 32 view .LVU534
 2020 0232 081A     		subs	r0, r1, r0
 2021              	.LVL195:
 828:src-gen/Main/core/reactor_common.c ****         }
 2022              		.loc 1 828 32 view .LVU535
 2023 0234 F1E7     		b	.L156
 2024              	.L178:
 830:src-gen/Main/core/reactor_common.c ****                 tag.microstep == 0) {
 2025              		.loc 1 830 53 discriminator 1 view .LVU536
 2026 0236 0128     		cmp	r0, #1
 2027 0238 F3D1     		bne	.L157
 2028 023a F3E7     		b	.L158
 2029              	.L159:
 838:src-gen/Main/core/reactor_common.c ****         }
 2030              		.loc 1 838 13 is_stmt 1 view .LVU537
 2031 023c B56A     		ldr	r5, [r6, #40]
 2032              	.LVL196:
 838:src-gen/Main/core/reactor_common.c ****         }
 2033              		.loc 1 838 41 is_stmt 0 view .LVU538
 2034 023e 0190     		str	r0, [sp, #4]
 2035 0240 0094     		str	r4, [sp]
 2036 0242 5246     		mov	r2, r10
 2037 0244 4B46     		mov	r3, r9
 2038 0246 4146     		mov	r1, r8
 2039 0248 3046     		mov	r0, r6
 2040              	.LVL197:
 838:src-gen/Main/core/reactor_common.c ****         }
 2041              		.loc 1 838 41 view .LVU539
 2042 024a FFF7FEFF 		bl	_lf_create_dummy_events
 2043              	.LVL198:
 838:src-gen/Main/core/reactor_common.c ****         }
 2044              		.loc 1 838 41 view .LVU540
 2045 024e 0146     		mov	r1, r0
 838:src-gen/Main/core/reactor_common.c ****         }
 2046              		.loc 1 838 13 view .LVU541
 2047 0250 2846     		mov	r0, r5
 2048 0252 FFF7FEFF 		bl	pqueue_insert
 2049              	.LVL199:
 2050              	.LBE27:
 841:src-gen/Main/core/reactor_common.c **** }
 2051              		.loc 1 841 12 view .LVU542
 2052 0256 0120     		movs	r0, #1
 2053 0258 4CE7     		b	.L129
 2054              	.L180:
 2055 025a 00BF     		.align	2
 2056              	.L179:
 2057 025c 00000000 		.word	.LC0
 2058 0260 00000000 		.word	__func__.5
 2059 0264 1C000000 		.word	.LC1
 2060 0268 00000000 		.word	.LC3
 2061 026c 44000000 		.word	.LC4
 2062 0270 8C000000 		.word	.LC5
 2063              		.cfi_endproc
 2064              	.LFE152:
 2066              		.section	.rodata._lf_schedule.str1.4,"aMS",%progbits,1
 2067              		.align	2
ARM GAS  /var/folders/2h/lww79zv53b510qlyvytqnvq40000gn/T//ccDbZlJP.s 			page 60


 2068              	.LC6:
 2069 0000 6C665F73 		.ascii	"lf_schedule() called after stop tag.\000"
 2069      63686564 
 2069      756C6528 
 2069      29206361 
 2069      6C6C6564 
 2070 0025 000000   		.align	2
 2071              	.LC7:
 2072 0028 73636865 		.ascii	"schedule called with a negative extra_delay %lld. R"
 2072      64756C65 
 2072      2063616C 
 2072      6C656420 
 2072      77697468 
 2073 005b 65706C61 		.ascii	"eplacing with zero.\000"
 2073      63696E67 
 2073      20776974 
 2073      68207A65 
 2073      726F2E00 
 2074 006f 00       		.align	2
 2075              	.LC8:
 2076 0070 41747465 		.ascii	"Attempting to schedule an event earlier than curren"
 2076      6D707469 
 2076      6E672074 
 2076      6F207363 
 2076      68656475 
 2077 00a3 74207469 		.ascii	"t time by %lld nsec! Revising to the current time %"
 2077      6D652062 
 2077      7920256C 
 2077      6C64206E 
 2077      73656321 
 2078 00d6 6C6C642E 		.ascii	"lld.\000"
 2078      00
 2079              		.section	.text._lf_schedule,"ax",%progbits
 2080              		.align	1
 2081              		.global	_lf_schedule
 2082              		.syntax unified
 2083              		.thumb
 2084              		.thumb_func
 2086              	_lf_schedule:
 2087              	.LVL200:
 2088              	.LFB153:
 843:src-gen/Main/core/reactor_common.c **** 
 844:src-gen/Main/core/reactor_common.c **** /**
 845:src-gen/Main/core/reactor_common.c ****  * Schedule the specified trigger at env->current_tag.time plus the offset of the
 846:src-gen/Main/core/reactor_common.c ****  * specified trigger plus the delay. See schedule_token() in reactor.h for details.
 847:src-gen/Main/core/reactor_common.c ****  * This is the internal implementation shared by both the threaded
 848:src-gen/Main/core/reactor_common.c ****  * and non-threaded versions.
 849:src-gen/Main/core/reactor_common.c ****  *
 850:src-gen/Main/core/reactor_common.c ****  * The value is required to be either
 851:src-gen/Main/core/reactor_common.c ****  * NULL or a pointer to a token wrapping the payload. The token carries
 852:src-gen/Main/core/reactor_common.c ****  * a reference count, and when the reference count decrements to 0,
 853:src-gen/Main/core/reactor_common.c ****  * the will be freed. Hence, it is essential that the payload be in
 854:src-gen/Main/core/reactor_common.c ****  * memory allocated using malloc.
 855:src-gen/Main/core/reactor_common.c ****  *
 856:src-gen/Main/core/reactor_common.c ****  * There are three conditions under which this function will not
 857:src-gen/Main/core/reactor_common.c ****  * actually put an event on the event queue and decrement the reference count
 858:src-gen/Main/core/reactor_common.c ****  * of the token (if there is one), which could result in the payload being
ARM GAS  /var/folders/2h/lww79zv53b510qlyvytqnvq40000gn/T//ccDbZlJP.s 			page 61


 859:src-gen/Main/core/reactor_common.c ****  * freed. In all three cases, this function returns 0. Otherwise,
 860:src-gen/Main/core/reactor_common.c ****  * it returns a handle to the scheduled trigger, which is an integer
 861:src-gen/Main/core/reactor_common.c ****  * greater than 0.
 862:src-gen/Main/core/reactor_common.c ****  *
 863:src-gen/Main/core/reactor_common.c ****  * The first condition is that a stop has been requested and the trigger
 864:src-gen/Main/core/reactor_common.c ****  * offset plus the extra delay is greater than zero.
 865:src-gen/Main/core/reactor_common.c ****  * The second condition is that the trigger offset plus the extra delay
 866:src-gen/Main/core/reactor_common.c ****  * is greater that the requested stop time (timeout).
 867:src-gen/Main/core/reactor_common.c ****  * The third condition is that the trigger argument is null.
 868:src-gen/Main/core/reactor_common.c ****  *
 869:src-gen/Main/core/reactor_common.c ****  * @param env Environment in which we are executing.
 870:src-gen/Main/core/reactor_common.c ****  * @param trigger The trigger to be invoked at a later logical time.
 871:src-gen/Main/core/reactor_common.c ****  * @param extra_delay The logical time delay, which gets added to the
 872:src-gen/Main/core/reactor_common.c ****  *  trigger's minimum delay, if it has one. If this number is negative,
 873:src-gen/Main/core/reactor_common.c ****  *  then zero is used instead.
 874:src-gen/Main/core/reactor_common.c ****  * @param token The token wrapping the payload or NULL for no payload.
 875:src-gen/Main/core/reactor_common.c ****  * @return A handle to the event, or 0 if no new event was scheduled, or -1 for error.
 876:src-gen/Main/core/reactor_common.c ****  */
 877:src-gen/Main/core/reactor_common.c **** trigger_handle_t _lf_schedule(environment_t *env, trigger_t* trigger, interval_t extra_delay, lf_to
 2089              		.loc 1 877 114 is_stmt 1 view -0
 2090              		.cfi_startproc
 2091              		@ args = 4, pretend = 0, frame = 48
 2092              		@ frame_needed = 0, uses_anonymous_args = 0
 2093              		.loc 1 877 114 is_stmt 0 view .LVU544
 2094 0000 2DE9F04F 		push	{r4, r5, r6, r7, r8, r9, r10, fp, lr}
 2095              	.LCFI36:
 2096              		.cfi_def_cfa_offset 36
 2097              		.cfi_offset 4, -36
 2098              		.cfi_offset 5, -32
 2099              		.cfi_offset 6, -28
 2100              		.cfi_offset 7, -24
 2101              		.cfi_offset 8, -20
 2102              		.cfi_offset 9, -16
 2103              		.cfi_offset 10, -12
 2104              		.cfi_offset 11, -8
 2105              		.cfi_offset 14, -4
 2106 0004 8FB0     		sub	sp, sp, #60
 2107              	.LCFI37:
 2108              		.cfi_def_cfa_offset 96
 2109 0006 DDF860B0 		ldr	fp, [sp, #96]
 878:src-gen/Main/core/reactor_common.c ****     assert(env != GLOBAL_ENVIRONMENT);
 2110              		.loc 1 878 5 is_stmt 1 view .LVU545
 2111 000a 0028     		cmp	r0, #0
 2112 000c 00F09280 		beq	.L213
 2113 0010 0D46     		mov	r5, r1
 2114 0012 9046     		mov	r8, r2
 2115 0014 9A46     		mov	r10, r3
 2116 0016 0446     		mov	r4, r0
 879:src-gen/Main/core/reactor_common.c ****     if (_lf_is_tag_after_stop_tag(env, env->current_tag)) {
 2117              		.loc 1 879 5 view .LVU546
 2118              		.loc 1 879 9 is_stmt 0 view .LVU547
 2119 0018 00F11003 		add	r3, r0, #16
 2120 001c 93E80300 		ldm	r3, {r0, r1}
 2121              	.LVL201:
 2122              		.loc 1 879 9 view .LVU548
 2123 0020 8DE80300 		stm	sp, {r0, r1}
 2124 0024 04F10803 		add	r3, r4, #8
ARM GAS  /var/folders/2h/lww79zv53b510qlyvytqnvq40000gn/T//ccDbZlJP.s 			page 62


 2125 0028 0CCB     		ldm	r3, {r2, r3}
 2126              	.LVL202:
 2127              		.loc 1 879 9 view .LVU549
 2128 002a 2046     		mov	r0, r4
 2129 002c FFF7FEFF 		bl	_lf_is_tag_after_stop_tag
 2130              	.LVL203:
 2131              		.loc 1 879 8 view .LVU550
 2132 0030 0028     		cmp	r0, #0
 2133 0032 40F08680 		bne	.L214
 880:src-gen/Main/core/reactor_common.c ****         // If schedule is called after stop_tag
 881:src-gen/Main/core/reactor_common.c ****         // This is a critical condition.
 882:src-gen/Main/core/reactor_common.c ****         _lf_done_using(token);
 883:src-gen/Main/core/reactor_common.c ****         lf_print_warning("lf_schedule() called after stop tag.");
 884:src-gen/Main/core/reactor_common.c ****         return 0;
 885:src-gen/Main/core/reactor_common.c ****     }
 886:src-gen/Main/core/reactor_common.c **** 
 887:src-gen/Main/core/reactor_common.c ****     if (extra_delay < 0LL) {
 2134              		.loc 1 887 5 is_stmt 1 view .LVU551
 2135              		.loc 1 887 8 is_stmt 0 view .LVU552
 2136 0036 BAF1000F 		cmp	r10, #0
 2137 003a C0F28A80 		blt	.L215
 2138              	.LVL204:
 2139              	.L185:
 888:src-gen/Main/core/reactor_common.c ****         lf_print_warning("schedule called with a negative extra_delay " PRINTF_TIME ". Replacing wi
 889:src-gen/Main/core/reactor_common.c ****         extra_delay = 0LL;
 890:src-gen/Main/core/reactor_common.c ****     }
 891:src-gen/Main/core/reactor_common.c **** 
 892:src-gen/Main/core/reactor_common.c ****     LF_PRINT_DEBUG("_lf_schedule: scheduling trigger %p with delay " PRINTF_TIME " and token %p.",
 2140              		.loc 1 892 5 is_stmt 1 discriminator 3 view .LVU553
 2141              		.loc 1 892 5 discriminator 3 view .LVU554
 2142              		.loc 1 892 5 discriminator 3 view .LVU555
 893:src-gen/Main/core/reactor_common.c ****             trigger, extra_delay, token);
 894:src-gen/Main/core/reactor_common.c **** 
 895:src-gen/Main/core/reactor_common.c ****     // Increment the reference count of the token.
 896:src-gen/Main/core/reactor_common.c ****     if (token != NULL) {
 2143              		.loc 1 896 5 discriminator 3 view .LVU556
 2144              		.loc 1 896 8 is_stmt 0 discriminator 3 view .LVU557
 2145 003e BBF1000F 		cmp	fp, #0
 2146 0042 04D0     		beq	.L186
 897:src-gen/Main/core/reactor_common.c ****         token->ref_count++;
 2147              		.loc 1 897 9 is_stmt 1 view .LVU558
 2148              		.loc 1 897 14 is_stmt 0 view .LVU559
 2149 0044 DBF80C30 		ldr	r3, [fp, #12]
 2150              		.loc 1 897 25 view .LVU560
 2151 0048 0133     		adds	r3, r3, #1
 2152 004a CBF80C30 		str	r3, [fp, #12]
 898:src-gen/Main/core/reactor_common.c ****         LF_PRINT_DEBUG("_lf_schedule: Incremented ref_count of %p to %zu.",
 2153              		.loc 1 898 9 is_stmt 1 view .LVU561
 2154              		.loc 1 898 9 view .LVU562
 2155              	.L186:
 2156              		.loc 1 898 9 discriminator 3 view .LVU563
 899:src-gen/Main/core/reactor_common.c ****                 token, token->ref_count);
 900:src-gen/Main/core/reactor_common.c ****     }
 901:src-gen/Main/core/reactor_common.c **** 
 902:src-gen/Main/core/reactor_common.c ****     // The trigger argument could be null, meaning that nothing is triggered.
 903:src-gen/Main/core/reactor_common.c ****     // Doing this after incrementing the reference count ensures that the
 904:src-gen/Main/core/reactor_common.c ****     // payload will be freed, if there is one.
ARM GAS  /var/folders/2h/lww79zv53b510qlyvytqnvq40000gn/T//ccDbZlJP.s 			page 63


 905:src-gen/Main/core/reactor_common.c ****     if (trigger == NULL) {
 2157              		.loc 1 905 5 discriminator 3 view .LVU564
 2158              		.loc 1 905 8 is_stmt 0 discriminator 3 view .LVU565
 2159 004e 002D     		cmp	r5, #0
 2160 0050 00F08880 		beq	.L216
 906:src-gen/Main/core/reactor_common.c ****         _lf_done_using(token);
 907:src-gen/Main/core/reactor_common.c ****         return 0;
 908:src-gen/Main/core/reactor_common.c ****     }
 909:src-gen/Main/core/reactor_common.c **** 
 910:src-gen/Main/core/reactor_common.c ****     // Compute the tag (the logical timestamp for the future event).
 911:src-gen/Main/core/reactor_common.c ****     // We first do this assuming it is logical action and then, if it is a
 912:src-gen/Main/core/reactor_common.c ****     // physical action, modify it if physical time exceeds the result.
 913:src-gen/Main/core/reactor_common.c ****     interval_t delay = extra_delay;
 2161              		.loc 1 913 5 is_stmt 1 view .LVU566
 2162              	.LVL205:
 914:src-gen/Main/core/reactor_common.c ****     // Add the offset if this is not a timer because, in that case,
 915:src-gen/Main/core/reactor_common.c ****     // it is the minimum delay.
 916:src-gen/Main/core/reactor_common.c ****     if (!trigger->is_timer) {
 2163              		.loc 1 916 5 view .LVU567
 2164              		.loc 1 916 17 is_stmt 0 view .LVU568
 2165 0054 2B7F     		ldrb	r3, [r5, #28]	@ zero_extendqisi2
 2166              		.loc 1 916 8 view .LVU569
 2167 0056 33B9     		cbnz	r3, .L188
 917:src-gen/Main/core/reactor_common.c ****         delay += trigger->offset;
 2168              		.loc 1 917 9 is_stmt 1 view .LVU570
 2169              		.loc 1 917 25 is_stmt 0 view .LVU571
 2170 0058 2B6A     		ldr	r3, [r5, #32]
 2171 005a 6A6A     		ldr	r2, [r5, #36]
 2172              		.loc 1 917 15 view .LVU572
 2173 005c 13EB0803 		adds	r3, r3, r8
 2174 0060 9846     		mov	r8, r3
 2175              	.LVL206:
 2176              		.loc 1 917 15 view .LVU573
 2177 0062 42EB0A0A 		adc	r10, r2, r10
 2178              	.LVL207:
 2179              	.L188:
 918:src-gen/Main/core/reactor_common.c ****     }
 919:src-gen/Main/core/reactor_common.c ****     interval_t intended_time = env->current_tag.time + delay;
 2180              		.loc 1 919 5 is_stmt 1 view .LVU574
 2181              		.loc 1 919 48 is_stmt 0 view .LVU575
 2182 0066 A668     		ldr	r6, [r4, #8]
 2183 0068 E368     		ldr	r3, [r4, #12]
 2184              		.loc 1 919 16 view .LVU576
 2185 006a 16EB0806 		adds	r6, r6, r8
 2186 006e 43EB0A09 		adc	r9, r3, r10
 2187              	.LVL208:
 920:src-gen/Main/core/reactor_common.c ****     LF_PRINT_DEBUG("_lf_schedule: env->current_tag.time = " PRINTF_TIME ". Total logical delay = " 
 2188              		.loc 1 920 5 is_stmt 1 view .LVU577
 2189              		.loc 1 920 5 view .LVU578
 2190              		.loc 1 920 5 view .LVU579
 921:src-gen/Main/core/reactor_common.c ****             env->current_tag.time, delay);
 922:src-gen/Main/core/reactor_common.c ****     interval_t min_spacing = trigger->period;
 2191              		.loc 1 922 5 view .LVU580
 2192              		.loc 1 922 16 is_stmt 0 view .LVU581
 2193 0072 AB6A     		ldr	r3, [r5, #40]
 2194 0074 0393     		str	r3, [sp, #12]
 2195 0076 EB6A     		ldr	r3, [r5, #44]
ARM GAS  /var/folders/2h/lww79zv53b510qlyvytqnvq40000gn/T//ccDbZlJP.s 			page 64


 2196 0078 0493     		str	r3, [sp, #16]
 2197              	.LVL209:
 923:src-gen/Main/core/reactor_common.c **** 
 924:src-gen/Main/core/reactor_common.c ****     event_t* e = _lf_get_new_event(env);
 2198              		.loc 1 924 5 is_stmt 1 view .LVU582
 2199              		.loc 1 924 18 is_stmt 0 view .LVU583
 2200 007a 2046     		mov	r0, r4
 2201 007c FFF7FEFF 		bl	_lf_get_new_event
 2202              	.LVL210:
 2203              		.loc 1 924 18 view .LVU584
 2204 0080 0746     		mov	r7, r0
 2205              	.LVL211:
 925:src-gen/Main/core/reactor_common.c **** 
 926:src-gen/Main/core/reactor_common.c ****     // Initialize the next pointer.
 927:src-gen/Main/core/reactor_common.c ****     e->next = NULL;
 2206              		.loc 1 927 5 is_stmt 1 view .LVU585
 2207              		.loc 1 927 13 is_stmt 0 view .LVU586
 2208 0082 0023     		movs	r3, #0
 2209 0084 8361     		str	r3, [r0, #24]
 928:src-gen/Main/core/reactor_common.c **** 
 929:src-gen/Main/core/reactor_common.c ****     // Set the payload.
 930:src-gen/Main/core/reactor_common.c ****     e->token = token;
 2210              		.loc 1 930 5 is_stmt 1 view .LVU587
 2211              		.loc 1 930 14 is_stmt 0 view .LVU588
 2212 0086 C0F810B0 		str	fp, [r0, #16]
 931:src-gen/Main/core/reactor_common.c **** 
 932:src-gen/Main/core/reactor_common.c ****     // Make sure the event points to this trigger so when it is
 933:src-gen/Main/core/reactor_common.c ****     // dequeued, it will trigger this trigger.
 934:src-gen/Main/core/reactor_common.c ****     e->trigger = trigger;
 2213              		.loc 1 934 5 is_stmt 1 view .LVU589
 2214              		.loc 1 934 16 is_stmt 0 view .LVU590
 2215 008a 8560     		str	r5, [r0, #8]
 935:src-gen/Main/core/reactor_common.c **** 
 936:src-gen/Main/core/reactor_common.c ****     // If the trigger is physical, then we need to check whether
 937:src-gen/Main/core/reactor_common.c ****     // physical time is larger than the intended time and, if so,
 938:src-gen/Main/core/reactor_common.c ****     // modify the intended time.
 939:src-gen/Main/core/reactor_common.c ****     if (trigger->is_physical) {
 2216              		.loc 1 939 5 is_stmt 1 view .LVU591
 2217              		.loc 1 939 16 is_stmt 0 view .LVU592
 2218 008c 95F83030 		ldrb	r3, [r5, #48]	@ zero_extendqisi2
 2219              		.loc 1 939 8 view .LVU593
 2220 0090 002B     		cmp	r3, #0
 2221 0092 6CD1     		bne	.L217
 940:src-gen/Main/core/reactor_common.c ****         // Get the current physical time and assign it as the intended time.
 941:src-gen/Main/core/reactor_common.c ****         intended_time = lf_time_physical() + delay;
 942:src-gen/Main/core/reactor_common.c ****     } else {
 943:src-gen/Main/core/reactor_common.c ****         // FIXME: We need to verify that we are executing within a reaction?
 944:src-gen/Main/core/reactor_common.c ****         // See reactor_threaded.
 945:src-gen/Main/core/reactor_common.c ****         // If a logical action is scheduled asynchronously (which should never be
 946:src-gen/Main/core/reactor_common.c ****         // done) the computed tag can be smaller than the current tag, in which case
 947:src-gen/Main/core/reactor_common.c ****         // it needs to be adjusted.
 948:src-gen/Main/core/reactor_common.c ****         // FIXME: This can go away once:
 949:src-gen/Main/core/reactor_common.c ****         // - we have eliminated the possibility to have a negative additional delay; and
 950:src-gen/Main/core/reactor_common.c ****         // - we detect the asynchronous use of logical actions
 951:src-gen/Main/core/reactor_common.c ****         #ifndef NDEBUG
 952:src-gen/Main/core/reactor_common.c ****         if (intended_time < env->current_tag.time) {
 2222              		.loc 1 952 9 is_stmt 1 view .LVU594
ARM GAS  /var/folders/2h/lww79zv53b510qlyvytqnvq40000gn/T//ccDbZlJP.s 			page 65


 2223              		.loc 1 952 45 is_stmt 0 view .LVU595
 2224 0094 A168     		ldr	r1, [r4, #8]
 2225 0096 E368     		ldr	r3, [r4, #12]
 2226              		.loc 1 952 12 view .LVU596
 2227 0098 8E42     		cmp	r6, r1
 2228 009a 79EB0302 		sbcs	r2, r9, r3
 2229 009e 6DDB     		blt	.L218
 2230              	.LVL212:
 2231              	.L190:
 953:src-gen/Main/core/reactor_common.c ****             lf_print_warning("Attempting to schedule an event earlier than current time by " PRINTF
 954:src-gen/Main/core/reactor_common.c ****                     "Revising to the current time " PRINTF_TIME ".",
 955:src-gen/Main/core/reactor_common.c ****                     env->current_tag.time - intended_time, env->current_tag.time);
 956:src-gen/Main/core/reactor_common.c ****             intended_time = env->current_tag.time;
 957:src-gen/Main/core/reactor_common.c ****         }
 958:src-gen/Main/core/reactor_common.c ****         #endif
 959:src-gen/Main/core/reactor_common.c ****     }
 960:src-gen/Main/core/reactor_common.c **** 
 961:src-gen/Main/core/reactor_common.c **** #ifdef FEDERATED_DECENTRALIZED
 962:src-gen/Main/core/reactor_common.c ****     // Event inherits the original intended_tag of the trigger
 963:src-gen/Main/core/reactor_common.c ****     // set by the network stack (or the default, which is (NEVER,0))
 964:src-gen/Main/core/reactor_common.c ****     e->intended_tag = trigger->intended_tag;
 965:src-gen/Main/core/reactor_common.c **** #endif
 966:src-gen/Main/core/reactor_common.c **** 
 967:src-gen/Main/core/reactor_common.c ****     event_t* existing = (event_t*)(trigger->last);
 2232              		.loc 1 967 5 is_stmt 1 view .LVU597
 2233              		.loc 1 967 14 is_stmt 0 view .LVU598
 2234 00a0 D5F83480 		ldr	r8, [r5, #52]
 2235              	.LVL213:
 968:src-gen/Main/core/reactor_common.c ****     // Check for conflicts (a queued event with the same trigger and time).
 969:src-gen/Main/core/reactor_common.c ****     if (trigger->period < 0) {
 2236              		.loc 1 969 5 is_stmt 1 view .LVU599
 2237              		.loc 1 969 16 is_stmt 0 view .LVU600
 2238 00a4 EB6A     		ldr	r3, [r5, #44]
 2239              		.loc 1 969 8 view .LVU601
 2240 00a6 002B     		cmp	r3, #0
 2241 00a8 74DB     		blt	.L219
 970:src-gen/Main/core/reactor_common.c ****         // No minimum spacing defined.
 971:src-gen/Main/core/reactor_common.c ****         tag_t intended_tag = (tag_t) {.time = intended_time, .microstep = 0u};
 972:src-gen/Main/core/reactor_common.c ****         e->time = intended_tag.time;
 973:src-gen/Main/core/reactor_common.c ****         event_t* found = (event_t *)pqueue_find_equal_same_priority(env->event_q, e);
 974:src-gen/Main/core/reactor_common.c ****         // Check for conflicts. Let events pile up in super dense time.
 975:src-gen/Main/core/reactor_common.c ****         if (found != NULL) {
 976:src-gen/Main/core/reactor_common.c ****             intended_tag.microstep++;
 977:src-gen/Main/core/reactor_common.c ****             // Skip to the last node in the linked list.
 978:src-gen/Main/core/reactor_common.c ****             while(found->next != NULL) {
 979:src-gen/Main/core/reactor_common.c ****                 found = found->next;
 980:src-gen/Main/core/reactor_common.c ****                 intended_tag.microstep++;
 981:src-gen/Main/core/reactor_common.c ****             }
 982:src-gen/Main/core/reactor_common.c ****             if (_lf_is_tag_after_stop_tag(env, intended_tag)) {
 983:src-gen/Main/core/reactor_common.c ****                 LF_PRINT_DEBUG("Attempt to schedule an event after stop_tag was rejected.");
 984:src-gen/Main/core/reactor_common.c ****                 // Scheduling an event will incur a microstep
 985:src-gen/Main/core/reactor_common.c ****                 // after the stop tag.
 986:src-gen/Main/core/reactor_common.c ****                 _lf_recycle_event(env, e);
 987:src-gen/Main/core/reactor_common.c ****                 return 0;
 988:src-gen/Main/core/reactor_common.c ****             }
 989:src-gen/Main/core/reactor_common.c ****             // Hook the event into the list.
 990:src-gen/Main/core/reactor_common.c ****             found->next = e;
ARM GAS  /var/folders/2h/lww79zv53b510qlyvytqnvq40000gn/T//ccDbZlJP.s 			page 66


 991:src-gen/Main/core/reactor_common.c ****             return(0); // FIXME: return value
 992:src-gen/Main/core/reactor_common.c ****         }
 993:src-gen/Main/core/reactor_common.c ****         // If there are not conflicts, schedule as usual. If intended time is
 994:src-gen/Main/core/reactor_common.c ****         // equal to the current logical time, the event will effectively be
 995:src-gen/Main/core/reactor_common.c ****         // scheduled at the next microstep.
 996:src-gen/Main/core/reactor_common.c ****     } else if (!trigger->is_timer && existing != NULL) {
 2242              		.loc 1 996 12 is_stmt 1 view .LVU602
 2243              		.loc 1 996 24 is_stmt 0 view .LVU603
 2244 00aa 2B7F     		ldrb	r3, [r5, #28]	@ zero_extendqisi2
 2245              		.loc 1 996 15 view .LVU604
 2246 00ac 1BBB     		cbnz	r3, .L197
 2247              		.loc 1 996 35 discriminator 1 view .LVU605
 2248 00ae B8F1000F 		cmp	r8, #0
 2249 00b2 20D0     		beq	.L197
 2250              	.LBB28:
 997:src-gen/Main/core/reactor_common.c ****         // There exists a previously scheduled event. It determines the
 998:src-gen/Main/core/reactor_common.c ****         // earliest time at which the new event can be scheduled.
 999:src-gen/Main/core/reactor_common.c ****         // Check to see whether the event is too early.
1000:src-gen/Main/core/reactor_common.c ****         instant_t earliest_time = existing->time + min_spacing;
 2251              		.loc 1 1000 9 is_stmt 1 view .LVU606
 2252              		.loc 1 1000 43 is_stmt 0 view .LVU607
 2253 00b4 D8F80030 		ldr	r3, [r8]
 2254 00b8 D8F80420 		ldr	r2, [r8, #4]
 2255              		.loc 1 1000 19 view .LVU608
 2256 00bc 0399     		ldr	r1, [sp, #12]
 2257 00be 13EB010A 		adds	r10, r3, r1
 2258 00c2 0499     		ldr	r1, [sp, #16]
 2259 00c4 42EB0101 		adc	r1, r2, r1
 2260 00c8 0591     		str	r1, [sp, #20]
 2261              	.LVL214:
1001:src-gen/Main/core/reactor_common.c ****         LF_PRINT_DEBUG("There is a previously scheduled event; earliest possible time "
 2262              		.loc 1 1001 9 is_stmt 1 view .LVU609
 2263              		.loc 1 1001 9 view .LVU610
 2264              		.loc 1 1001 9 view .LVU611
1002:src-gen/Main/core/reactor_common.c ****                 "with min spacing: " PRINTF_TIME,
1003:src-gen/Main/core/reactor_common.c ****                 earliest_time);
1004:src-gen/Main/core/reactor_common.c ****         // If the event is early, see which policy applies.
1005:src-gen/Main/core/reactor_common.c ****         if (earliest_time >= intended_time) {
 2265              		.loc 1 1005 9 view .LVU612
 2266              		.loc 1 1005 12 is_stmt 0 view .LVU613
 2267 00ca B245     		cmp	r10, r6
 2268 00cc 71EB0901 		sbcs	r1, r1, r9
 2269              	.LVL215:
 2270              		.loc 1 1005 12 view .LVU614
 2271 00d0 11DB     		blt	.L197
1006:src-gen/Main/core/reactor_common.c ****             LF_PRINT_DEBUG("Event is early.");
 2272              		.loc 1 1006 13 is_stmt 1 discriminator 3 view .LVU615
 2273              		.loc 1 1006 13 discriminator 3 view .LVU616
 2274              		.loc 1 1006 13 discriminator 3 view .LVU617
1007:src-gen/Main/core/reactor_common.c ****             switch(trigger->policy) {
 2275              		.loc 1 1007 13 discriminator 3 view .LVU618
 2276              		.loc 1 1007 27 is_stmt 0 discriminator 3 view .LVU619
 2277 00d2 95F83810 		ldrb	r1, [r5, #56]	@ zero_extendqisi2
 2278              		.loc 1 1007 13 discriminator 3 view .LVU620
 2279 00d6 0129     		cmp	r1, #1
 2280 00d8 00F08A80 		beq	.L198
 2281              		.loc 1 1007 13 view .LVU621
ARM GAS  /var/folders/2h/lww79zv53b510qlyvytqnvq40000gn/T//ccDbZlJP.s 			page 67


 2282 00dc 0229     		cmp	r1, #2
 2283 00de 00F0A080 		beq	.L199
1008:src-gen/Main/core/reactor_common.c ****                 case drop:
1009:src-gen/Main/core/reactor_common.c ****                     LF_PRINT_DEBUG("Policy is drop. Dropping the event.");
1010:src-gen/Main/core/reactor_common.c ****                     if (min_spacing > 0 ||
1011:src-gen/Main/core/reactor_common.c ****                             pqueue_find_equal_same_priority(env->event_q, existing) != NULL) {
1012:src-gen/Main/core/reactor_common.c ****                         // Recycle the new event and the token.
1013:src-gen/Main/core/reactor_common.c ****                         if (existing->token != token) {
1014:src-gen/Main/core/reactor_common.c ****                             _lf_done_using(token);
1015:src-gen/Main/core/reactor_common.c ****                         }
1016:src-gen/Main/core/reactor_common.c ****                         _lf_recycle_event(env, e);
1017:src-gen/Main/core/reactor_common.c ****                         return(0);
1018:src-gen/Main/core/reactor_common.c ****                     }
1019:src-gen/Main/core/reactor_common.c ****                 case replace:
1020:src-gen/Main/core/reactor_common.c ****                     LF_PRINT_DEBUG("Policy is replace. Replacing the previous event.");
1021:src-gen/Main/core/reactor_common.c ****                     // If the existing event has not been handled yet, update
1022:src-gen/Main/core/reactor_common.c ****                     // it. WARNING: If provide a mechanism for unscheduling, we
1023:src-gen/Main/core/reactor_common.c ****                     // can no longer rely on the tag of the existing event to
1024:src-gen/Main/core/reactor_common.c ****                     // determine whether or not it has been recycled (the
1025:src-gen/Main/core/reactor_common.c ****                     // existing->time < env->current_tag.time case below).
1026:src-gen/Main/core/reactor_common.c ****                     // NOTE: Because microsteps are not explicit, if the tag of
1027:src-gen/Main/core/reactor_common.c ****                     // the preceding event is equal to the current time, then
1028:src-gen/Main/core/reactor_common.c ****                     // we search the event queue to figure out whether it has
1029:src-gen/Main/core/reactor_common.c ****                     // been handled yet.
1030:src-gen/Main/core/reactor_common.c ****                     if (existing->time > env->current_tag.time ||
1031:src-gen/Main/core/reactor_common.c ****                             (existing->time == env->current_tag.time &&
1032:src-gen/Main/core/reactor_common.c ****                             pqueue_find_equal_same_priority(env->event_q, existing) != NULL)) {
1033:src-gen/Main/core/reactor_common.c ****                         // Recycle the existing token and the new event
1034:src-gen/Main/core/reactor_common.c ****                         // and update the token of the existing event.
1035:src-gen/Main/core/reactor_common.c ****                         _lf_replace_token(existing, token);
1036:src-gen/Main/core/reactor_common.c ****                         _lf_recycle_event(env, e);
1037:src-gen/Main/core/reactor_common.c ****                         return(0);
1038:src-gen/Main/core/reactor_common.c ****                     }
1039:src-gen/Main/core/reactor_common.c ****                     // If the preceding event _has_ been handled, then adjust
1040:src-gen/Main/core/reactor_common.c ****                     // the tag to defer the event.
1041:src-gen/Main/core/reactor_common.c ****                     intended_time = earliest_time;
1042:src-gen/Main/core/reactor_common.c ****                     break;
1043:src-gen/Main/core/reactor_common.c ****                 default:
1044:src-gen/Main/core/reactor_common.c ****                     if (existing->time == env->current_tag.time &&
 2284              		.loc 1 1044 21 is_stmt 1 view .LVU622
 2285              		.loc 1 1044 59 is_stmt 0 view .LVU623
 2286 00e2 A068     		ldr	r0, [r4, #8]
 2287 00e4 E168     		ldr	r1, [r4, #12]
 2288              		.loc 1 1044 24 view .LVU624
 2289 00e6 8A42     		cmp	r2, r1
 2290 00e8 08BF     		it	eq
 2291 00ea 8342     		cmpeq	r3, r0
 2292 00ec 00F0BA80 		beq	.L220
1045:src-gen/Main/core/reactor_common.c ****                             pqueue_find_equal_same_priority(env->event_q, existing) != NULL) {
1046:src-gen/Main/core/reactor_common.c ****                         if (_lf_is_tag_after_stop_tag(env, (tag_t){.time=existing->time,.microstep=
1047:src-gen/Main/core/reactor_common.c ****                             // Scheduling e will incur a microstep at timeout, 
1048:src-gen/Main/core/reactor_common.c ****                             // which is illegal.
1049:src-gen/Main/core/reactor_common.c ****                             _lf_recycle_event(env, e);
1050:src-gen/Main/core/reactor_common.c ****                             return 0;
1051:src-gen/Main/core/reactor_common.c ****                         }
1052:src-gen/Main/core/reactor_common.c ****                         // If the last event hasn't been handled yet, insert
1053:src-gen/Main/core/reactor_common.c ****                         // the new event right behind.
ARM GAS  /var/folders/2h/lww79zv53b510qlyvytqnvq40000gn/T//ccDbZlJP.s 			page 68


1054:src-gen/Main/core/reactor_common.c ****                         existing->next = e;
1055:src-gen/Main/core/reactor_common.c ****                         return 0; // FIXME: return a value
1056:src-gen/Main/core/reactor_common.c ****                     } else {
1057:src-gen/Main/core/reactor_common.c ****                          // Adjust the tag.
1058:src-gen/Main/core/reactor_common.c ****                         intended_time = earliest_time;
 2293              		.loc 1 1058 39 view .LVU625
 2294 00f0 5646     		mov	r6, r10
 2295              	.LVL216:
 2296              		.loc 1 1058 39 view .LVU626
 2297 00f2 DDF81490 		ldr	r9, [sp, #20]
 2298              	.LVL217:
 2299              	.L197:
 2300              		.loc 1 1058 39 view .LVU627
 2301              	.LBE28:
1059:src-gen/Main/core/reactor_common.c ****                     }
1060:src-gen/Main/core/reactor_common.c ****                     break;
1061:src-gen/Main/core/reactor_common.c ****             }
1062:src-gen/Main/core/reactor_common.c ****         }
1063:src-gen/Main/core/reactor_common.c ****     }
1064:src-gen/Main/core/reactor_common.c **** 
1065:src-gen/Main/core/reactor_common.c ****     // Check if the intended time is in the future
1066:src-gen/Main/core/reactor_common.c ****     // This is a sanity check for the logic above
1067:src-gen/Main/core/reactor_common.c ****     // FIXME: This is a development assertion and might
1068:src-gen/Main/core/reactor_common.c ****     // not be necessary for end-user LF programs
1069:src-gen/Main/core/reactor_common.c ****     #ifndef NDEBUG
1070:src-gen/Main/core/reactor_common.c ****     if (intended_time < env->current_tag.time) {
 2302              		.loc 1 1070 5 is_stmt 1 view .LVU628
 2303              		.loc 1 1070 41 is_stmt 0 view .LVU629
 2304 00f6 A168     		ldr	r1, [r4, #8]
 2305 00f8 E368     		ldr	r3, [r4, #12]
 2306              		.loc 1 1070 8 view .LVU630
 2307 00fa 8E42     		cmp	r6, r1
 2308 00fc 79EB0302 		sbcs	r2, r9, r3
 2309 0100 C0F2D980 		blt	.L221
 2310              	.LVL218:
 2311              	.L205:
1071:src-gen/Main/core/reactor_common.c ****         lf_print_error("Attempting to schedule an event earlier than current time by " PRINTF_TIME 
1072:src-gen/Main/core/reactor_common.c ****                 "Revising to the current time " PRINTF_TIME ".",
1073:src-gen/Main/core/reactor_common.c ****                 env->current_tag.time - intended_time, env->current_tag.time);
1074:src-gen/Main/core/reactor_common.c ****         intended_time = env->current_tag.time;
1075:src-gen/Main/core/reactor_common.c ****     }
1076:src-gen/Main/core/reactor_common.c ****     #endif
1077:src-gen/Main/core/reactor_common.c **** 
1078:src-gen/Main/core/reactor_common.c ****     // Set the tag of the event.
1079:src-gen/Main/core/reactor_common.c ****     e->time = intended_time;
 2312              		.loc 1 1079 5 is_stmt 1 view .LVU631
 2313              		.loc 1 1079 13 is_stmt 0 view .LVU632
 2314 0104 3E60     		str	r6, [r7]
 2315 0106 C7F80490 		str	r9, [r7, #4]
1080:src-gen/Main/core/reactor_common.c **** 
1081:src-gen/Main/core/reactor_common.c ****     // Do not schedule events if if the event time is past the stop time
1082:src-gen/Main/core/reactor_common.c ****     // (current microsteps are checked earlier).
1083:src-gen/Main/core/reactor_common.c ****     LF_PRINT_DEBUG("Comparing event with elapsed time " PRINTF_TIME " against stop time " PRINTF_TI
 2316              		.loc 1 1083 5 is_stmt 1 view .LVU633
 2317              		.loc 1 1083 5 view .LVU634
 2318              		.loc 1 1083 5 view .LVU635
1084:src-gen/Main/core/reactor_common.c ****     if (e->time > env->stop_tag.time) {
ARM GAS  /var/folders/2h/lww79zv53b510qlyvytqnvq40000gn/T//ccDbZlJP.s 			page 69


 2319              		.loc 1 1084 5 view .LVU636
 2320              		.loc 1 1084 32 is_stmt 0 view .LVU637
 2321 010a A269     		ldr	r2, [r4, #24]
 2322 010c E369     		ldr	r3, [r4, #28]
 2323              		.loc 1 1084 8 view .LVU638
 2324 010e B242     		cmp	r2, r6
 2325 0110 73EB0903 		sbcs	r3, r3, r9
 2326 0114 C0F2DB80 		blt	.L222
1085:src-gen/Main/core/reactor_common.c ****         LF_PRINT_DEBUG("_lf_schedule: event time is past the timeout. Discarding event.");
1086:src-gen/Main/core/reactor_common.c ****         _lf_done_using(token);
1087:src-gen/Main/core/reactor_common.c ****         _lf_recycle_event(env, e);
1088:src-gen/Main/core/reactor_common.c ****         return(0);
1089:src-gen/Main/core/reactor_common.c ****     }
1090:src-gen/Main/core/reactor_common.c **** 
1091:src-gen/Main/core/reactor_common.c ****     // Store a pointer to the current event in order to check the min spacing
1092:src-gen/Main/core/reactor_common.c ****     // between this and the following event. Only necessary for actions
1093:src-gen/Main/core/reactor_common.c ****     // that actually specify a min spacing.
1094:src-gen/Main/core/reactor_common.c ****     trigger->last = (event_t*)e;
 2327              		.loc 1 1094 5 is_stmt 1 view .LVU639
 2328              		.loc 1 1094 19 is_stmt 0 view .LVU640
 2329 0118 6F63     		str	r7, [r5, #52]
1095:src-gen/Main/core/reactor_common.c **** 
1096:src-gen/Main/core/reactor_common.c ****     // Queue the event.
1097:src-gen/Main/core/reactor_common.c ****     // NOTE: There is no need for an explicit microstep because
1098:src-gen/Main/core/reactor_common.c ****     // when this is called, all events at the current tag
1099:src-gen/Main/core/reactor_common.c ****     // (time and microstep) have been pulled from the queue,
1100:src-gen/Main/core/reactor_common.c ****     // and any new events added at this tag will go into the reaction_q
1101:src-gen/Main/core/reactor_common.c ****     // rather than the event_q, so anything put in the event_q with this
1102:src-gen/Main/core/reactor_common.c ****     // same time will automatically be executed at the next microstep.
1103:src-gen/Main/core/reactor_common.c ****     LF_PRINT_LOG("Inserting event in the event queue with elapsed time " PRINTF_TIME ".",
 2330              		.loc 1 1103 5 is_stmt 1 view .LVU641
 2331              		.loc 1 1103 5 view .LVU642
 2332              		.loc 1 1103 5 view .LVU643
1104:src-gen/Main/core/reactor_common.c ****             e->time - start_time);
1105:src-gen/Main/core/reactor_common.c ****     pqueue_insert(env->event_q, e);
 2333              		.loc 1 1105 5 view .LVU644
 2334 011a 3946     		mov	r1, r7
 2335 011c A06A     		ldr	r0, [r4, #40]
 2336 011e FFF7FEFF 		bl	pqueue_insert
 2337              	.LVL219:
1106:src-gen/Main/core/reactor_common.c **** 
1107:src-gen/Main/core/reactor_common.c ****     tracepoint_schedule(env->trace, trigger, e->time - env->current_tag.time);
 2338              		.loc 1 1107 78 view .LVU645
1108:src-gen/Main/core/reactor_common.c **** 
1109:src-gen/Main/core/reactor_common.c ****     // FIXME: make a record of handle and implement unschedule.
1110:src-gen/Main/core/reactor_common.c ****     // NOTE: Rather than wrapping around to get a negative number,
1111:src-gen/Main/core/reactor_common.c ****     // we reset the handle on the assumption that much earlier
1112:src-gen/Main/core/reactor_common.c ****     // handles are irrelevant.
1113:src-gen/Main/core/reactor_common.c ****     int return_value = env->_lf_handle++;
 2339              		.loc 1 1113 5 view .LVU646
 2340              		.loc 1 1113 27 is_stmt 0 view .LVU647
 2341 0122 A06D     		ldr	r0, [r4, #88]
 2342              		.loc 1 1113 39 view .LVU648
 2343 0124 431C     		adds	r3, r0, #1
 2344 0126 A365     		str	r3, [r4, #88]
 2345              	.LVL220:
1114:src-gen/Main/core/reactor_common.c ****     if (env->_lf_handle < 0) {
ARM GAS  /var/folders/2h/lww79zv53b510qlyvytqnvq40000gn/T//ccDbZlJP.s 			page 70


 2346              		.loc 1 1114 5 is_stmt 1 view .LVU649
 2347              		.loc 1 1114 8 is_stmt 0 view .LVU650
 2348 0128 002B     		cmp	r3, #0
 2349 012a C0F2D980 		blt	.L223
 2350              	.LVL221:
 2351              	.L181:
1115:src-gen/Main/core/reactor_common.c ****         env->_lf_handle = 1;
1116:src-gen/Main/core/reactor_common.c ****     }
1117:src-gen/Main/core/reactor_common.c ****     return return_value;
1118:src-gen/Main/core/reactor_common.c **** }
 2352              		.loc 1 1118 1 view .LVU651
 2353 012e 0FB0     		add	sp, sp, #60
 2354              	.LCFI38:
 2355              		.cfi_remember_state
 2356              		.cfi_def_cfa_offset 36
 2357              		@ sp needed
 2358 0130 BDE8F08F 		pop	{r4, r5, r6, r7, r8, r9, r10, fp, pc}
 2359              	.LVL222:
 2360              	.L213:
 2361              	.LCFI39:
 2362              		.cfi_restore_state
 878:src-gen/Main/core/reactor_common.c ****     if (_lf_is_tag_after_stop_tag(env, env->current_tag)) {
 2363              		.loc 1 878 5 discriminator 1 view .LVU652
 2364 0134 6C4B     		ldr	r3, .L228
 2365 0136 6D4A     		ldr	r2, .L228+4
 2366              	.LVL223:
 878:src-gen/Main/core/reactor_common.c ****     if (_lf_is_tag_after_stop_tag(env, env->current_tag)) {
 2367              		.loc 1 878 5 discriminator 1 view .LVU653
 2368 0138 40F26E31 		movw	r1, #878
 2369              	.LVL224:
 878:src-gen/Main/core/reactor_common.c ****     if (_lf_is_tag_after_stop_tag(env, env->current_tag)) {
 2370              		.loc 1 878 5 discriminator 1 view .LVU654
 2371 013c 6C48     		ldr	r0, .L228+8
 2372              	.LVL225:
 878:src-gen/Main/core/reactor_common.c ****     if (_lf_is_tag_after_stop_tag(env, env->current_tag)) {
 2373              		.loc 1 878 5 discriminator 1 view .LVU655
 2374 013e FFF7FEFF 		bl	__assert_func
 2375              	.LVL226:
 2376              	.L214:
 882:src-gen/Main/core/reactor_common.c ****         lf_print_warning("lf_schedule() called after stop tag.");
 2377              		.loc 1 882 9 is_stmt 1 view .LVU656
 2378 0142 5846     		mov	r0, fp
 2379 0144 FFF7FEFF 		bl	_lf_done_using
 2380              	.LVL227:
 883:src-gen/Main/core/reactor_common.c ****         return 0;
 2381              		.loc 1 883 9 view .LVU657
 2382 0148 6A48     		ldr	r0, .L228+12
 2383 014a FFF7FEFF 		bl	lf_print_warning
 2384              	.LVL228:
 884:src-gen/Main/core/reactor_common.c ****     }
 2385              		.loc 1 884 9 view .LVU658
 884:src-gen/Main/core/reactor_common.c ****     }
 2386              		.loc 1 884 16 is_stmt 0 view .LVU659
 2387 014e 0020     		movs	r0, #0
 2388 0150 EDE7     		b	.L181
 2389              	.L215:
 888:src-gen/Main/core/reactor_common.c ****         extra_delay = 0LL;
ARM GAS  /var/folders/2h/lww79zv53b510qlyvytqnvq40000gn/T//ccDbZlJP.s 			page 71


 2390              		.loc 1 888 9 is_stmt 1 view .LVU660
 2391 0152 4246     		mov	r2, r8
 2392 0154 5346     		mov	r3, r10
 2393 0156 6848     		ldr	r0, .L228+16
 2394 0158 FFF7FEFF 		bl	lf_print_warning
 2395              	.LVL229:
 889:src-gen/Main/core/reactor_common.c ****     }
 2396              		.loc 1 889 9 view .LVU661
 889:src-gen/Main/core/reactor_common.c ****     }
 2397              		.loc 1 889 21 is_stmt 0 view .LVU662
 2398 015c 4FF00008 		mov	r8, #0
 2399 0160 C246     		mov	r10, r8
 2400 0162 6CE7     		b	.L185
 2401              	.LVL230:
 2402              	.L216:
 906:src-gen/Main/core/reactor_common.c ****         return 0;
 2403              		.loc 1 906 9 is_stmt 1 view .LVU663
 2404 0164 5846     		mov	r0, fp
 2405 0166 FFF7FEFF 		bl	_lf_done_using
 2406              	.LVL231:
 907:src-gen/Main/core/reactor_common.c ****     }
 2407              		.loc 1 907 9 view .LVU664
 907:src-gen/Main/core/reactor_common.c ****     }
 2408              		.loc 1 907 16 is_stmt 0 view .LVU665
 2409 016a 0020     		movs	r0, #0
 2410 016c DFE7     		b	.L181
 2411              	.LVL232:
 2412              	.L217:
 941:src-gen/Main/core/reactor_common.c ****     } else {
 2413              		.loc 1 941 9 is_stmt 1 view .LVU666
 941:src-gen/Main/core/reactor_common.c ****     } else {
 2414              		.loc 1 941 25 is_stmt 0 view .LVU667
 2415 016e FFF7FEFF 		bl	lf_time_physical
 2416              	.LVL233:
 941:src-gen/Main/core/reactor_common.c ****     } else {
 2417              		.loc 1 941 23 view .LVU668
 2418 0172 10EB0806 		adds	r6, r0, r8
 2419              	.LVL234:
 941:src-gen/Main/core/reactor_common.c ****     } else {
 2420              		.loc 1 941 23 view .LVU669
 2421 0176 4AEB0109 		adc	r9, r10, r1
 2422              	.LVL235:
 941:src-gen/Main/core/reactor_common.c ****     } else {
 2423              		.loc 1 941 23 view .LVU670
 2424 017a 91E7     		b	.L190
 2425              	.LVL236:
 2426              	.L218:
 953:src-gen/Main/core/reactor_common.c ****                     "Revising to the current time " PRINTF_TIME ".",
 2427              		.loc 1 953 13 is_stmt 1 view .LVU671
 2428 017c 8A1B     		subs	r2, r1, r6
 2429 017e 0091     		str	r1, [sp]
 2430 0180 0193     		str	r3, [sp, #4]
 2431 0182 63EB0903 		sbc	r3, r3, r9
 2432 0186 5D48     		ldr	r0, .L228+20
 2433              	.LVL237:
 953:src-gen/Main/core/reactor_common.c ****                     "Revising to the current time " PRINTF_TIME ".",
 2434              		.loc 1 953 13 is_stmt 0 view .LVU672
ARM GAS  /var/folders/2h/lww79zv53b510qlyvytqnvq40000gn/T//ccDbZlJP.s 			page 72


 2435 0188 FFF7FEFF 		bl	lf_print_warning
 2436              	.LVL238:
 956:src-gen/Main/core/reactor_common.c ****         }
 2437              		.loc 1 956 13 is_stmt 1 view .LVU673
 956:src-gen/Main/core/reactor_common.c ****         }
 2438              		.loc 1 956 27 is_stmt 0 view .LVU674
 2439 018c A668     		ldr	r6, [r4, #8]
 2440              	.LVL239:
 956:src-gen/Main/core/reactor_common.c ****         }
 2441              		.loc 1 956 27 view .LVU675
 2442 018e D4F80C90 		ldr	r9, [r4, #12]
 2443              	.LVL240:
 956:src-gen/Main/core/reactor_common.c ****         }
 2444              		.loc 1 956 27 view .LVU676
 2445 0192 85E7     		b	.L190
 2446              	.LVL241:
 2447              	.L219:
 2448              	.LBB31:
 971:src-gen/Main/core/reactor_common.c ****         e->time = intended_tag.time;
 2449              		.loc 1 971 9 is_stmt 1 view .LVU677
 971:src-gen/Main/core/reactor_common.c ****         e->time = intended_tag.time;
 2450              		.loc 1 971 15 is_stmt 0 view .LVU678
 2451 0194 0696     		str	r6, [sp, #24]
 2452 0196 CDF81C90 		str	r9, [sp, #28]
 2453 019a 0023     		movs	r3, #0
 2454 019c 0893     		str	r3, [sp, #32]
 972:src-gen/Main/core/reactor_common.c ****         event_t* found = (event_t *)pqueue_find_equal_same_priority(env->event_q, e);
 2455              		.loc 1 972 9 is_stmt 1 view .LVU679
 972:src-gen/Main/core/reactor_common.c ****         event_t* found = (event_t *)pqueue_find_equal_same_priority(env->event_q, e);
 2456              		.loc 1 972 17 is_stmt 0 view .LVU680
 2457 019e 3E60     		str	r6, [r7]
 2458 01a0 C7F80490 		str	r9, [r7, #4]
 973:src-gen/Main/core/reactor_common.c ****         // Check for conflicts. Let events pile up in super dense time.
 2459              		.loc 1 973 9 is_stmt 1 view .LVU681
 973:src-gen/Main/core/reactor_common.c ****         // Check for conflicts. Let events pile up in super dense time.
 2460              		.loc 1 973 37 is_stmt 0 view .LVU682
 2461 01a4 3946     		mov	r1, r7
 2462 01a6 A06A     		ldr	r0, [r4, #40]
 2463 01a8 FFF7FEFF 		bl	pqueue_find_equal_same_priority
 2464              	.LVL242:
 975:src-gen/Main/core/reactor_common.c ****             intended_tag.microstep++;
 2465              		.loc 1 975 9 is_stmt 1 view .LVU683
 975:src-gen/Main/core/reactor_common.c ****             intended_tag.microstep++;
 2466              		.loc 1 975 12 is_stmt 0 view .LVU684
 2467 01ac 8046     		mov	r8, r0
 2468              	.LVL243:
 975:src-gen/Main/core/reactor_common.c ****             intended_tag.microstep++;
 2469              		.loc 1 975 12 view .LVU685
 2470 01ae 0028     		cmp	r0, #0
 2471 01b0 A1D0     		beq	.L197
 976:src-gen/Main/core/reactor_common.c ****             // Skip to the last node in the linked list.
 2472              		.loc 1 976 13 is_stmt 1 view .LVU686
 976:src-gen/Main/core/reactor_common.c ****             // Skip to the last node in the linked list.
 2473              		.loc 1 976 35 is_stmt 0 view .LVU687
 2474 01b2 0123     		movs	r3, #1
 2475 01b4 0893     		str	r3, [sp, #32]
 978:src-gen/Main/core/reactor_common.c ****                 found = found->next;
ARM GAS  /var/folders/2h/lww79zv53b510qlyvytqnvq40000gn/T//ccDbZlJP.s 			page 73


 2476              		.loc 1 978 13 is_stmt 1 view .LVU688
 978:src-gen/Main/core/reactor_common.c ****                 found = found->next;
 2477              		.loc 1 978 18 is_stmt 0 view .LVU689
 2478 01b6 03E0     		b	.L193
 2479              	.LVL244:
 2480              	.L194:
 979:src-gen/Main/core/reactor_common.c ****                 intended_tag.microstep++;
 2481              		.loc 1 979 17 is_stmt 1 view .LVU690
 980:src-gen/Main/core/reactor_common.c ****             }
 2482              		.loc 1 980 17 view .LVU691
 980:src-gen/Main/core/reactor_common.c ****             }
 2483              		.loc 1 980 29 is_stmt 0 view .LVU692
 2484 01b8 089B     		ldr	r3, [sp, #32]
 980:src-gen/Main/core/reactor_common.c ****             }
 2485              		.loc 1 980 39 view .LVU693
 2486 01ba 0133     		adds	r3, r3, #1
 2487 01bc 0893     		str	r3, [sp, #32]
 979:src-gen/Main/core/reactor_common.c ****                 intended_tag.microstep++;
 2488              		.loc 1 979 23 view .LVU694
 2489 01be 9046     		mov	r8, r2
 2490              	.LVL245:
 2491              	.L193:
 978:src-gen/Main/core/reactor_common.c ****                 found = found->next;
 2492              		.loc 1 978 31 is_stmt 1 view .LVU695
 978:src-gen/Main/core/reactor_common.c ****                 found = found->next;
 2493              		.loc 1 978 24 is_stmt 0 view .LVU696
 2494 01c0 D8F81820 		ldr	r2, [r8, #24]
 978:src-gen/Main/core/reactor_common.c ****                 found = found->next;
 2495              		.loc 1 978 31 view .LVU697
 2496 01c4 002A     		cmp	r2, #0
 2497 01c6 F7D1     		bne	.L194
 982:src-gen/Main/core/reactor_common.c ****                 LF_PRINT_DEBUG("Attempt to schedule an event after stop_tag was rejected.");
 2498              		.loc 1 982 13 is_stmt 1 view .LVU698
 982:src-gen/Main/core/reactor_common.c ****                 LF_PRINT_DEBUG("Attempt to schedule an event after stop_tag was rejected.");
 2499              		.loc 1 982 17 is_stmt 0 view .LVU699
 2500 01c8 08AB     		add	r3, sp, #32
 2501 01ca 93E80300 		ldm	r3, {r0, r1}
 2502 01ce 8DE80300 		stm	sp, {r0, r1}
 2503 01d2 06AB     		add	r3, sp, #24
 2504 01d4 0CCB     		ldm	r3, {r2, r3}
 2505 01d6 2046     		mov	r0, r4
 2506 01d8 FFF7FEFF 		bl	_lf_is_tag_after_stop_tag
 2507              	.LVL246:
 982:src-gen/Main/core/reactor_common.c ****                 LF_PRINT_DEBUG("Attempt to schedule an event after stop_tag was rejected.");
 2508              		.loc 1 982 16 view .LVU700
 2509 01dc 18B9     		cbnz	r0, .L224
 990:src-gen/Main/core/reactor_common.c ****             return(0); // FIXME: return value
 2510              		.loc 1 990 13 is_stmt 1 view .LVU701
 990:src-gen/Main/core/reactor_common.c ****             return(0); // FIXME: return value
 2511              		.loc 1 990 25 is_stmt 0 view .LVU702
 2512 01de C8F81870 		str	r7, [r8, #24]
 991:src-gen/Main/core/reactor_common.c ****         }
 2513              		.loc 1 991 13 is_stmt 1 view .LVU703
 2514              	.L196:
 987:src-gen/Main/core/reactor_common.c ****             }
 2515              		.loc 1 987 24 is_stmt 0 discriminator 1 view .LVU704
 2516 01e2 0020     		movs	r0, #0
ARM GAS  /var/folders/2h/lww79zv53b510qlyvytqnvq40000gn/T//ccDbZlJP.s 			page 74


 2517 01e4 A3E7     		b	.L181
 2518              	.L224:
 983:src-gen/Main/core/reactor_common.c ****                 // Scheduling an event will incur a microstep
 2519              		.loc 1 983 17 is_stmt 1 discriminator 3 view .LVU705
 983:src-gen/Main/core/reactor_common.c ****                 // Scheduling an event will incur a microstep
 2520              		.loc 1 983 17 discriminator 3 view .LVU706
 983:src-gen/Main/core/reactor_common.c ****                 // Scheduling an event will incur a microstep
 2521              		.loc 1 983 17 discriminator 3 view .LVU707
 986:src-gen/Main/core/reactor_common.c ****                 return 0;
 2522              		.loc 1 986 17 discriminator 3 view .LVU708
 2523 01e6 3946     		mov	r1, r7
 2524 01e8 2046     		mov	r0, r4
 2525 01ea FFF7FEFF 		bl	_lf_recycle_event
 2526              	.LVL247:
 987:src-gen/Main/core/reactor_common.c ****             }
 2527              		.loc 1 987 17 discriminator 3 view .LVU709
 987:src-gen/Main/core/reactor_common.c ****             }
 2528              		.loc 1 987 24 is_stmt 0 discriminator 3 view .LVU710
 2529 01ee F8E7     		b	.L196
 2530              	.LVL248:
 2531              	.L198:
 987:src-gen/Main/core/reactor_common.c ****             }
 2532              		.loc 1 987 24 discriminator 3 view .LVU711
 2533              	.LBE31:
 2534              	.LBB32:
1009:src-gen/Main/core/reactor_common.c ****                     if (min_spacing > 0 ||
 2535              		.loc 1 1009 21 is_stmt 1 discriminator 3 view .LVU712
1009:src-gen/Main/core/reactor_common.c ****                     if (min_spacing > 0 ||
 2536              		.loc 1 1009 21 discriminator 3 view .LVU713
1009:src-gen/Main/core/reactor_common.c ****                     if (min_spacing > 0 ||
 2537              		.loc 1 1009 21 discriminator 3 view .LVU714
1010:src-gen/Main/core/reactor_common.c ****                             pqueue_find_equal_same_priority(env->event_q, existing) != NULL) {
 2538              		.loc 1 1010 21 discriminator 3 view .LVU715
1010:src-gen/Main/core/reactor_common.c ****                             pqueue_find_equal_same_priority(env->event_q, existing) != NULL) {
 2539              		.loc 1 1010 24 is_stmt 0 discriminator 3 view .LVU716
 2540 01f0 039B     		ldr	r3, [sp, #12]
 2541 01f2 012B     		cmp	r3, #1
 2542 01f4 049B     		ldr	r3, [sp, #16]
 2543 01f6 73F10003 		sbcs	r3, r3, #0
 2544 01fa 0CDB     		blt	.L225
 2545              	.L201:
1013:src-gen/Main/core/reactor_common.c ****                             _lf_done_using(token);
 2546              		.loc 1 1013 25 is_stmt 1 view .LVU717
1013:src-gen/Main/core/reactor_common.c ****                             _lf_done_using(token);
 2547              		.loc 1 1013 37 is_stmt 0 view .LVU718
 2548 01fc D8F81030 		ldr	r3, [r8, #16]
1013:src-gen/Main/core/reactor_common.c ****                             _lf_done_using(token);
 2549              		.loc 1 1013 28 view .LVU719
 2550 0200 5B45     		cmp	r3, fp
 2551 0202 02D0     		beq	.L202
1014:src-gen/Main/core/reactor_common.c ****                         }
 2552              		.loc 1 1014 29 is_stmt 1 view .LVU720
 2553 0204 5846     		mov	r0, fp
 2554 0206 FFF7FEFF 		bl	_lf_done_using
 2555              	.LVL249:
 2556              	.L202:
1016:src-gen/Main/core/reactor_common.c ****                         return(0);
ARM GAS  /var/folders/2h/lww79zv53b510qlyvytqnvq40000gn/T//ccDbZlJP.s 			page 75


 2557              		.loc 1 1016 25 view .LVU721
 2558 020a 3946     		mov	r1, r7
 2559 020c 2046     		mov	r0, r4
 2560 020e FFF7FEFF 		bl	_lf_recycle_event
 2561              	.LVL250:
1017:src-gen/Main/core/reactor_common.c ****                     }
 2562              		.loc 1 1017 25 view .LVU722
1017:src-gen/Main/core/reactor_common.c ****                     }
 2563              		.loc 1 1017 31 is_stmt 0 view .LVU723
 2564 0212 0020     		movs	r0, #0
 2565 0214 8BE7     		b	.L181
 2566              	.L225:
