ARM GAS  /var/folders/2h/lww79zv53b510qlyvytqnvq40000gn/T//ccgazJSx.s 			page 1


   1              		.cpu cortex-m4
   2              		.arch armv7e-m
   3              		.fpu fpv4-sp-d16
   4              		.eabi_attribute 27, 1
   5              		.eabi_attribute 28, 1
   6              		.eabi_attribute 20, 1
   7              		.eabi_attribute 21, 1
   8              		.eabi_attribute 23, 3
   9              		.eabi_attribute 24, 1
  10              		.eabi_attribute 25, 1
  11              		.eabi_attribute 26, 1
  12              		.eabi_attribute 30, 1
  13              		.eabi_attribute 34, 1
  14              		.eabi_attribute 18, 4
  15              		.file	"tag.c"
  16              		.text
  17              	.Ltext0:
  18              		.cfi_sections	.debug_frame
  19              		.file 1 "src-gen/Main/core/tag.c"
  20              		.section	.rodata._lf_physical_time.str1.4,"aMS",%progbits,1
  21              		.align	2
  22              	.LC0:
  23 0000 4661696C 		.ascii	"Failed to read the physical clock.\000"
  23      65642074 
  23      6F207265 
  23      61642074 
  23      68652070 
  24              		.section	.text._lf_physical_time,"ax",%progbits
  25              		.align	1
  26              		.global	_lf_physical_time
  27              		.syntax unified
  28              		.thumb
  29              		.thumb_func
  31              	_lf_physical_time:
  32              	.LFB133:
   1:src-gen/Main/core/tag.c **** /**
   2:src-gen/Main/core/tag.c ****  * @file
   3:src-gen/Main/core/tag.c ****  * @author Edward A. Lee
   4:src-gen/Main/core/tag.c ****  * @author Soroush Bateni
   5:src-gen/Main/core/tag.c ****  * @author Hou Seng (Steven) Wong
   6:src-gen/Main/core/tag.c ****  * @copyright (c) 2020-2023, The University of California at Berkeley
   7:src-gen/Main/core/tag.c ****  * License in [BSD 2-clause](https://github.com/lf-lang/reactor-c/blob/main/LICENSE.md)
   8:src-gen/Main/core/tag.c ****  * @brief Implementation of time and tag functions for Lingua Franca programs.
   9:src-gen/Main/core/tag.c ****  */
  10:src-gen/Main/core/tag.c **** 
  11:src-gen/Main/core/tag.c **** #include <assert.h>
  12:src-gen/Main/core/tag.c **** #include <stdbool.h>
  13:src-gen/Main/core/tag.c **** #include <stdio.h>
  14:src-gen/Main/core/tag.c **** #include <string.h>
  15:src-gen/Main/core/tag.c **** 
  16:src-gen/Main/core/tag.c **** #include "tag.h"
  17:src-gen/Main/core/tag.c **** #include "util.h"
  18:src-gen/Main/core/tag.c **** #include "platform.h"
  19:src-gen/Main/core/tag.c **** #include "environment.h"
  20:src-gen/Main/core/tag.c **** #include "reactor.h"
  21:src-gen/Main/core/tag.c **** #include "util.h"
  22:src-gen/Main/core/tag.c **** #include "lf_types.h"
ARM GAS  /var/folders/2h/lww79zv53b510qlyvytqnvq40000gn/T//ccgazJSx.s 			page 2


  23:src-gen/Main/core/tag.c **** 
  24:src-gen/Main/core/tag.c **** 
  25:src-gen/Main/core/tag.c **** /**
  26:src-gen/Main/core/tag.c ****  * An enum for specifying the desired tag when calling "lf_time"
  27:src-gen/Main/core/tag.c ****  */
  28:src-gen/Main/core/tag.c **** typedef enum _lf_time_type {
  29:src-gen/Main/core/tag.c ****     LF_LOGICAL,
  30:src-gen/Main/core/tag.c ****     LF_PHYSICAL,
  31:src-gen/Main/core/tag.c ****     LF_ELAPSED_LOGICAL,
  32:src-gen/Main/core/tag.c ****     LF_ELAPSED_PHYSICAL,
  33:src-gen/Main/core/tag.c ****     LF_START
  34:src-gen/Main/core/tag.c **** } _lf_time_type;
  35:src-gen/Main/core/tag.c **** 
  36:src-gen/Main/core/tag.c **** //////////////// Global variables declared in tag.h:
  37:src-gen/Main/core/tag.c **** 
  38:src-gen/Main/core/tag.c **** // Global variables declared in tag.h:
  39:src-gen/Main/core/tag.c **** instant_t start_time = NEVER;
  40:src-gen/Main/core/tag.c **** 
  41:src-gen/Main/core/tag.c **** //////////////// Global variables not declared in tag.h (must be declared extern if used elsewhere)
  42:src-gen/Main/core/tag.c **** 
  43:src-gen/Main/core/tag.c **** /**
  44:src-gen/Main/core/tag.c ****  * Global physical clock offset.
  45:src-gen/Main/core/tag.c ****  * Initially set according to the RTI's clock in federated
  46:src-gen/Main/core/tag.c ****  * programs.
  47:src-gen/Main/core/tag.c ****  */
  48:src-gen/Main/core/tag.c **** interval_t _lf_time_physical_clock_offset = 0LL;
  49:src-gen/Main/core/tag.c **** 
  50:src-gen/Main/core/tag.c **** /**
  51:src-gen/Main/core/tag.c ****  * A test offset that is applied to the clock.
  52:src-gen/Main/core/tag.c ****  * The clock synchronization algorithm must correct for this offset.
  53:src-gen/Main/core/tag.c ****  * This offset is especially useful to test clock synchronization on the
  54:src-gen/Main/core/tag.c ****  * same machine.
  55:src-gen/Main/core/tag.c ****  */
  56:src-gen/Main/core/tag.c **** interval_t _lf_time_test_physical_clock_offset = 0LL;
  57:src-gen/Main/core/tag.c **** 
  58:src-gen/Main/core/tag.c **** /**
  59:src-gen/Main/core/tag.c ****  * Stores the last reported absolute snapshot of the
  60:src-gen/Main/core/tag.c ****  * physical clock.
  61:src-gen/Main/core/tag.c ****  */
  62:src-gen/Main/core/tag.c **** instant_t _lf_last_reported_physical_time_ns = 0LL;
  63:src-gen/Main/core/tag.c **** 
  64:src-gen/Main/core/tag.c **** /**
  65:src-gen/Main/core/tag.c ****  * Records the most recent time reported by the physical clock
  66:src-gen/Main/core/tag.c ****  * when accessed by lf_time_physical(). This will be an epoch time
  67:src-gen/Main/core/tag.c ****  * (number of nanoseconds since Jan. 1, 1970), as reported when
  68:src-gen/Main/core/tag.c ****  * you call _lf_clock_now(CLOCK_REALTIME, ...). This differs from
  69:src-gen/Main/core/tag.c ****  * _lf_last_reported_physical_time_ns by _lf_time_physical_clock_offset
  70:src-gen/Main/core/tag.c ****  * plus any calculated drift adjustement, which are adjustments made
  71:src-gen/Main/core/tag.c ****  * by clock synchronization.
  72:src-gen/Main/core/tag.c ****  */
  73:src-gen/Main/core/tag.c **** instant_t _lf_last_reported_unadjusted_physical_time_ns = NEVER;
  74:src-gen/Main/core/tag.c **** 
  75:src-gen/Main/core/tag.c **** ////////////////  Functions not declared in tag.h (local use only)
  76:src-gen/Main/core/tag.c **** 
  77:src-gen/Main/core/tag.c **** /**
  78:src-gen/Main/core/tag.c ****  * Return the current physical time in nanoseconds since January 1, 1970,
  79:src-gen/Main/core/tag.c ****  * adjusted by the global physical time offset.
ARM GAS  /var/folders/2h/lww79zv53b510qlyvytqnvq40000gn/T//ccgazJSx.s 			page 3


  80:src-gen/Main/core/tag.c ****  */
  81:src-gen/Main/core/tag.c **** instant_t _lf_physical_time() {
  33              		.loc 1 81 31 view -0
  34              		.cfi_startproc
  35              		@ args = 0, pretend = 0, frame = 0
  36              		@ frame_needed = 0, uses_anonymous_args = 0
  37 0000 08B5     		push	{r3, lr}
  38              	.LCFI0:
  39              		.cfi_def_cfa_offset 8
  40              		.cfi_offset 3, -8
  41              		.cfi_offset 14, -4
  82:src-gen/Main/core/tag.c ****     // Get the current clock value
  83:src-gen/Main/core/tag.c ****     int result = _lf_clock_now(&_lf_last_reported_unadjusted_physical_time_ns);
  42              		.loc 1 83 5 view .LVU1
  43              		.loc 1 83 18 is_stmt 0 view .LVU2
  44 0002 1248     		ldr	r0, .L6
  45 0004 FFF7FEFF 		bl	_lf_clock_now
  46              	.LVL0:
  84:src-gen/Main/core/tag.c **** 
  85:src-gen/Main/core/tag.c ****     if (result != 0) {
  47              		.loc 1 85 5 is_stmt 1 view .LVU3
  48              		.loc 1 85 8 is_stmt 0 view .LVU4
  49 0008 D8B9     		cbnz	r0, .L5
  50              	.LVL1:
  51              	.L2:
  86:src-gen/Main/core/tag.c ****         lf_print_error("Failed to read the physical clock.");
  87:src-gen/Main/core/tag.c ****     }
  88:src-gen/Main/core/tag.c **** 
  89:src-gen/Main/core/tag.c ****     // Adjust the reported clock with the appropriate offsets
  90:src-gen/Main/core/tag.c ****     instant_t adjusted_clock_ns = _lf_last_reported_unadjusted_physical_time_ns
  52              		.loc 1 90 5 is_stmt 1 view .LVU5
  91:src-gen/Main/core/tag.c ****             + _lf_time_physical_clock_offset;
  53              		.loc 1 91 13 is_stmt 0 view .LVU6
  54 000a 104A     		ldr	r2, .L6
  55 000c 1368     		ldr	r3, [r2]
  56 000e 5268     		ldr	r2, [r2, #4]
  57 0010 0F48     		ldr	r0, .L6+4
  58 0012 0168     		ldr	r1, [r0]
  59 0014 4068     		ldr	r0, [r0, #4]
  90:src-gen/Main/core/tag.c ****             + _lf_time_physical_clock_offset;
  60              		.loc 1 90 15 view .LVU7
  61 0016 5B18     		adds	r3, r3, r1
  62 0018 42EB0002 		adc	r2, r2, r0
  63              	.LVL2:
  92:src-gen/Main/core/tag.c **** 
  93:src-gen/Main/core/tag.c ****     // Apply the test offset
  94:src-gen/Main/core/tag.c ****     adjusted_clock_ns += _lf_time_test_physical_clock_offset;
  64              		.loc 1 94 5 is_stmt 1 view .LVU8
  65              		.loc 1 94 23 is_stmt 0 view .LVU9
  66 001c 0D48     		ldr	r0, .L6+8
  67 001e 0168     		ldr	r1, [r0]
  68 0020 4068     		ldr	r0, [r0, #4]
  69 0022 5B18     		adds	r3, r3, r1
  70              	.LVL3:
  71              		.loc 1 94 23 view .LVU10
  72 0024 42EB0002 		adc	r2, r2, r0
  73              	.LVL4:
ARM GAS  /var/folders/2h/lww79zv53b510qlyvytqnvq40000gn/T//ccgazJSx.s 			page 4


  95:src-gen/Main/core/tag.c **** 
  96:src-gen/Main/core/tag.c ****     // Check if the clock has progressed since the last reported value
  97:src-gen/Main/core/tag.c ****     // This ensures that the clock is monotonic
  98:src-gen/Main/core/tag.c ****     if (adjusted_clock_ns > _lf_last_reported_physical_time_ns) {
  74              		.loc 1 98 5 is_stmt 1 view .LVU11
  75              		.loc 1 98 27 is_stmt 0 view .LVU12
  76 0028 0B49     		ldr	r1, .L6+12
  77 002a 0868     		ldr	r0, [r1]
  78 002c 4968     		ldr	r1, [r1, #4]
  79              		.loc 1 98 8 view .LVU13
  80 002e 9842     		cmp	r0, r3
  81 0030 9141     		sbcs	r1, r1, r2
  82 0032 02DA     		bge	.L3
  99:src-gen/Main/core/tag.c ****         _lf_last_reported_physical_time_ns = adjusted_clock_ns;
  83              		.loc 1 99 9 is_stmt 1 view .LVU14
  84              		.loc 1 99 44 is_stmt 0 view .LVU15
  85 0034 0849     		ldr	r1, .L6+12
  86 0036 0B60     		str	r3, [r1]
  87 0038 4A60     		str	r2, [r1, #4]
  88              	.L3:
 100:src-gen/Main/core/tag.c ****     }
 101:src-gen/Main/core/tag.c **** 
 102:src-gen/Main/core/tag.c ****     LF_PRINT_DEBUG("Physical time: " PRINTF_TIME
  89              		.loc 1 102 5 is_stmt 1 discriminator 3 view .LVU16
  90              		.loc 1 102 5 discriminator 3 view .LVU17
  91              		.loc 1 102 5 discriminator 3 view .LVU18
 103:src-gen/Main/core/tag.c ****     		". Elapsed: " PRINTF_TIME
 104:src-gen/Main/core/tag.c **** 			". Offset: " PRINTF_TIME,
 105:src-gen/Main/core/tag.c ****             _lf_last_reported_physical_time_ns,
 106:src-gen/Main/core/tag.c ****             _lf_last_reported_physical_time_ns - start_time,
 107:src-gen/Main/core/tag.c ****             _lf_time_physical_clock_offset + _lf_time_test_physical_clock_offset);
 108:src-gen/Main/core/tag.c **** 
 109:src-gen/Main/core/tag.c ****     return _lf_last_reported_physical_time_ns;
  92              		.loc 1 109 5 discriminator 3 view .LVU19
 110:src-gen/Main/core/tag.c **** }
  93              		.loc 1 110 1 is_stmt 0 discriminator 3 view .LVU20
  94 003a 074B     		ldr	r3, .L6+12
  95              	.LVL5:
  96              		.loc 1 110 1 discriminator 3 view .LVU21
  97 003c D3E90001 		ldrd	r0, [r3]
  98 0040 08BD     		pop	{r3, pc}
  99              	.LVL6:
 100              	.L5:
  86:src-gen/Main/core/tag.c ****     }
 101              		.loc 1 86 9 is_stmt 1 view .LVU22
 102 0042 0648     		ldr	r0, .L6+16
 103              	.LVL7:
  86:src-gen/Main/core/tag.c ****     }
 104              		.loc 1 86 9 is_stmt 0 view .LVU23
 105 0044 FFF7FEFF 		bl	lf_print_error
 106              	.LVL8:
 107 0048 DFE7     		b	.L2
 108              	.L7:
 109 004a 00BF     		.align	2
 110              	.L6:
 111 004c 00000000 		.word	_lf_last_reported_unadjusted_physical_time_ns
 112 0050 00000000 		.word	_lf_time_physical_clock_offset
ARM GAS  /var/folders/2h/lww79zv53b510qlyvytqnvq40000gn/T//ccgazJSx.s 			page 5


 113 0054 00000000 		.word	_lf_time_test_physical_clock_offset
 114 0058 00000000 		.word	_lf_last_reported_physical_time_ns
 115 005c 00000000 		.word	.LC0
 116              		.cfi_endproc
 117              	.LFE133:
 119              		.section	.rodata.lf_tag.str1.4,"aMS",%progbits,1
 120              		.align	2
 121              	.LC1:
 122 0000 656E7620 		.ascii	"env != GLOBAL_ENVIRONMENT\000"
 122      213D2047 
 122      4C4F4241 
 122      4C5F454E 
 122      5649524F 
 123 001a 0000     		.align	2
 124              	.LC2:
 125 001c 7372632D 		.ascii	"src-gen/Main/core/tag.c\000"
 125      67656E2F 
 125      4D61696E 
 125      2F636F72 
 125      652F7461 
 126              		.section	.text.lf_tag,"ax",%progbits
 127              		.align	1
 128              		.global	lf_tag
 129              		.syntax unified
 130              		.thumb
 131              		.thumb_func
 133              	lf_tag:
 134              	.LVL9:
 135              	.LFB134:
 111:src-gen/Main/core/tag.c **** 
 112:src-gen/Main/core/tag.c **** ////////////////  Functions declared in tag.h
 113:src-gen/Main/core/tag.c **** 
 114:src-gen/Main/core/tag.c **** tag_t lf_tag(void *env) {
 136              		.loc 1 114 25 is_stmt 1 view -0
 137              		.cfi_startproc
 138              		@ args = 0, pretend = 0, frame = 0
 139              		@ frame_needed = 0, uses_anonymous_args = 0
 140              		.loc 1 114 25 is_stmt 0 view .LVU25
 141 0000 08B5     		push	{r3, lr}
 142              	.LCFI1:
 143              		.cfi_def_cfa_offset 8
 144              		.cfi_offset 3, -8
 145              		.cfi_offset 14, -4
 115:src-gen/Main/core/tag.c ****     assert(env != GLOBAL_ENVIRONMENT);
 146              		.loc 1 115 5 is_stmt 1 view .LVU26
 147 0002 39B1     		cbz	r1, .L11
 148 0004 8446     		mov	ip, r0
 149 0006 0B46     		mov	r3, r1
 116:src-gen/Main/core/tag.c ****     return ((environment_t *)env)->current_tag;
 150              		.loc 1 116 5 view .LVU27
 151              		.loc 1 116 34 is_stmt 0 view .LVU28
 152 0008 0833     		adds	r3, r3, #8
 153 000a 0FCB     		ldm	r3, {r0, r1, r2, r3}
 154              	.LVL10:
 155              		.loc 1 116 34 view .LVU29
 156 000c 8CE80F00 		stm	ip, {r0, r1, r2, r3}
 117:src-gen/Main/core/tag.c **** }
ARM GAS  /var/folders/2h/lww79zv53b510qlyvytqnvq40000gn/T//ccgazJSx.s 			page 6


 157              		.loc 1 117 1 view .LVU30
 158 0010 6046     		mov	r0, ip
 159 0012 08BD     		pop	{r3, pc}
 160              	.LVL11:
 161              	.L11:
 115:src-gen/Main/core/tag.c ****     assert(env != GLOBAL_ENVIRONMENT);
 162              		.loc 1 115 5 discriminator 1 view .LVU31
 163 0014 024B     		ldr	r3, .L12
 164 0016 034A     		ldr	r2, .L12+4
 165 0018 7321     		movs	r1, #115
 166              	.LVL12:
 115:src-gen/Main/core/tag.c ****     assert(env != GLOBAL_ENVIRONMENT);
 167              		.loc 1 115 5 discriminator 1 view .LVU32
 168 001a 0348     		ldr	r0, .L12+8
 169              	.LVL13:
 115:src-gen/Main/core/tag.c ****     assert(env != GLOBAL_ENVIRONMENT);
 170              		.loc 1 115 5 discriminator 1 view .LVU33
 171 001c FFF7FEFF 		bl	__assert_func
 172              	.LVL14:
 173              	.L13:
 174              		.align	2
 175              	.L12:
 176 0020 00000000 		.word	.LC1
 177 0024 00000000 		.word	__func__.1
 178 0028 1C000000 		.word	.LC2
 179              		.cfi_endproc
 180              	.LFE134:
 182              		.section	.text.lf_tag_compare,"ax",%progbits
 183              		.align	1
 184              		.global	lf_tag_compare
 185              		.syntax unified
 186              		.thumb
 187              		.thumb_func
 189              	lf_tag_compare:
 190              	.LFB135:
 118:src-gen/Main/core/tag.c **** 
 119:src-gen/Main/core/tag.c **** int lf_tag_compare(tag_t tag1, tag_t tag2) {
 191              		.loc 1 119 44 is_stmt 1 view -0
 192              		.cfi_startproc
 193              		@ args = 16, pretend = 0, frame = 16
 194              		@ frame_needed = 0, uses_anonymous_args = 0
 195              		@ link register save eliminated.
 196 0000 84B0     		sub	sp, sp, #16
 197              	.LCFI2:
 198              		.cfi_def_cfa_offset 16
 199 0002 0DF1100C 		add	ip, sp, #16
 200 0006 0CE90F00 		stmdb	ip, {r0, r1, r2, r3}
 120:src-gen/Main/core/tag.c ****     if (tag1.time < tag2.time) {
 201              		.loc 1 120 5 view .LVU35
 202              		.loc 1 120 13 is_stmt 0 view .LVU36
 203 000a 0146     		mov	r1, r0
 204 000c 019A     		ldr	r2, [sp, #4]
 205              		.loc 1 120 25 view .LVU37
 206 000e 0498     		ldr	r0, [sp, #16]
 207 0010 059B     		ldr	r3, [sp, #20]
 208              		.loc 1 120 8 view .LVU38
 209 0012 8142     		cmp	r1, r0
ARM GAS  /var/folders/2h/lww79zv53b510qlyvytqnvq40000gn/T//ccgazJSx.s 			page 7


 210 0014 72EB030C 		sbcs	ip, r2, r3
 211 0018 09DB     		blt	.L16
 121:src-gen/Main/core/tag.c ****         LF_PRINT_DEBUG(PRINTF_TIME " < " PRINTF_TIME, tag1.time, tag2.time);
 122:src-gen/Main/core/tag.c ****         return -1;
 123:src-gen/Main/core/tag.c ****     } else if (tag1.time > tag2.time) {
 212              		.loc 1 123 12 is_stmt 1 view .LVU39
 213              		.loc 1 123 15 is_stmt 0 view .LVU40
 214 001a 8842     		cmp	r0, r1
 215 001c 9341     		sbcs	r3, r3, r2
 216 001e 0ADB     		blt	.L17
 124:src-gen/Main/core/tag.c ****         return 1;
 125:src-gen/Main/core/tag.c ****     } else if (tag1.microstep < tag2.microstep) {
 217              		.loc 1 125 12 is_stmt 1 view .LVU41
 218              		.loc 1 125 20 is_stmt 0 view .LVU42
 219 0020 029A     		ldr	r2, [sp, #8]
 220              		.loc 1 125 37 view .LVU43
 221 0022 069B     		ldr	r3, [sp, #24]
 222              		.loc 1 125 15 view .LVU44
 223 0024 9A42     		cmp	r2, r3
 224 0026 08D3     		bcc	.L18
 126:src-gen/Main/core/tag.c ****         LF_PRINT_DEBUG(PRINTF_TIME " and microstep < " PRINTF_TIME, tag1.time, tag2.time);
 127:src-gen/Main/core/tag.c ****         return -1;
 128:src-gen/Main/core/tag.c ****     } else if (tag1.microstep > tag2.microstep) {
 225              		.loc 1 128 12 is_stmt 1 view .LVU45
 226              		.loc 1 128 15 is_stmt 0 view .LVU46
 227 0028 0AD9     		bls	.L19
 129:src-gen/Main/core/tag.c ****         return 1;
 228              		.loc 1 129 16 view .LVU47
 229 002a 0120     		movs	r0, #1
 230 002c 01E0     		b	.L14
 231              	.L16:
 122:src-gen/Main/core/tag.c ****     } else if (tag1.time > tag2.time) {
 232              		.loc 1 122 16 view .LVU48
 233 002e 4FF0FF30 		mov	r0, #-1
 234              	.L14:
 130:src-gen/Main/core/tag.c ****     } else {
 131:src-gen/Main/core/tag.c ****         return 0;
 132:src-gen/Main/core/tag.c ****     }
 133:src-gen/Main/core/tag.c **** }
 235              		.loc 1 133 1 view .LVU49
 236 0032 04B0     		add	sp, sp, #16
 237              	.LCFI3:
 238              		.cfi_remember_state
 239              		.cfi_def_cfa_offset 0
 240              		@ sp needed
 241 0034 7047     		bx	lr
 242              	.L17:
 243              	.LCFI4:
 244              		.cfi_restore_state
 124:src-gen/Main/core/tag.c ****     } else if (tag1.microstep < tag2.microstep) {
 245              		.loc 1 124 16 view .LVU50
 246 0036 0120     		movs	r0, #1
 247 0038 FBE7     		b	.L14
 248              	.L18:
 127:src-gen/Main/core/tag.c ****     } else if (tag1.microstep > tag2.microstep) {
 249              		.loc 1 127 16 view .LVU51
 250 003a 4FF0FF30 		mov	r0, #-1
ARM GAS  /var/folders/2h/lww79zv53b510qlyvytqnvq40000gn/T//ccgazJSx.s 			page 8


 251 003e F8E7     		b	.L14
 252              	.L19:
 131:src-gen/Main/core/tag.c ****     }
 253              		.loc 1 131 16 view .LVU52
 254 0040 0020     		movs	r0, #0
 255 0042 F6E7     		b	.L14
 256              		.cfi_endproc
 257              	.LFE135:
 259              		.section	.text.lf_delay_tag,"ax",%progbits
 260              		.align	1
 261              		.global	lf_delay_tag
 262              		.syntax unified
 263              		.thumb
 264              		.thumb_func
 266              	lf_delay_tag:
 267              	.LVL15:
 268              	.LFB136:
 134:src-gen/Main/core/tag.c **** 
 135:src-gen/Main/core/tag.c **** tag_t lf_delay_tag(tag_t tag, interval_t interval) {
 269              		.loc 1 135 52 is_stmt 1 view -0
 270              		.cfi_startproc
 271              		@ args = 24, pretend = 8, frame = 16
 272              		@ frame_needed = 0, uses_anonymous_args = 0
 273              		.loc 1 135 52 is_stmt 0 view .LVU54
 274 0000 82B0     		sub	sp, sp, #8
 275              	.LCFI5:
 276              		.cfi_def_cfa_offset 8
 277 0002 F0B5     		push	{r4, r5, r6, r7, lr}
 278              	.LCFI6:
 279              		.cfi_def_cfa_offset 28
 280              		.cfi_offset 4, -28
 281              		.cfi_offset 5, -24
 282              		.cfi_offset 6, -20
 283              		.cfi_offset 7, -16
 284              		.cfi_offset 14, -12
 285 0004 85B0     		sub	sp, sp, #20
 286              	.LCFI7:
 287              		.cfi_def_cfa_offset 48
 288 0006 8446     		mov	ip, r0
 289 0008 0AA9     		add	r1, sp, #40
 290 000a 81E80C00 		stm	r1, {r2, r3}
 291 000e 0E9E     		ldr	r6, [sp, #56]
 292 0010 0F9C     		ldr	r4, [sp, #60]
 136:src-gen/Main/core/tag.c ****     if (tag.time == NEVER || interval < 0LL) return tag;
 293              		.loc 1 136 5 is_stmt 1 view .LVU55
 294              		.loc 1 136 8 is_stmt 0 view .LVU56
 295 0012 B3F1004F 		cmp	r3, #-2147483648
 296 0016 08BF     		it	eq
 297 0018 002A     		cmpeq	r2, #0
 298 001a 19D0     		beq	.L22
 299 001c 9646     		mov	lr, r2
 300 001e 1D46     		mov	r5, r3
 301              		.loc 1 136 27 discriminator 2 view .LVU57
 302 0020 002C     		cmp	r4, #0
 303 0022 15DB     		blt	.L22
 137:src-gen/Main/core/tag.c ****     tag_t result = tag;
 304              		.loc 1 137 5 is_stmt 1 view .LVU58
ARM GAS  /var/folders/2h/lww79zv53b510qlyvytqnvq40000gn/T//ccgazJSx.s 			page 9


 305              		.loc 1 137 11 is_stmt 0 view .LVU59
 306 0024 0AAB     		add	r3, sp, #40
 307 0026 0FCB     		ldm	r3, {r0, r1, r2, r3}
 308              	.LVL16:
 309              		.loc 1 137 11 view .LVU60
 310 0028 04AF     		add	r7, sp, #16
 311 002a 07E90F00 		stmdb	r7, {r0, r1, r2, r3}
 138:src-gen/Main/core/tag.c ****     if (interval == 0LL) {
 312              		.loc 1 138 5 is_stmt 1 view .LVU61
 313              		.loc 1 138 8 is_stmt 0 view .LVU62
 314 002e 56EA0403 		orrs	r3, r6, r4
 315 0032 12D1     		bne	.L25
 139:src-gen/Main/core/tag.c ****         // Note that unsigned variables will wrap on overflow.
 140:src-gen/Main/core/tag.c ****         // This is probably the only reasonable thing to do with overflowing
 141:src-gen/Main/core/tag.c ****         // microsteps.
 142:src-gen/Main/core/tag.c ****         result.microstep++;
 316              		.loc 1 142 9 is_stmt 1 view .LVU63
 317              		.loc 1 142 15 is_stmt 0 view .LVU64
 318 0034 1346     		mov	r3, r2
 319              		.loc 1 142 25 view .LVU65
 320 0036 0133     		adds	r3, r3, #1
 321 0038 0293     		str	r3, [sp, #8]
 322              	.L26:
 143:src-gen/Main/core/tag.c ****     } else {
 144:src-gen/Main/core/tag.c ****         // Note that overflow in C is undefined for signed variables.
 145:src-gen/Main/core/tag.c ****         if (FOREVER - interval < result.time) {
 146:src-gen/Main/core/tag.c ****             result.time = FOREVER;
 147:src-gen/Main/core/tag.c ****         } else {
 148:src-gen/Main/core/tag.c ****             result.time += interval;
 149:src-gen/Main/core/tag.c ****         }
 150:src-gen/Main/core/tag.c ****         result.microstep = 0;
 151:src-gen/Main/core/tag.c ****     }
 152:src-gen/Main/core/tag.c ****     return result;
 323              		.loc 1 152 5 is_stmt 1 view .LVU66
 324              		.loc 1 152 12 is_stmt 0 view .LVU67
 325 003a 04AB     		add	r3, sp, #16
 326 003c 13E90F00 		ldmdb	r3, {r0, r1, r2, r3}
 327 0040 8CE80F00 		stm	ip, {r0, r1, r2, r3}
 328              	.L21:
 153:src-gen/Main/core/tag.c **** }
 329              		.loc 1 153 1 view .LVU68
 330 0044 6046     		mov	r0, ip
 331 0046 05B0     		add	sp, sp, #20
 332              	.LCFI8:
 333              		.cfi_remember_state
 334              		.cfi_def_cfa_offset 28
 335              		@ sp needed
 336 0048 BDE8F040 		pop	{r4, r5, r6, r7, lr}
 337              	.LCFI9:
 338              		.cfi_restore 14
 339              		.cfi_restore 7
 340              		.cfi_restore 6
 341              		.cfi_restore 5
 342              		.cfi_restore 4
 343              		.cfi_def_cfa_offset 8
 344 004c 02B0     		add	sp, sp, #8
 345              	.LCFI10:
ARM GAS  /var/folders/2h/lww79zv53b510qlyvytqnvq40000gn/T//ccgazJSx.s 			page 10


 346              		.cfi_def_cfa_offset 0
 347 004e 7047     		bx	lr
 348              	.LVL17:
 349              	.L22:
 350              	.LCFI11:
 351              		.cfi_restore_state
 136:src-gen/Main/core/tag.c ****     tag_t result = tag;
 352              		.loc 1 136 46 is_stmt 1 discriminator 3 view .LVU69
 136:src-gen/Main/core/tag.c ****     tag_t result = tag;
 353              		.loc 1 136 53 is_stmt 0 discriminator 3 view .LVU70
 354 0050 0AAB     		add	r3, sp, #40
 355 0052 0FCB     		ldm	r3, {r0, r1, r2, r3}
 356              	.LVL18:
 136:src-gen/Main/core/tag.c ****     tag_t result = tag;
 357              		.loc 1 136 53 discriminator 3 view .LVU71
 358 0054 8CE80F00 		stm	ip, {r0, r1, r2, r3}
 359 0058 F4E7     		b	.L21
 360              	.L25:
 145:src-gen/Main/core/tag.c ****             result.time = FOREVER;
 361              		.loc 1 145 9 is_stmt 1 view .LVU72
 145:src-gen/Main/core/tag.c ****             result.time = FOREVER;
 362              		.loc 1 145 21 is_stmt 0 view .LVU73
 363 005a F343     		mvns	r3, r6
 145:src-gen/Main/core/tag.c ****             result.time = FOREVER;
 364              		.loc 1 145 12 view .LVU74
 365 005c 7345     		cmp	r3, lr
 366 005e 6FF00043 		mvn	r3, #-2147483648
 367 0062 A3EB0403 		sub	r3, r3, r4
 368 0066 AB41     		sbcs	r3, r3, r5
 369 0068 08DA     		bge	.L27
 146:src-gen/Main/core/tag.c ****         } else {
 370              		.loc 1 146 13 is_stmt 1 view .LVU75
 146:src-gen/Main/core/tag.c ****         } else {
 371              		.loc 1 146 25 is_stmt 0 view .LVU76
 372 006a 4FF0FF32 		mov	r2, #-1
 373 006e 6FF00043 		mvn	r3, #-2147483648
 374 0072 CDE90023 		strd	r2, [sp]
 375              	.L28:
 150:src-gen/Main/core/tag.c ****     }
 376              		.loc 1 150 9 is_stmt 1 view .LVU77
 150:src-gen/Main/core/tag.c ****     }
 377              		.loc 1 150 26 is_stmt 0 view .LVU78
 378 0076 0023     		movs	r3, #0
 379 0078 0293     		str	r3, [sp, #8]
 380 007a DEE7     		b	.L26
 381              	.L27:
 148:src-gen/Main/core/tag.c ****         }
 382              		.loc 1 148 13 is_stmt 1 view .LVU79
 148:src-gen/Main/core/tag.c ****         }
 383              		.loc 1 148 25 is_stmt 0 view .LVU80
 384 007c 1EEB0606 		adds	r6, lr, r6
 385 0080 45EB0405 		adc	r5, r5, r4
 386 0084 0096     		str	r6, [sp]
 387 0086 0195     		str	r5, [sp, #4]
 388 0088 F5E7     		b	.L28
 389              		.cfi_endproc
 390              	.LFE136:
ARM GAS  /var/folders/2h/lww79zv53b510qlyvytqnvq40000gn/T//ccgazJSx.s 			page 11


 392              		.section	.text.lf_delay_strict,"ax",%progbits
 393              		.align	1
 394              		.global	lf_delay_strict
 395              		.syntax unified
 396              		.thumb
 397              		.thumb_func
 399              	lf_delay_strict:
 400              	.LVL19:
 401              	.LFB137:
 154:src-gen/Main/core/tag.c **** 
 155:src-gen/Main/core/tag.c **** tag_t lf_delay_strict(tag_t tag, interval_t interval) {
 402              		.loc 1 155 55 is_stmt 1 view -0
 403              		.cfi_startproc
 404              		@ args = 24, pretend = 8, frame = 0
 405              		@ frame_needed = 0, uses_anonymous_args = 0
 406              		.loc 1 155 55 is_stmt 0 view .LVU82
 407 0000 82B0     		sub	sp, sp, #8
 408              	.LCFI12:
 409              		.cfi_def_cfa_offset 8
 410 0002 70B5     		push	{r4, r5, r6, lr}
 411              	.LCFI13:
 412              		.cfi_def_cfa_offset 24
 413              		.cfi_offset 4, -24
 414              		.cfi_offset 5, -20
 415              		.cfi_offset 6, -16
 416              		.cfi_offset 14, -12
 417 0004 84B0     		sub	sp, sp, #16
 418              	.LCFI14:
 419              		.cfi_def_cfa_offset 40
 420 0006 0446     		mov	r4, r0
 421 0008 08A9     		add	r1, sp, #32
 422 000a 81E80C00 		stm	r1, {r2, r3}
 423 000e 0C9E     		ldr	r6, [sp, #48]
 424 0010 0D9D     		ldr	r5, [sp, #52]
 156:src-gen/Main/core/tag.c ****     tag_t result = lf_delay_tag(tag, interval);
 425              		.loc 1 156 5 is_stmt 1 view .LVU83
 426              		.loc 1 156 20 is_stmt 0 view .LVU84
 427 0012 0296     		str	r6, [sp, #8]
 428 0014 0395     		str	r5, [sp, #12]
 429 0016 0AAB     		add	r3, sp, #40
 430 0018 93E80300 		ldm	r3, {r0, r1}
 431              	.LVL20:
 432              		.loc 1 156 20 view .LVU85
 433 001c 8DE80300 		stm	sp, {r0, r1}
 434 0020 08AB     		add	r3, sp, #32
 435 0022 0CCB     		ldm	r3, {r2, r3}
 436 0024 2046     		mov	r0, r4
 437 0026 FFF7FEFF 		bl	lf_delay_tag
 438              	.LVL21:
 157:src-gen/Main/core/tag.c ****     if (interval != 0 && interval != NEVER && interval != FOREVER && result.time != NEVER && result
 439              		.loc 1 157 5 is_stmt 1 view .LVU86
 440              		.loc 1 157 8 is_stmt 0 view .LVU87
 441 002a 56EA0503 		orrs	r3, r6, r5
 442 002e 21D0     		beq	.L30
 443              		.loc 1 157 23 discriminator 1 view .LVU88
 444 0030 B5F1004F 		cmp	r5, #-2147483648
 445 0034 08BF     		it	eq
ARM GAS  /var/folders/2h/lww79zv53b510qlyvytqnvq40000gn/T//ccgazJSx.s 			page 12


 446 0036 002E     		cmpeq	r6, #0
 447 0038 1CD0     		beq	.L30
 448              		.loc 1 157 44 discriminator 2 view .LVU89
 449 003a 6FF00043 		mvn	r3, #-2147483648
 450 003e 9D42     		cmp	r5, r3
 451 0040 08BF     		it	eq
 452 0042 B6F1FF3F 		cmpeq	r6, #-1
 453 0046 15D0     		beq	.L30
 454              		.loc 1 157 76 discriminator 3 view .LVU90
 455 0048 2368     		ldr	r3, [r4]
 456 004a 6268     		ldr	r2, [r4, #4]
 457              		.loc 1 157 67 discriminator 3 view .LVU91
 458 004c B2F1004F 		cmp	r2, #-2147483648
 459 0050 08BF     		it	eq
 460 0052 002B     		cmpeq	r3, #0
 461 0054 0ED0     		beq	.L30
 462              		.loc 1 157 91 discriminator 4 view .LVU92
 463 0056 6FF00041 		mvn	r1, #-2147483648
 464 005a 8A42     		cmp	r2, r1
 465 005c 08BF     		it	eq
 466 005e B3F1FF3F 		cmpeq	r3, #-1
 467 0062 07D0     		beq	.L30
 158:src-gen/Main/core/tag.c ****         LF_PRINT_DEBUG("interval=%lld, result time=%lld", (long long) interval, (long long) result.
 468              		.loc 1 158 9 is_stmt 1 discriminator 3 view .LVU93
 469              		.loc 1 158 9 discriminator 3 view .LVU94
 470              		.loc 1 158 9 discriminator 3 view .LVU95
 159:src-gen/Main/core/tag.c ****         result.time -= 1;
 471              		.loc 1 159 9 discriminator 3 view .LVU96
 472              		.loc 1 159 21 is_stmt 0 discriminator 3 view .LVU97
 473 0064 013B     		subs	r3, r3, #1
 474 0066 42F1FF32 		adc	r2, r2, #-1
 475 006a 2360     		str	r3, [r4]
 476 006c 6260     		str	r2, [r4, #4]
 160:src-gen/Main/core/tag.c ****         result.microstep = UINT_MAX;
 477              		.loc 1 160 9 is_stmt 1 discriminator 3 view .LVU98
 478              		.loc 1 160 26 is_stmt 0 discriminator 3 view .LVU99
 479 006e 4FF0FF33 		mov	r3, #-1
 480 0072 A360     		str	r3, [r4, #8]
 161:src-gen/Main/core/tag.c ****     }
 162:src-gen/Main/core/tag.c ****     return result;
 481              		.loc 1 162 5 is_stmt 1 discriminator 3 view .LVU100
 482              	.L30:
 163:src-gen/Main/core/tag.c **** }
 483              		.loc 1 163 1 is_stmt 0 view .LVU101
 484 0074 2046     		mov	r0, r4
 485 0076 04B0     		add	sp, sp, #16
 486              	.LCFI15:
 487              		.cfi_def_cfa_offset 24
 488              		@ sp needed
 489 0078 BDE87040 		pop	{r4, r5, r6, lr}
 490              	.LCFI16:
 491              		.cfi_restore 14
 492              		.cfi_restore 6
 493              		.cfi_restore 5
 494              		.cfi_restore 4
 495              		.cfi_def_cfa_offset 8
 496              	.LVL22:
ARM GAS  /var/folders/2h/lww79zv53b510qlyvytqnvq40000gn/T//ccgazJSx.s 			page 13


 497              		.loc 1 163 1 view .LVU102
 498 007c 02B0     		add	sp, sp, #8
 499              	.LCFI17:
 500              		.cfi_def_cfa_offset 0
 501 007e 7047     		bx	lr
 502              		.cfi_endproc
 503              	.LFE137:
 505              		.section	.text.lf_time_logical,"ax",%progbits
 506              		.align	1
 507              		.global	lf_time_logical
 508              		.syntax unified
 509              		.thumb
 510              		.thumb_func
 512              	lf_time_logical:
 513              	.LVL23:
 514              	.LFB138:
 164:src-gen/Main/core/tag.c **** 
 165:src-gen/Main/core/tag.c **** instant_t lf_time_logical(void *env) {
 515              		.loc 1 165 38 is_stmt 1 view -0
 516              		.cfi_startproc
 517              		@ args = 0, pretend = 0, frame = 0
 518              		@ frame_needed = 0, uses_anonymous_args = 0
 519              		.loc 1 165 38 is_stmt 0 view .LVU104
 520 0000 08B5     		push	{r3, lr}
 521              	.LCFI18:
 522              		.cfi_def_cfa_offset 8
 523              		.cfi_offset 3, -8
 524              		.cfi_offset 14, -4
 166:src-gen/Main/core/tag.c ****     assert(env != GLOBAL_ENVIRONMENT);
 525              		.loc 1 166 5 is_stmt 1 view .LVU105
 526 0002 10B1     		cbz	r0, .L36
 167:src-gen/Main/core/tag.c ****     return ((environment_t *) env)->current_tag.time;
 527              		.loc 1 167 5 view .LVU106
 168:src-gen/Main/core/tag.c **** }
 528              		.loc 1 168 1 is_stmt 0 view .LVU107
 529 0004 D0E90201 		ldrd	r0, [r0, #8]
 530              	.LVL24:
 531              		.loc 1 168 1 view .LVU108
 532 0008 08BD     		pop	{r3, pc}
 533              	.LVL25:
 534              	.L36:
 166:src-gen/Main/core/tag.c ****     assert(env != GLOBAL_ENVIRONMENT);
 535              		.loc 1 166 5 discriminator 1 view .LVU109
 536 000a 034B     		ldr	r3, .L37
 537 000c 034A     		ldr	r2, .L37+4
 538 000e A621     		movs	r1, #166
 539 0010 0348     		ldr	r0, .L37+8
 540              	.LVL26:
 166:src-gen/Main/core/tag.c ****     assert(env != GLOBAL_ENVIRONMENT);
 541              		.loc 1 166 5 discriminator 1 view .LVU110
 542 0012 FFF7FEFF 		bl	__assert_func
 543              	.LVL27:
 544              	.L38:
 545 0016 00BF     		.align	2
 546              	.L37:
 547 0018 00000000 		.word	.LC1
 548 001c 00000000 		.word	__func__.0
ARM GAS  /var/folders/2h/lww79zv53b510qlyvytqnvq40000gn/T//ccgazJSx.s 			page 14


 549 0020 1C000000 		.word	.LC2
 550              		.cfi_endproc
 551              	.LFE138:
 553              		.section	.text.lf_time_logical_elapsed,"ax",%progbits
 554              		.align	1
 555              		.global	lf_time_logical_elapsed
 556              		.syntax unified
 557              		.thumb
 558              		.thumb_func
 560              	lf_time_logical_elapsed:
 561              	.LVL28:
 562              	.LFB139:
 169:src-gen/Main/core/tag.c **** 
 170:src-gen/Main/core/tag.c **** /**
 171:src-gen/Main/core/tag.c ****  * Return the elapsed logical time in nanoseconds since the start of execution.
 172:src-gen/Main/core/tag.c ****  */
 173:src-gen/Main/core/tag.c **** interval_t lf_time_logical_elapsed(void *env) {
 563              		.loc 1 173 47 is_stmt 1 view -0
 564              		.cfi_startproc
 565              		@ args = 0, pretend = 0, frame = 0
 566              		@ frame_needed = 0, uses_anonymous_args = 0
 567              		.loc 1 173 47 is_stmt 0 view .LVU112
 568 0000 08B5     		push	{r3, lr}
 569              	.LCFI19:
 570              		.cfi_def_cfa_offset 8
 571              		.cfi_offset 3, -8
 572              		.cfi_offset 14, -4
 174:src-gen/Main/core/tag.c ****     return lf_time_logical(env) - start_time;
 573              		.loc 1 174 5 is_stmt 1 view .LVU113
 574              		.loc 1 174 12 is_stmt 0 view .LVU114
 575 0002 FFF7FEFF 		bl	lf_time_logical
 576              	.LVL29:
 577              		.loc 1 174 33 view .LVU115
 578 0006 034A     		ldr	r2, .L41
 579 0008 1368     		ldr	r3, [r2]
 580 000a 5268     		ldr	r2, [r2, #4]
 581 000c C01A     		subs	r0, r0, r3
 175:src-gen/Main/core/tag.c **** }
 582              		.loc 1 175 1 view .LVU116
 583 000e 61EB0201 		sbc	r1, r1, r2
 584 0012 08BD     		pop	{r3, pc}
 585              	.L42:
 586              		.align	2
 587              	.L41:
 588 0014 00000000 		.word	start_time
 589              		.cfi_endproc
 590              	.LFE139:
 592              		.section	.text.lf_time_physical,"ax",%progbits
 593              		.align	1
 594              		.global	lf_time_physical
 595              		.syntax unified
 596              		.thumb
 597              		.thumb_func
 599              	lf_time_physical:
 600              	.LFB140:
 176:src-gen/Main/core/tag.c **** 
 177:src-gen/Main/core/tag.c **** instant_t lf_time_physical(void) {
ARM GAS  /var/folders/2h/lww79zv53b510qlyvytqnvq40000gn/T//ccgazJSx.s 			page 15


 601              		.loc 1 177 34 is_stmt 1 view -0
 602              		.cfi_startproc
 603              		@ args = 0, pretend = 0, frame = 0
 604              		@ frame_needed = 0, uses_anonymous_args = 0
 605 0000 08B5     		push	{r3, lr}
 606              	.LCFI20:
 607              		.cfi_def_cfa_offset 8
 608              		.cfi_offset 3, -8
 609              		.cfi_offset 14, -4
 178:src-gen/Main/core/tag.c ****     return _lf_physical_time();
 610              		.loc 1 178 5 view .LVU118
 611              		.loc 1 178 12 is_stmt 0 view .LVU119
 612 0002 FFF7FEFF 		bl	_lf_physical_time
 613              	.LVL30:
 179:src-gen/Main/core/tag.c **** }
 614              		.loc 1 179 1 view .LVU120
 615 0006 08BD     		pop	{r3, pc}
 616              		.cfi_endproc
 617              	.LFE140:
 619              		.section	.text.lf_time_physical_elapsed,"ax",%progbits
 620              		.align	1
 621              		.global	lf_time_physical_elapsed
 622              		.syntax unified
 623              		.thumb
 624              		.thumb_func
 626              	lf_time_physical_elapsed:
 627              	.LFB141:
 180:src-gen/Main/core/tag.c **** 
 181:src-gen/Main/core/tag.c **** instant_t lf_time_physical_elapsed(void) {
 628              		.loc 1 181 42 is_stmt 1 view -0
 629              		.cfi_startproc
 630              		@ args = 0, pretend = 0, frame = 0
 631              		@ frame_needed = 0, uses_anonymous_args = 0
 632 0000 08B5     		push	{r3, lr}
 633              	.LCFI21:
 634              		.cfi_def_cfa_offset 8
 635              		.cfi_offset 3, -8
 636              		.cfi_offset 14, -4
 182:src-gen/Main/core/tag.c ****     return _lf_physical_time() - start_time;
 637              		.loc 1 182 5 view .LVU122
 638              		.loc 1 182 12 is_stmt 0 view .LVU123
 639 0002 FFF7FEFF 		bl	_lf_physical_time
 640              	.LVL31:
 641              		.loc 1 182 32 view .LVU124
 642 0006 034A     		ldr	r2, .L47
 643 0008 1368     		ldr	r3, [r2]
 644 000a 5268     		ldr	r2, [r2, #4]
 645 000c C01A     		subs	r0, r0, r3
 183:src-gen/Main/core/tag.c **** }
 646              		.loc 1 183 1 view .LVU125
 647 000e 61EB0201 		sbc	r1, r1, r2
 648 0012 08BD     		pop	{r3, pc}
 649              	.L48:
 650              		.align	2
 651              	.L47:
 652 0014 00000000 		.word	start_time
 653              		.cfi_endproc
ARM GAS  /var/folders/2h/lww79zv53b510qlyvytqnvq40000gn/T//ccgazJSx.s 			page 16


 654              	.LFE141:
 656              		.section	.text.lf_time_start,"ax",%progbits
 657              		.align	1
 658              		.global	lf_time_start
 659              		.syntax unified
 660              		.thumb
 661              		.thumb_func
 663              	lf_time_start:
 664              	.LFB142:
 184:src-gen/Main/core/tag.c **** 
 185:src-gen/Main/core/tag.c **** instant_t lf_time_start(void) {
 665              		.loc 1 185 31 is_stmt 1 view -0
 666              		.cfi_startproc
 667              		@ args = 0, pretend = 0, frame = 0
 668              		@ frame_needed = 0, uses_anonymous_args = 0
 669              		@ link register save eliminated.
 186:src-gen/Main/core/tag.c ****     return start_time;
 670              		.loc 1 186 5 view .LVU127
 187:src-gen/Main/core/tag.c **** }
 671              		.loc 1 187 1 is_stmt 0 view .LVU128
 672 0000 014B     		ldr	r3, .L50
 673 0002 D3E90001 		ldrd	r0, [r3]
 674 0006 7047     		bx	lr
 675              	.L51:
 676              		.align	2
 677              	.L50:
 678 0008 00000000 		.word	start_time
 679              		.cfi_endproc
 680              	.LFE142:
 682              		.section	.text.lf_set_physical_clock_offset,"ax",%progbits
 683              		.align	1
 684              		.global	lf_set_physical_clock_offset
 685              		.syntax unified
 686              		.thumb
 687              		.thumb_func
 689              	lf_set_physical_clock_offset:
 690              	.LVL32:
 691              	.LFB143:
 188:src-gen/Main/core/tag.c **** 
 189:src-gen/Main/core/tag.c **** void lf_set_physical_clock_offset(interval_t offset) {
 692              		.loc 1 189 54 is_stmt 1 view -0
 693              		.cfi_startproc
 694              		@ args = 0, pretend = 0, frame = 0
 695              		@ frame_needed = 0, uses_anonymous_args = 0
 696              		@ link register save eliminated.
 190:src-gen/Main/core/tag.c ****     _lf_time_test_physical_clock_offset += offset;
 697              		.loc 1 190 5 view .LVU130
 698              		.loc 1 190 41 is_stmt 0 view .LVU131
 699 0000 044A     		ldr	r2, .L53
 700 0002 1368     		ldr	r3, [r2]
 701 0004 1B18     		adds	r3, r3, r0
 702 0006 5068     		ldr	r0, [r2, #4]
 703              	.LVL33:
 704              		.loc 1 190 41 view .LVU132
 705 0008 40EB0101 		adc	r1, r0, r1
 706 000c 1360     		str	r3, [r2]
 707 000e 5160     		str	r1, [r2, #4]
ARM GAS  /var/folders/2h/lww79zv53b510qlyvytqnvq40000gn/T//ccgazJSx.s 			page 17


 191:src-gen/Main/core/tag.c **** }
 708              		.loc 1 191 1 view .LVU133
 709 0010 7047     		bx	lr
 710              	.L54:
 711 0012 00BF     		.align	2
 712              	.L53:
 713 0014 00000000 		.word	_lf_time_test_physical_clock_offset
 714              		.cfi_endproc
 715              	.LFE143:
 717              		.section	.rodata.lf_comma_separated_time.str1.4,"aMS",%progbits,1
 718              		.align	2
 719              	.LC3:
 720 0000 3000     		.ascii	"0\000"
 721 0002 0000     		.align	2
 722              	.LC4:
 723 0004 2D00     		.ascii	"-\000"
 724              		.global	__aeabi_ldivmod
 725 0006 0000     		.align	2
 726              	.LC5:
 727 0008 256C6C64 		.ascii	"%lld\000"
 727      00
 728 000d 000000   		.align	2
 729              	.LC6:
 730 0010 2C253033 		.ascii	",%03lld\000"
 730      6C6C6400 
 731              		.section	.text.lf_comma_separated_time,"ax",%progbits
 732              		.align	1
 733              		.global	lf_comma_separated_time
 734              		.syntax unified
 735              		.thumb
 736              		.thumb_func
 738              	lf_comma_separated_time:
 739              	.LVL34:
 740              	.LFB145:
 192:src-gen/Main/core/tag.c **** 
 193:src-gen/Main/core/tag.c **** size_t lf_readable_time(char* buffer, instant_t time) {
 194:src-gen/Main/core/tag.c ****     char* original_buffer = buffer;
 195:src-gen/Main/core/tag.c ****     bool lead = false; // Set to true when first clause has been printed.
 196:src-gen/Main/core/tag.c ****     if (time > WEEKS(1)) {
 197:src-gen/Main/core/tag.c ****         lead = true;
 198:src-gen/Main/core/tag.c ****         size_t printed = lf_comma_separated_time(buffer, time / WEEKS(1));
 199:src-gen/Main/core/tag.c ****         time = time % WEEKS(1);
 200:src-gen/Main/core/tag.c ****         buffer += printed;
 201:src-gen/Main/core/tag.c ****         snprintf(buffer, 7, " weeks");
 202:src-gen/Main/core/tag.c ****         buffer += 6;
 203:src-gen/Main/core/tag.c ****     }
 204:src-gen/Main/core/tag.c ****     if (time > DAYS(1)) {
 205:src-gen/Main/core/tag.c ****         if (lead == true) {
 206:src-gen/Main/core/tag.c ****             snprintf(buffer, 3, ", ");
 207:src-gen/Main/core/tag.c ****             buffer += 2;
 208:src-gen/Main/core/tag.c ****         }
 209:src-gen/Main/core/tag.c ****         lead = true;
 210:src-gen/Main/core/tag.c ****         size_t printed = lf_comma_separated_time(buffer, time / DAYS(1));
 211:src-gen/Main/core/tag.c ****         time = time % DAYS(1);
 212:src-gen/Main/core/tag.c ****         buffer += printed;
 213:src-gen/Main/core/tag.c ****         snprintf(buffer, 6, " days");
 214:src-gen/Main/core/tag.c ****         buffer += 5;
ARM GAS  /var/folders/2h/lww79zv53b510qlyvytqnvq40000gn/T//ccgazJSx.s 			page 18


 215:src-gen/Main/core/tag.c ****     }
 216:src-gen/Main/core/tag.c ****     if (time > HOURS(1)) {
 217:src-gen/Main/core/tag.c ****         if (lead == true) {
 218:src-gen/Main/core/tag.c ****             snprintf(buffer, 3, ", ");
 219:src-gen/Main/core/tag.c ****             buffer += 2;
 220:src-gen/Main/core/tag.c ****         }
 221:src-gen/Main/core/tag.c ****         lead = true;
 222:src-gen/Main/core/tag.c ****         size_t printed = lf_comma_separated_time(buffer, time / HOURS(1));
 223:src-gen/Main/core/tag.c ****         time = time % HOURS(1);
 224:src-gen/Main/core/tag.c ****         buffer += printed;
 225:src-gen/Main/core/tag.c ****         snprintf(buffer, 7, " hours");
 226:src-gen/Main/core/tag.c ****         buffer += 6;
 227:src-gen/Main/core/tag.c ****     }
 228:src-gen/Main/core/tag.c ****     if (time > MINUTES(1)) {
 229:src-gen/Main/core/tag.c ****         if (lead == true) {
 230:src-gen/Main/core/tag.c ****             snprintf(buffer, 3, ", ");
 231:src-gen/Main/core/tag.c ****             buffer += 2;
 232:src-gen/Main/core/tag.c ****         }
 233:src-gen/Main/core/tag.c ****         lead = true;
 234:src-gen/Main/core/tag.c ****         size_t printed = lf_comma_separated_time(buffer, time / MINUTES(1));
 235:src-gen/Main/core/tag.c ****         time = time % MINUTES(1);
 236:src-gen/Main/core/tag.c ****         buffer += printed;
 237:src-gen/Main/core/tag.c ****         snprintf(buffer, 9, " minutes");
 238:src-gen/Main/core/tag.c ****         buffer += 8;
 239:src-gen/Main/core/tag.c ****     }
 240:src-gen/Main/core/tag.c ****     if (time > SECONDS(1)) {
 241:src-gen/Main/core/tag.c ****         if (lead == true) {
 242:src-gen/Main/core/tag.c ****             snprintf(buffer, 3, ", ");
 243:src-gen/Main/core/tag.c ****             buffer += 2;
 244:src-gen/Main/core/tag.c ****         }
 245:src-gen/Main/core/tag.c ****         lead = true;
 246:src-gen/Main/core/tag.c ****         size_t printed = lf_comma_separated_time(buffer, time / SECONDS(1));
 247:src-gen/Main/core/tag.c ****         time = time % SECONDS(1);
 248:src-gen/Main/core/tag.c ****         buffer += printed;
 249:src-gen/Main/core/tag.c ****         snprintf(buffer, 9, " seconds");
 250:src-gen/Main/core/tag.c ****         buffer += 8;
 251:src-gen/Main/core/tag.c ****     }
 252:src-gen/Main/core/tag.c ****     if (time > (instant_t)0) {
 253:src-gen/Main/core/tag.c ****         if (lead == true) {
 254:src-gen/Main/core/tag.c ****             snprintf(buffer, 3, ", ");
 255:src-gen/Main/core/tag.c ****             buffer += 2;
 256:src-gen/Main/core/tag.c ****         }
 257:src-gen/Main/core/tag.c ****         const char* units = "nanoseconds";
 258:src-gen/Main/core/tag.c ****         if (time % MSEC(1) == (instant_t) 0) {
 259:src-gen/Main/core/tag.c ****             units = "milliseconds";
 260:src-gen/Main/core/tag.c ****             time = time % MSEC(1);
 261:src-gen/Main/core/tag.c ****         } else if (time % USEC(1) == (instant_t) 0) {
 262:src-gen/Main/core/tag.c ****             units = "microseconds";
 263:src-gen/Main/core/tag.c ****             time = time % USEC(1);
 264:src-gen/Main/core/tag.c ****         }
 265:src-gen/Main/core/tag.c ****         size_t printed = lf_comma_separated_time(buffer, time);
 266:src-gen/Main/core/tag.c ****         buffer += printed;
 267:src-gen/Main/core/tag.c ****         snprintf(buffer, 14, " %s", units);
 268:src-gen/Main/core/tag.c ****         buffer += strlen(units) + 1;
 269:src-gen/Main/core/tag.c ****     } else {
 270:src-gen/Main/core/tag.c ****         snprintf(buffer, 2, "0");
 271:src-gen/Main/core/tag.c ****     }
ARM GAS  /var/folders/2h/lww79zv53b510qlyvytqnvq40000gn/T//ccgazJSx.s 			page 19


 272:src-gen/Main/core/tag.c ****     return (buffer - original_buffer);
 273:src-gen/Main/core/tag.c **** }
 274:src-gen/Main/core/tag.c **** 
 275:src-gen/Main/core/tag.c **** size_t lf_comma_separated_time(char* buffer, instant_t time) {
 741              		.loc 1 275 62 is_stmt 1 view -0
 742              		.cfi_startproc
 743              		@ args = 0, pretend = 0, frame = 56
 744              		@ frame_needed = 0, uses_anonymous_args = 0
 745              		.loc 1 275 62 is_stmt 0 view .LVU135
 746 0000 2DE9F041 		push	{r4, r5, r6, r7, r8, lr}
 747              	.LCFI22:
 748              		.cfi_def_cfa_offset 24
 749              		.cfi_offset 4, -24
 750              		.cfi_offset 5, -20
 751              		.cfi_offset 6, -16
 752              		.cfi_offset 7, -12
 753              		.cfi_offset 8, -8
 754              		.cfi_offset 14, -4
 755 0004 90B0     		sub	sp, sp, #64
 756              	.LCFI23:
 757              		.cfi_def_cfa_offset 88
 758 0006 0546     		mov	r5, r0
 759 0008 1946     		mov	r1, r3
 276:src-gen/Main/core/tag.c ****     size_t result = 0; // The number of characters printed.
 760              		.loc 1 276 5 is_stmt 1 view .LVU136
 761              	.LVL35:
 277:src-gen/Main/core/tag.c ****     // If the number is zero, print it and return.
 278:src-gen/Main/core/tag.c ****     if (time == (instant_t)0) {
 762              		.loc 1 278 5 view .LVU137
 763              		.loc 1 278 8 is_stmt 0 view .LVU138
 764 000a 52EA0103 		orrs	r3, r2, r1
 765 000e 05D0     		beq	.L68
 766 0010 1046     		mov	r0, r2
 767              	.LVL36:
 279:src-gen/Main/core/tag.c ****         snprintf(buffer, 2, "0");
 280:src-gen/Main/core/tag.c ****         return 1;
 281:src-gen/Main/core/tag.c ****     }
 282:src-gen/Main/core/tag.c ****     // If the number is negative, print a minus sign.
 283:src-gen/Main/core/tag.c ****     if (time < (instant_t)0) {
 768              		.loc 1 283 5 is_stmt 1 view .LVU139
 769              		.loc 1 283 8 is_stmt 0 view .LVU140
 770 0012 0029     		cmp	r1, #0
 771 0014 07DB     		blt	.L69
 276:src-gen/Main/core/tag.c ****     // If the number is zero, print it and return.
 772              		.loc 1 276 12 view .LVU141
 773 0016 0026     		movs	r6, #0
 774              	.LVL37:
 775              	.L58:
 284:src-gen/Main/core/tag.c ****         snprintf(buffer, 2, "-");
 285:src-gen/Main/core/tag.c ****         buffer++;
 286:src-gen/Main/core/tag.c ****         result++;
 287:src-gen/Main/core/tag.c ****     }
 288:src-gen/Main/core/tag.c ****     int count = 0;
 776              		.loc 1 288 5 is_stmt 1 view .LVU142
 289:src-gen/Main/core/tag.c ****     // Assume the time value is no larger than 64 bits.
 290:src-gen/Main/core/tag.c ****     instant_t clauses[7];
 777              		.loc 1 290 5 view .LVU143
ARM GAS  /var/folders/2h/lww79zv53b510qlyvytqnvq40000gn/T//ccgazJSx.s 			page 20


 291:src-gen/Main/core/tag.c ****     while (time > (instant_t)0) {
 778              		.loc 1 291 5 view .LVU144
 288:src-gen/Main/core/tag.c ****     // Assume the time value is no larger than 64 bits.
 779              		.loc 1 288 9 is_stmt 0 view .LVU145
 780 0018 0024     		movs	r4, #0
 781              		.loc 1 291 11 view .LVU146
 782 001a 18E0     		b	.L59
 783              	.LVL38:
 784              	.L68:
 279:src-gen/Main/core/tag.c ****         return 1;
 785              		.loc 1 279 9 is_stmt 1 view .LVU147
 786 001c 2F4B     		ldr	r3, .L70
 787 001e 1B88     		ldrh	r3, [r3]	@ unaligned
 788 0020 0380     		strh	r3, [r0]	@ unaligned
 280:src-gen/Main/core/tag.c ****     }
 789              		.loc 1 280 9 view .LVU148
 280:src-gen/Main/core/tag.c ****     }
 790              		.loc 1 280 16 is_stmt 0 view .LVU149
 791 0022 0126     		movs	r6, #1
 792 0024 55E0     		b	.L55
 793              	.LVL39:
 794              	.L69:
 284:src-gen/Main/core/tag.c ****         buffer++;
 795              		.loc 1 284 9 is_stmt 1 view .LVU150
 796 0026 2E4B     		ldr	r3, .L70+4
 797 0028 1B88     		ldrh	r3, [r3]	@ unaligned
 798 002a 25F8013B 		strh	r3, [r5], #1	@ unaligned
 799              	.LVL40:
 285:src-gen/Main/core/tag.c ****         result++;
 800              		.loc 1 285 9 view .LVU151
 286:src-gen/Main/core/tag.c ****     }
 801              		.loc 1 286 9 view .LVU152
 286:src-gen/Main/core/tag.c ****     }
 802              		.loc 1 286 15 is_stmt 0 view .LVU153
 803 002e 0126     		movs	r6, #1
 804 0030 F2E7     		b	.L58
 805              	.LVL41:
 806              	.L60:
 292:src-gen/Main/core/tag.c ****         clauses[count++] = time;
 807              		.loc 1 292 9 is_stmt 1 view .LVU154
 808              		.loc 1 292 22 is_stmt 0 view .LVU155
 809 0032 671C     		adds	r7, r4, #1
 810              	.LVL42:
 811              		.loc 1 292 26 view .LVU156
 812 0034 10AB     		add	r3, sp, #64
 813 0036 03EBC404 		add	r4, r3, r4, lsl #3
 814 003a 44F8380C 		str	r0, [r4, #-56]
 815 003e 44F8341C 		str	r1, [r4, #-52]
 293:src-gen/Main/core/tag.c ****         time = time/1000;
 816              		.loc 1 293 9 is_stmt 1 view .LVU157
 817              		.loc 1 293 14 is_stmt 0 view .LVU158
 818 0042 4FF47A72 		mov	r2, #1000
 819 0046 0023     		movs	r3, #0
 820 0048 FFF7FEFF 		bl	__aeabi_ldivmod
 821              	.LVL43:
 292:src-gen/Main/core/tag.c ****         clauses[count++] = time;
 822              		.loc 1 292 22 view .LVU159
ARM GAS  /var/folders/2h/lww79zv53b510qlyvytqnvq40000gn/T//ccgazJSx.s 			page 21


 823 004c 3C46     		mov	r4, r7
 824              	.LVL44:
 825              	.L59:
 291:src-gen/Main/core/tag.c ****         clauses[count++] = time;
 826              		.loc 1 291 17 is_stmt 1 view .LVU160
 827 004e 0128     		cmp	r0, #1
 828 0050 71F10003 		sbcs	r3, r1, #0
 829 0054 EDDA     		bge	.L60
 294:src-gen/Main/core/tag.c ****     }
 295:src-gen/Main/core/tag.c ****     // Highest order clause should not be filled with zeros.
 296:src-gen/Main/core/tag.c ****     instant_t to_print = clauses[--count] % 1000;
 830              		.loc 1 296 5 view .LVU161
 831              		.loc 1 296 15 is_stmt 0 view .LVU162
 832 0056 013C     		subs	r4, r4, #1
 833              	.LVL45:
 834              		.loc 1 296 33 view .LVU163
 835 0058 10AB     		add	r3, sp, #64
 836 005a 03EBC401 		add	r1, r3, r4, lsl #3
 837              	.LVL46:
 838              		.loc 1 296 15 view .LVU164
 839 005e 4FF47A72 		mov	r2, #1000
 840 0062 0023     		movs	r3, #0
 841 0064 51E90E01 		ldrd	r0, [r1, #-56]
 842              		.loc 1 296 15 view .LVU165
 843 0068 FFF7FEFF 		bl	__aeabi_ldivmod
 844              	.LVL47:
 845 006c 9046     		mov	r8, r2
 846 006e 1F46     		mov	r7, r3
 847              	.LVL48:
 297:src-gen/Main/core/tag.c ****     snprintf(buffer, 5, "%lld", (long long)to_print);
 848              		.loc 1 297 5 is_stmt 1 view .LVU166
 849 0070 0092     		str	r2, [sp]
 850 0072 0193     		str	r3, [sp, #4]
 851 0074 1B4A     		ldr	r2, .L70+8
 852              	.LVL49:
 853              		.loc 1 297 5 is_stmt 0 view .LVU167
 854 0076 0521     		movs	r1, #5
 855 0078 2846     		mov	r0, r5
 856 007a FFF7FEFF 		bl	snprintf
 857              	.LVL50:
 298:src-gen/Main/core/tag.c ****     if (to_print >= 100LL) {
 858              		.loc 1 298 5 is_stmt 1 view .LVU168
 859              		.loc 1 298 8 is_stmt 0 view .LVU169
 860 007e B8F1640F 		cmp	r8, #100
 861 0082 77F10003 		sbcs	r3, r7, #0
 862 0086 02DB     		blt	.L61
 299:src-gen/Main/core/tag.c ****         buffer += 3;
 863              		.loc 1 299 9 is_stmt 1 view .LVU170
 864              		.loc 1 299 16 is_stmt 0 view .LVU171
 865 0088 0335     		adds	r5, r5, #3
 866              	.LVL51:
 300:src-gen/Main/core/tag.c ****         result += 3;
 867              		.loc 1 300 9 is_stmt 1 view .LVU172
 868              		.loc 1 300 16 is_stmt 0 view .LVU173
 869 008a 0336     		adds	r6, r6, #3
 870              	.LVL52:
 871              		.loc 1 300 16 view .LVU174
ARM GAS  /var/folders/2h/lww79zv53b510qlyvytqnvq40000gn/T//ccgazJSx.s 			page 22


 872 008c 1EE0     		b	.L62
 873              	.L61:
 301:src-gen/Main/core/tag.c ****     } else if (to_print >= 10LL) {
 874              		.loc 1 301 12 is_stmt 1 view .LVU175
 875              		.loc 1 301 15 is_stmt 0 view .LVU176
 876 008e B8F10A0F 		cmp	r8, #10
 877 0092 77F10007 		sbcs	r7, r7, #0
 878              	.LVL53:
 879              		.loc 1 301 15 view .LVU177
 880 0096 02DB     		blt	.L63
 302:src-gen/Main/core/tag.c ****         buffer += 2;
 881              		.loc 1 302 9 is_stmt 1 view .LVU178
 882              		.loc 1 302 16 is_stmt 0 view .LVU179
 883 0098 0235     		adds	r5, r5, #2
 884              	.LVL54:
 303:src-gen/Main/core/tag.c ****         result += 2;
 885              		.loc 1 303 9 is_stmt 1 view .LVU180
 886              		.loc 1 303 16 is_stmt 0 view .LVU181
 887 009a 0236     		adds	r6, r6, #2
 888              	.LVL55:
 889              		.loc 1 303 16 view .LVU182
 890 009c 16E0     		b	.L62
 891              	.L63:
 304:src-gen/Main/core/tag.c ****     } else {
 305:src-gen/Main/core/tag.c ****         buffer += 1;
 892              		.loc 1 305 9 is_stmt 1 view .LVU183
 893              		.loc 1 305 16 is_stmt 0 view .LVU184
 894 009e 0135     		adds	r5, r5, #1
 895              	.LVL56:
 306:src-gen/Main/core/tag.c ****         result += 1;
 896              		.loc 1 306 9 is_stmt 1 view .LVU185
 897              		.loc 1 306 16 is_stmt 0 view .LVU186
 898 00a0 0136     		adds	r6, r6, #1
 899              	.LVL57:
 900              		.loc 1 306 16 view .LVU187
 901 00a2 13E0     		b	.L62
 902              	.LVL58:
 903              	.L65:
 307:src-gen/Main/core/tag.c ****     }
 308:src-gen/Main/core/tag.c ****     while (count-- > 0) {
 309:src-gen/Main/core/tag.c ****         to_print = clauses[count] % 1000LL;
 904              		.loc 1 309 9 is_stmt 1 view .LVU188
 905              		.loc 1 309 27 is_stmt 0 view .LVU189
 906 00a4 10AB     		add	r3, sp, #64
 907 00a6 03EBC701 		add	r1, r3, r7, lsl #3
 908              		.loc 1 309 18 view .LVU190
 909 00aa 4FF47A72 		mov	r2, #1000
 910 00ae 0023     		movs	r3, #0
 911 00b0 51E90E01 		ldrd	r0, [r1, #-56]
 912 00b4 FFF7FEFF 		bl	__aeabi_ldivmod
 913              	.LVL59:
 310:src-gen/Main/core/tag.c ****         snprintf(buffer, 8, ",%03lld", (long long)to_print);
 914              		.loc 1 310 9 is_stmt 1 view .LVU191
 915 00b8 CDE90023 		strd	r2, [sp]
 916 00bc 0A4A     		ldr	r2, .L70+12
 917              	.LVL60:
 918              		.loc 1 310 9 is_stmt 0 view .LVU192
ARM GAS  /var/folders/2h/lww79zv53b510qlyvytqnvq40000gn/T//ccgazJSx.s 			page 23


 919 00be 0821     		movs	r1, #8
 920 00c0 2846     		mov	r0, r5
 921 00c2 FFF7FEFF 		bl	snprintf
 922              	.LVL61:
 311:src-gen/Main/core/tag.c ****         buffer += 4;
 923              		.loc 1 311 9 is_stmt 1 view .LVU193
 924              		.loc 1 311 16 is_stmt 0 view .LVU194
 925 00c6 0435     		adds	r5, r5, #4
 926              	.LVL62:
 312:src-gen/Main/core/tag.c ****         result += 4;
 927              		.loc 1 312 9 is_stmt 1 view .LVU195
 928              		.loc 1 312 16 is_stmt 0 view .LVU196
 929 00c8 0436     		adds	r6, r6, #4
 930              	.LVL63:
 308:src-gen/Main/core/tag.c ****         to_print = clauses[count] % 1000LL;
 931              		.loc 1 308 17 view .LVU197
 932 00ca 3C46     		mov	r4, r7
 933              	.LVL64:
 934              	.L62:
 308:src-gen/Main/core/tag.c ****         to_print = clauses[count] % 1000LL;
 935              		.loc 1 308 20 is_stmt 1 view .LVU198
 308:src-gen/Main/core/tag.c ****         to_print = clauses[count] % 1000LL;
 936              		.loc 1 308 17 is_stmt 0 view .LVU199
 937 00cc 671E     		subs	r7, r4, #1
 938              	.LVL65:
 308:src-gen/Main/core/tag.c ****         to_print = clauses[count] % 1000LL;
 939              		.loc 1 308 20 view .LVU200
 940 00ce 002C     		cmp	r4, #0
 941 00d0 E8DC     		bgt	.L65
 942              	.LVL66:
 943              	.L55:
 313:src-gen/Main/core/tag.c ****     }
 314:src-gen/Main/core/tag.c ****     return result;
 315:src-gen/Main/core/tag.c **** }
 944              		.loc 1 315 1 view .LVU201
 945 00d2 3046     		mov	r0, r6
 946 00d4 10B0     		add	sp, sp, #64
 947              	.LCFI24:
 948              		.cfi_def_cfa_offset 24
 949              		@ sp needed
 950 00d6 BDE8F081 		pop	{r4, r5, r6, r7, r8, pc}
 951              	.LVL67:
 952              	.L71:
 953              		.loc 1 315 1 view .LVU202
 954 00da 00BF     		.align	2
 955              	.L70:
 956 00dc 00000000 		.word	.LC3
 957 00e0 04000000 		.word	.LC4
 958 00e4 08000000 		.word	.LC5
 959 00e8 10000000 		.word	.LC6
 960              		.cfi_endproc
 961              	.LFE145:
 963              		.section	.rodata.lf_readable_time.str1.4,"aMS",%progbits,1
 964              		.align	2
 965              	.LC7:
 966 0000 6D696C6C 		.ascii	"milliseconds\000"
 966      69736563 
ARM GAS  /var/folders/2h/lww79zv53b510qlyvytqnvq40000gn/T//ccgazJSx.s 			page 24


 966      6F6E6473 
 966      00
 967 000d 000000   		.align	2
 968              	.LC8:
 969 0010 6E616E6F 		.ascii	"nanoseconds\000"
 969      7365636F 
 969      6E647300 
 970              		.align	2
 971              	.LC9:
 972 001c 6D696372 		.ascii	"microseconds\000"
 972      6F736563 
 972      6F6E6473 
 972      00
 973 0029 000000   		.align	2
 974              	.LC10:
 975 002c 20776565 		.ascii	" weeks\000"
 975      6B7300
 976 0033 00       		.align	2
 977              	.LC11:
 978 0034 2C2000   		.ascii	", \000"
 979 0037 00       		.align	2
 980              	.LC12:
 981 0038 20646179 		.ascii	" days\000"
 981      7300
 982 003e 0000     		.align	2
 983              	.LC13:
 984 0040 20686F75 		.ascii	" hours\000"
 984      727300
 985 0047 00       		.align	2
 986              	.LC14:
 987 0048 206D696E 		.ascii	" minutes\000"
 987      75746573 
 987      00
 988 0051 000000   		.align	2
 989              	.LC15:
 990 0054 20736563 		.ascii	" seconds\000"
 990      6F6E6473 
 990      00
 991 005d 000000   		.align	2
 992              	.LC16:
 993 0060 20257300 		.ascii	" %s\000"
 994              		.section	.text.lf_readable_time,"ax",%progbits
 995              		.align	1
 996              		.global	lf_readable_time
 997              		.syntax unified
 998              		.thumb
 999              		.thumb_func
 1001              	lf_readable_time:
 1002              	.LVL68:
 1003              	.LFB144:
 193:src-gen/Main/core/tag.c ****     char* original_buffer = buffer;
 1004              		.loc 1 193 55 is_stmt 1 view -0
 1005              		.cfi_startproc
 1006              		@ args = 0, pretend = 0, frame = 0
 1007              		@ frame_needed = 0, uses_anonymous_args = 0
 193:src-gen/Main/core/tag.c ****     char* original_buffer = buffer;
 1008              		.loc 1 193 55 is_stmt 0 view .LVU204
ARM GAS  /var/folders/2h/lww79zv53b510qlyvytqnvq40000gn/T//ccgazJSx.s 			page 25


 1009 0000 2DE9F041 		push	{r4, r5, r6, r7, r8, lr}
 1010              	.LCFI25:
 1011              		.cfi_def_cfa_offset 24
 1012              		.cfi_offset 4, -24
 1013              		.cfi_offset 5, -20
 1014              		.cfi_offset 6, -16
 1015              		.cfi_offset 7, -12
 1016              		.cfi_offset 8, -8
 1017              		.cfi_offset 14, -4
 1018 0004 0746     		mov	r7, r0
 1019 0006 1546     		mov	r5, r2
 1020 0008 1C46     		mov	r4, r3
 194:src-gen/Main/core/tag.c ****     bool lead = false; // Set to true when first clause has been printed.
 1021              		.loc 1 194 5 is_stmt 1 view .LVU205
 1022              	.LVL69:
 195:src-gen/Main/core/tag.c ****     if (time > WEEKS(1)) {
 1023              		.loc 1 195 5 view .LVU206
 196:src-gen/Main/core/tag.c ****         lead = true;
 1024              		.loc 1 196 5 view .LVU207
 196:src-gen/Main/core/tag.c ****         lead = true;
 1025              		.loc 1 196 8 is_stmt 0 view .LVU208
 1026 000a 9D4B     		ldr	r3, .L96+24
 1027 000c 9342     		cmp	r3, r2
 1028 000e 9D4B     		ldr	r3, .L96+28
 1029 0010 A341     		sbcs	r3, r3, r4
 1030 0012 C0F2C980 		blt	.L90
 1031 0016 0646     		mov	r6, r0
 195:src-gen/Main/core/tag.c ****     if (time > WEEKS(1)) {
 1032              		.loc 1 195 10 view .LVU209
 1033 0018 0023     		movs	r3, #0
 1034              	.LVL70:
 1035              	.L73:
 204:src-gen/Main/core/tag.c ****         if (lead == true) {
 1036              		.loc 1 204 5 is_stmt 1 view .LVU210
 204:src-gen/Main/core/tag.c ****         if (lead == true) {
 1037              		.loc 1 204 8 is_stmt 0 view .LVU211
 1038 001a 9B4A     		ldr	r2, .L96+32
 1039 001c AA42     		cmp	r2, r5
 1040 001e 44F69462 		movw	r2, #20116
 1041 0022 A241     		sbcs	r2, r2, r4
 1042 0024 22DA     		bge	.L74
 1043              	.LBB2:
 205:src-gen/Main/core/tag.c ****             snprintf(buffer, 3, ", ");
 1044              		.loc 1 205 9 is_stmt 1 view .LVU212
 205:src-gen/Main/core/tag.c ****             snprintf(buffer, 3, ", ");
 1045              		.loc 1 205 12 is_stmt 0 view .LVU213
 1046 0026 002B     		cmp	r3, #0
 1047 0028 40F0E180 		bne	.L91
 1048              	.LVL71:
 1049              	.L75:
 209:src-gen/Main/core/tag.c ****         size_t printed = lf_comma_separated_time(buffer, time / DAYS(1));
 1050              		.loc 1 209 9 is_stmt 1 view .LVU214
 210:src-gen/Main/core/tag.c ****         time = time % DAYS(1);
 1051              		.loc 1 210 9 view .LVU215
 210:src-gen/Main/core/tag.c ****         time = time % DAYS(1);
 1052              		.loc 1 210 26 is_stmt 0 view .LVU216
 1053 002c 964A     		ldr	r2, .L96+32
ARM GAS  /var/folders/2h/lww79zv53b510qlyvytqnvq40000gn/T//ccgazJSx.s 			page 26


 1054 002e 44F69463 		movw	r3, #20116
 1055 0032 2846     		mov	r0, r5
 1056 0034 2146     		mov	r1, r4
 1057 0036 FFF7FEFF 		bl	__aeabi_ldivmod
 1058              	.LVL72:
 1059 003a 0246     		mov	r2, r0
 1060 003c 0B46     		mov	r3, r1
 1061 003e 3046     		mov	r0, r6
 1062 0040 FFF7FEFF 		bl	lf_comma_separated_time
 1063              	.LVL73:
 1064 0044 8046     		mov	r8, r0
 1065              	.LVL74:
 211:src-gen/Main/core/tag.c ****         buffer += printed;
 1066              		.loc 1 211 9 is_stmt 1 view .LVU217
 211:src-gen/Main/core/tag.c ****         buffer += printed;
 1067              		.loc 1 211 14 is_stmt 0 view .LVU218
 1068 0046 904A     		ldr	r2, .L96+32
 1069 0048 44F69463 		movw	r3, #20116
 1070 004c 2846     		mov	r0, r5
 1071              	.LVL75:
 211:src-gen/Main/core/tag.c ****         buffer += printed;
 1072              		.loc 1 211 14 view .LVU219
 1073 004e 2146     		mov	r1, r4
 1074 0050 FFF7FEFF 		bl	__aeabi_ldivmod
 1075              	.LVL76:
 1076 0054 1546     		mov	r5, r2
 1077              	.LVL77:
 211:src-gen/Main/core/tag.c ****         buffer += printed;
 1078              		.loc 1 211 14 view .LVU220
 1079 0056 1C46     		mov	r4, r3
 1080              	.LVL78:
 212:src-gen/Main/core/tag.c ****         snprintf(buffer, 6, " days");
 1081              		.loc 1 212 9 is_stmt 1 view .LVU221
 212:src-gen/Main/core/tag.c ****         snprintf(buffer, 6, " days");
 1082              		.loc 1 212 16 is_stmt 0 view .LVU222
 1083 0058 06EB0803 		add	r3, r6, r8
 1084              	.LVL79:
 213:src-gen/Main/core/tag.c ****         buffer += 5;
 1085              		.loc 1 213 9 is_stmt 1 view .LVU223
 1086 005c 8B4A     		ldr	r2, .L96+36
 1087              	.LVL80:
 213:src-gen/Main/core/tag.c ****         buffer += 5;
 1088              		.loc 1 213 9 is_stmt 0 view .LVU224
 1089 005e 1068     		ldr	r0, [r2]
 1090 0060 46F80800 		str	r0, [r6, r8]	@ unaligned
 1091 0064 9288     		ldrh	r2, [r2, #4]	@ unaligned
 1092 0066 9A80     		strh	r2, [r3, #4]	@ unaligned
 214:src-gen/Main/core/tag.c ****     }
 1093              		.loc 1 214 9 is_stmt 1 view .LVU225
 214:src-gen/Main/core/tag.c ****     }
 1094              		.loc 1 214 16 is_stmt 0 view .LVU226
 1095 0068 5E1D     		adds	r6, r3, #5
 1096              	.LVL81:
 209:src-gen/Main/core/tag.c ****         size_t printed = lf_comma_separated_time(buffer, time / DAYS(1));
 1097              		.loc 1 209 14 view .LVU227
 1098 006a 0123     		movs	r3, #1
 1099              	.LVL82:
ARM GAS  /var/folders/2h/lww79zv53b510qlyvytqnvq40000gn/T//ccgazJSx.s 			page 27


 1100              	.L74:
 209:src-gen/Main/core/tag.c ****         size_t printed = lf_comma_separated_time(buffer, time / DAYS(1));
 1101              		.loc 1 209 14 view .LVU228
 1102              	.LBE2:
 216:src-gen/Main/core/tag.c ****         if (lead == true) {
 1103              		.loc 1 216 5 is_stmt 1 view .LVU229
 216:src-gen/Main/core/tag.c ****         if (lead == true) {
 1104              		.loc 1 216 8 is_stmt 0 view .LVU230
 1105 006c 884A     		ldr	r2, .L96+40
 1106 006e AA42     		cmp	r2, r5
 1107 0070 40F24632 		movw	r2, #838
 1108 0074 A241     		sbcs	r2, r2, r4
 1109 0076 25DA     		bge	.L76
 1110              	.LBB3:
 217:src-gen/Main/core/tag.c ****             snprintf(buffer, 3, ", ");
 1111              		.loc 1 217 9 is_stmt 1 view .LVU231
 217:src-gen/Main/core/tag.c ****             snprintf(buffer, 3, ", ");
 1112              		.loc 1 217 12 is_stmt 0 view .LVU232
 1113 0078 002B     		cmp	r3, #0
 1114 007a 40F0BF80 		bne	.L92
 1115              	.LVL83:
 1116              	.L77:
 221:src-gen/Main/core/tag.c ****         size_t printed = lf_comma_separated_time(buffer, time / HOURS(1));
 1117              		.loc 1 221 9 is_stmt 1 view .LVU233
 222:src-gen/Main/core/tag.c ****         time = time % HOURS(1);
 1118              		.loc 1 222 9 view .LVU234
 222:src-gen/Main/core/tag.c ****         time = time % HOURS(1);
 1119              		.loc 1 222 26 is_stmt 0 view .LVU235
 1120 007e 844A     		ldr	r2, .L96+40
 1121 0080 40F24633 		movw	r3, #838
 1122 0084 2846     		mov	r0, r5
 1123 0086 2146     		mov	r1, r4
 1124 0088 FFF7FEFF 		bl	__aeabi_ldivmod
 1125              	.LVL84:
 1126 008c 0246     		mov	r2, r0
 1127 008e 0B46     		mov	r3, r1
 1128 0090 3046     		mov	r0, r6
 1129 0092 FFF7FEFF 		bl	lf_comma_separated_time
 1130              	.LVL85:
 1131 0096 8046     		mov	r8, r0
 1132              	.LVL86:
 223:src-gen/Main/core/tag.c ****         buffer += printed;
 1133              		.loc 1 223 9 is_stmt 1 view .LVU236
 223:src-gen/Main/core/tag.c ****         buffer += printed;
 1134              		.loc 1 223 14 is_stmt 0 view .LVU237
 1135 0098 7D4A     		ldr	r2, .L96+40
 1136 009a 40F24633 		movw	r3, #838
 1137 009e 2846     		mov	r0, r5
 1138              	.LVL87:
 223:src-gen/Main/core/tag.c ****         buffer += printed;
 1139              		.loc 1 223 14 view .LVU238
 1140 00a0 2146     		mov	r1, r4
 1141 00a2 FFF7FEFF 		bl	__aeabi_ldivmod
 1142              	.LVL88:
 1143 00a6 1546     		mov	r5, r2
 1144              	.LVL89:
 223:src-gen/Main/core/tag.c ****         buffer += printed;
ARM GAS  /var/folders/2h/lww79zv53b510qlyvytqnvq40000gn/T//ccgazJSx.s 			page 28


 1145              		.loc 1 223 14 view .LVU239
 1146 00a8 1C46     		mov	r4, r3
 1147              	.LVL90:
 224:src-gen/Main/core/tag.c ****         snprintf(buffer, 7, " hours");
 1148              		.loc 1 224 9 is_stmt 1 view .LVU240
 224:src-gen/Main/core/tag.c ****         snprintf(buffer, 7, " hours");
 1149              		.loc 1 224 16 is_stmt 0 view .LVU241
 1150 00aa 06EB0802 		add	r2, r6, r8
 1151              	.LVL91:
 225:src-gen/Main/core/tag.c ****         buffer += 6;
 1152              		.loc 1 225 9 is_stmt 1 view .LVU242
 1153 00ae 794B     		ldr	r3, .L96+44
 1154              	.LVL92:
 225:src-gen/Main/core/tag.c ****         buffer += 6;
 1155              		.loc 1 225 9 is_stmt 0 view .LVU243
 1156 00b0 1868     		ldr	r0, [r3]
 1157 00b2 46F80800 		str	r0, [r6, r8]	@ unaligned
 1158 00b6 9988     		ldrh	r1, [r3, #4]	@ unaligned
 1159 00b8 9B79     		ldrb	r3, [r3, #6]	@ zero_extendqisi2
 1160 00ba 9180     		strh	r1, [r2, #4]	@ unaligned
 1161 00bc 1646     		mov	r6, r2
 1162 00be 06F8063F 		strb	r3, [r6, #6]!
 226:src-gen/Main/core/tag.c ****     }
 1163              		.loc 1 226 9 is_stmt 1 view .LVU244
 1164              	.LVL93:
 221:src-gen/Main/core/tag.c ****         size_t printed = lf_comma_separated_time(buffer, time / HOURS(1));
 1165              		.loc 1 221 14 is_stmt 0 view .LVU245
 1166 00c2 0123     		movs	r3, #1
 1167              	.LVL94:
 1168              	.L76:
 221:src-gen/Main/core/tag.c ****         size_t printed = lf_comma_separated_time(buffer, time / HOURS(1));
 1169              		.loc 1 221 14 view .LVU246
 1170              	.LBE3:
 228:src-gen/Main/core/tag.c ****         if (lead == true) {
 1171              		.loc 1 228 5 is_stmt 1 view .LVU247
 228:src-gen/Main/core/tag.c ****         if (lead == true) {
 1172              		.loc 1 228 8 is_stmt 0 view .LVU248
 1173 00c4 744A     		ldr	r2, .L96+48
 1174 00c6 AA42     		cmp	r2, r5
 1175 00c8 4FF00D02 		mov	r2, #13
 1176 00cc A241     		sbcs	r2, r2, r4
 1177 00ce 24DA     		bge	.L78
 1178              	.LBB4:
 229:src-gen/Main/core/tag.c ****             snprintf(buffer, 3, ", ");
 1179              		.loc 1 229 9 is_stmt 1 view .LVU249
 229:src-gen/Main/core/tag.c ****             snprintf(buffer, 3, ", ");
 1180              		.loc 1 229 12 is_stmt 0 view .LVU250
 1181 00d0 002B     		cmp	r3, #0
 1182 00d2 40F09A80 		bne	.L93
 1183              	.LVL95:
 1184              	.L79:
 233:src-gen/Main/core/tag.c ****         size_t printed = lf_comma_separated_time(buffer, time / MINUTES(1));
 1185              		.loc 1 233 9 is_stmt 1 view .LVU251
 234:src-gen/Main/core/tag.c ****         time = time % MINUTES(1);
 1186              		.loc 1 234 9 view .LVU252
 234:src-gen/Main/core/tag.c ****         time = time % MINUTES(1);
 1187              		.loc 1 234 26 is_stmt 0 view .LVU253
ARM GAS  /var/folders/2h/lww79zv53b510qlyvytqnvq40000gn/T//ccgazJSx.s 			page 29


 1188 00d6 64A3     		adr	r3, .L96
 1189 00d8 D3E90023 		ldrd	r2, [r3]
 1190 00dc 2846     		mov	r0, r5
 1191 00de 2146     		mov	r1, r4
 1192 00e0 FFF7FEFF 		bl	__aeabi_ldivmod
 1193              	.LVL96:
 1194 00e4 0246     		mov	r2, r0
 1195 00e6 0B46     		mov	r3, r1
 1196 00e8 3046     		mov	r0, r6
 1197 00ea FFF7FEFF 		bl	lf_comma_separated_time
 1198              	.LVL97:
 1199 00ee 8046     		mov	r8, r0
 1200              	.LVL98:
 235:src-gen/Main/core/tag.c ****         buffer += printed;
 1201              		.loc 1 235 9 is_stmt 1 view .LVU254
 235:src-gen/Main/core/tag.c ****         buffer += printed;
 1202              		.loc 1 235 14 is_stmt 0 view .LVU255
 1203 00f0 5DA3     		adr	r3, .L96
 1204 00f2 D3E90023 		ldrd	r2, [r3]
 1205 00f6 2846     		mov	r0, r5
 1206              	.LVL99:
 235:src-gen/Main/core/tag.c ****         buffer += printed;
 1207              		.loc 1 235 14 view .LVU256
 1208 00f8 2146     		mov	r1, r4
 1209 00fa FFF7FEFF 		bl	__aeabi_ldivmod
 1210              	.LVL100:
 1211 00fe 1546     		mov	r5, r2
 1212              	.LVL101:
 235:src-gen/Main/core/tag.c ****         buffer += printed;
 1213              		.loc 1 235 14 view .LVU257
 1214 0100 1C46     		mov	r4, r3
 1215              	.LVL102:
 236:src-gen/Main/core/tag.c ****         snprintf(buffer, 9, " minutes");
 1216              		.loc 1 236 9 is_stmt 1 view .LVU258
 236:src-gen/Main/core/tag.c ****         snprintf(buffer, 9, " minutes");
 1217              		.loc 1 236 16 is_stmt 0 view .LVU259
 1218 0102 06EB0802 		add	r2, r6, r8
 1219              	.LVL103:
 237:src-gen/Main/core/tag.c ****         buffer += 8;
 1220              		.loc 1 237 9 is_stmt 1 view .LVU260
 1221 0106 654B     		ldr	r3, .L96+52
 1222              	.LVL104:
 237:src-gen/Main/core/tag.c ****         buffer += 8;
 1223              		.loc 1 237 9 is_stmt 0 view .LVU261
 1224 0108 03CB     		ldmia	r3!, {r0, r1}
 1225 010a 46F80800 		str	r0, [r6, r8]	@ unaligned
 1226 010e 5160     		str	r1, [r2, #4]	@ unaligned
 1227 0110 1B78     		ldrb	r3, [r3]	@ zero_extendqisi2
 1228 0112 1646     		mov	r6, r2
 1229 0114 06F8083F 		strb	r3, [r6, #8]!
 238:src-gen/Main/core/tag.c ****     }
 1230              		.loc 1 238 9 is_stmt 1 view .LVU262
 1231              	.LVL105:
 233:src-gen/Main/core/tag.c ****         size_t printed = lf_comma_separated_time(buffer, time / MINUTES(1));
 1232              		.loc 1 233 14 is_stmt 0 view .LVU263
 1233 0118 0123     		movs	r3, #1
 1234              	.LVL106:
ARM GAS  /var/folders/2h/lww79zv53b510qlyvytqnvq40000gn/T//ccgazJSx.s 			page 30


 1235              	.L78:
 233:src-gen/Main/core/tag.c ****         size_t printed = lf_comma_separated_time(buffer, time / MINUTES(1));
 1236              		.loc 1 233 14 view .LVU264
 1237              	.LBE4:
 240:src-gen/Main/core/tag.c ****         if (lead == true) {
 1238              		.loc 1 240 5 is_stmt 1 view .LVU265
 240:src-gen/Main/core/tag.c ****         if (lead == true) {
 1239              		.loc 1 240 8 is_stmt 0 view .LVU266
 1240 011a 614A     		ldr	r2, .L96+56
 1241 011c AA42     		cmp	r2, r5
 1242 011e 4FF00002 		mov	r2, #0
 1243 0122 A241     		sbcs	r2, r2, r4
 1244 0124 23DA     		bge	.L80
 1245              	.LBB5:
 241:src-gen/Main/core/tag.c ****             snprintf(buffer, 3, ", ");
 1246              		.loc 1 241 9 is_stmt 1 view .LVU267
 241:src-gen/Main/core/tag.c ****             snprintf(buffer, 3, ", ");
 1247              		.loc 1 241 12 is_stmt 0 view .LVU268
 1248 0126 002B     		cmp	r3, #0
 1249 0128 76D1     		bne	.L94
 1250              	.LVL107:
 1251              	.L81:
 245:src-gen/Main/core/tag.c ****         size_t printed = lf_comma_separated_time(buffer, time / SECONDS(1));
 1252              		.loc 1 245 9 is_stmt 1 view .LVU269
 246:src-gen/Main/core/tag.c ****         time = time % SECONDS(1);
 1253              		.loc 1 246 9 view .LVU270
 246:src-gen/Main/core/tag.c ****         time = time % SECONDS(1);
 1254              		.loc 1 246 26 is_stmt 0 view .LVU271
 1255 012a 51A3     		adr	r3, .L96+8
 1256 012c D3E90023 		ldrd	r2, [r3]
 1257 0130 2846     		mov	r0, r5
 1258 0132 2146     		mov	r1, r4
 1259 0134 FFF7FEFF 		bl	__aeabi_ldivmod
 1260              	.LVL108:
 1261 0138 0246     		mov	r2, r0
 1262 013a 0B46     		mov	r3, r1
 1263 013c 3046     		mov	r0, r6
 1264 013e FFF7FEFF 		bl	lf_comma_separated_time
 1265              	.LVL109:
 1266 0142 8046     		mov	r8, r0
 1267              	.LVL110:
 247:src-gen/Main/core/tag.c ****         buffer += printed;
 1268              		.loc 1 247 9 is_stmt 1 view .LVU272
 247:src-gen/Main/core/tag.c ****         buffer += printed;
 1269              		.loc 1 247 14 is_stmt 0 view .LVU273
 1270 0144 4AA3     		adr	r3, .L96+8
 1271 0146 D3E90023 		ldrd	r2, [r3]
 1272 014a 2846     		mov	r0, r5
 1273              	.LVL111:
 247:src-gen/Main/core/tag.c ****         buffer += printed;
 1274              		.loc 1 247 14 view .LVU274
 1275 014c 2146     		mov	r1, r4
 1276 014e FFF7FEFF 		bl	__aeabi_ldivmod
 1277              	.LVL112:
 1278 0152 1546     		mov	r5, r2
 1279              	.LVL113:
 247:src-gen/Main/core/tag.c ****         buffer += printed;
ARM GAS  /var/folders/2h/lww79zv53b510qlyvytqnvq40000gn/T//ccgazJSx.s 			page 31


 1280              		.loc 1 247 14 view .LVU275
 1281 0154 1C46     		mov	r4, r3
 1282              	.LVL114:
 248:src-gen/Main/core/tag.c ****         snprintf(buffer, 9, " seconds");
 1283              		.loc 1 248 9 is_stmt 1 view .LVU276
 248:src-gen/Main/core/tag.c ****         snprintf(buffer, 9, " seconds");
 1284              		.loc 1 248 16 is_stmt 0 view .LVU277
 1285 0156 06EB0802 		add	r2, r6, r8
 1286              	.LVL115:
 249:src-gen/Main/core/tag.c ****         buffer += 8;
 1287              		.loc 1 249 9 is_stmt 1 view .LVU278
 1288 015a 524B     		ldr	r3, .L96+60
 1289              	.LVL116:
 249:src-gen/Main/core/tag.c ****         buffer += 8;
 1290              		.loc 1 249 9 is_stmt 0 view .LVU279
 1291 015c 03CB     		ldmia	r3!, {r0, r1}
 1292 015e 46F80800 		str	r0, [r6, r8]	@ unaligned
 1293 0162 5160     		str	r1, [r2, #4]	@ unaligned
 1294 0164 1B78     		ldrb	r3, [r3]	@ zero_extendqisi2
 1295 0166 1646     		mov	r6, r2
 1296 0168 06F8083F 		strb	r3, [r6, #8]!
 250:src-gen/Main/core/tag.c ****     }
 1297              		.loc 1 250 9 is_stmt 1 view .LVU280
 1298              	.LVL117:
 245:src-gen/Main/core/tag.c ****         size_t printed = lf_comma_separated_time(buffer, time / SECONDS(1));
 1299              		.loc 1 245 14 is_stmt 0 view .LVU281
 1300 016c 0123     		movs	r3, #1
 1301              	.LVL118:
 1302              	.L80:
 245:src-gen/Main/core/tag.c ****         size_t printed = lf_comma_separated_time(buffer, time / SECONDS(1));
 1303              		.loc 1 245 14 view .LVU282
 1304              	.LBE5:
 252:src-gen/Main/core/tag.c ****         if (lead == true) {
 1305              		.loc 1 252 5 is_stmt 1 view .LVU283
 252:src-gen/Main/core/tag.c ****         if (lead == true) {
 1306              		.loc 1 252 8 is_stmt 0 view .LVU284
 1307 016e 012D     		cmp	r5, #1
 1308 0170 74F10002 		sbcs	r2, r4, #0
 1309 0174 73DB     		blt	.L82
 1310              	.LBB6:
 253:src-gen/Main/core/tag.c ****             snprintf(buffer, 3, ", ");
 1311              		.loc 1 253 9 is_stmt 1 view .LVU285
 253:src-gen/Main/core/tag.c ****             snprintf(buffer, 3, ", ");
 1312              		.loc 1 253 12 is_stmt 0 view .LVU286
 1313 0176 002B     		cmp	r3, #0
 1314 0178 55D1     		bne	.L95
 1315              	.LVL119:
 1316              	.L83:
 257:src-gen/Main/core/tag.c ****         if (time % MSEC(1) == (instant_t) 0) {
 1317              		.loc 1 257 9 is_stmt 1 view .LVU287
 258:src-gen/Main/core/tag.c ****             units = "milliseconds";
 1318              		.loc 1 258 9 view .LVU288
 258:src-gen/Main/core/tag.c ****             units = "milliseconds";
 1319              		.loc 1 258 18 is_stmt 0 view .LVU289
 1320 017a 4B4A     		ldr	r2, .L96+64
 1321 017c 0023     		movs	r3, #0
 1322 017e 2846     		mov	r0, r5
ARM GAS  /var/folders/2h/lww79zv53b510qlyvytqnvq40000gn/T//ccgazJSx.s 			page 32


 1323 0180 2146     		mov	r1, r4
 1324 0182 FFF7FEFF 		bl	__aeabi_ldivmod
 1325              	.LVL120:
 1326 0186 1946     		mov	r1, r3
 258:src-gen/Main/core/tag.c ****             units = "milliseconds";
 1327              		.loc 1 258 12 view .LVU290
 1328 0188 1143     		orrs	r1, r1, r2
 1329 018a 53D0     		beq	.L87
 261:src-gen/Main/core/tag.c ****             units = "microseconds";
 1330              		.loc 1 261 16 is_stmt 1 view .LVU291
 261:src-gen/Main/core/tag.c ****             units = "microseconds";
 1331              		.loc 1 261 25 is_stmt 0 view .LVU292
 1332 018c 4FF47A72 		mov	r2, #1000
 1333 0190 0023     		movs	r3, #0
 1334 0192 2846     		mov	r0, r5
 1335 0194 2146     		mov	r1, r4
 1336 0196 FFF7FEFF 		bl	__aeabi_ldivmod
 1337              	.LVL121:
 1338 019a 1946     		mov	r1, r3
 261:src-gen/Main/core/tag.c ****             units = "microseconds";
 1339              		.loc 1 261 19 view .LVU293
 1340 019c 1143     		orrs	r1, r1, r2
 1341 019e 5CD0     		beq	.L88
 1342 01a0 2A46     		mov	r2, r5
 1343 01a2 2346     		mov	r3, r4
 257:src-gen/Main/core/tag.c ****         if (time % MSEC(1) == (instant_t) 0) {
 1344              		.loc 1 257 21 view .LVU294
 1345 01a4 414D     		ldr	r5, .L96+68
 1346              	.LVL122:
 257:src-gen/Main/core/tag.c ****         if (time % MSEC(1) == (instant_t) 0) {
 1347              		.loc 1 257 21 view .LVU295
 1348 01a6 46E0     		b	.L84
 1349              	.LVL123:
 1350              	.L90:
 257:src-gen/Main/core/tag.c ****         if (time % MSEC(1) == (instant_t) 0) {
 1351              		.loc 1 257 21 view .LVU296
 1352              	.LBE6:
 1353              	.LBB7:
 197:src-gen/Main/core/tag.c ****         size_t printed = lf_comma_separated_time(buffer, time / WEEKS(1));
 1354              		.loc 1 197 9 is_stmt 1 view .LVU297
 198:src-gen/Main/core/tag.c ****         time = time % WEEKS(1);
 1355              		.loc 1 198 9 view .LVU298
 198:src-gen/Main/core/tag.c ****         time = time % WEEKS(1);
 1356              		.loc 1 198 26 is_stmt 0 view .LVU299
 1357 01a8 33A3     		adr	r3, .L96+16
 1358 01aa D3E90023 		ldrd	r2, [r3]
 1359              	.LVL124:
 198:src-gen/Main/core/tag.c ****         time = time % WEEKS(1);
 1360              		.loc 1 198 26 view .LVU300
 1361 01ae 2846     		mov	r0, r5
 1362              	.LVL125:
 198:src-gen/Main/core/tag.c ****         time = time % WEEKS(1);
 1363              		.loc 1 198 26 view .LVU301
 1364 01b0 2146     		mov	r1, r4
 1365 01b2 FFF7FEFF 		bl	__aeabi_ldivmod
 1366              	.LVL126:
 1367 01b6 0246     		mov	r2, r0
ARM GAS  /var/folders/2h/lww79zv53b510qlyvytqnvq40000gn/T//ccgazJSx.s 			page 33


 1368 01b8 0B46     		mov	r3, r1
 1369 01ba 3846     		mov	r0, r7
 1370 01bc FFF7FEFF 		bl	lf_comma_separated_time
 1371              	.LVL127:
 1372 01c0 8046     		mov	r8, r0
 1373              	.LVL128:
 199:src-gen/Main/core/tag.c ****         buffer += printed;
 1374              		.loc 1 199 9 is_stmt 1 view .LVU302
 199:src-gen/Main/core/tag.c ****         buffer += printed;
 1375              		.loc 1 199 14 is_stmt 0 view .LVU303
 1376 01c2 2DA3     		adr	r3, .L96+16
 1377 01c4 D3E90023 		ldrd	r2, [r3]
 1378 01c8 2846     		mov	r0, r5
 1379              	.LVL129:
 199:src-gen/Main/core/tag.c ****         buffer += printed;
 1380              		.loc 1 199 14 view .LVU304
 1381 01ca 2146     		mov	r1, r4
 1382 01cc FFF7FEFF 		bl	__aeabi_ldivmod
 1383              	.LVL130:
 1384 01d0 1546     		mov	r5, r2
 1385 01d2 1C46     		mov	r4, r3
 1386              	.LVL131:
 200:src-gen/Main/core/tag.c ****         snprintf(buffer, 7, " weeks");
 1387              		.loc 1 200 9 is_stmt 1 view .LVU305
 200:src-gen/Main/core/tag.c ****         snprintf(buffer, 7, " weeks");
 1388              		.loc 1 200 16 is_stmt 0 view .LVU306
 1389 01d4 07EB0806 		add	r6, r7, r8
 1390              	.LVL132:
 201:src-gen/Main/core/tag.c ****         buffer += 6;
 1391              		.loc 1 201 9 is_stmt 1 view .LVU307
 1392 01d8 354B     		ldr	r3, .L96+72
 1393              	.LVL133:
 201:src-gen/Main/core/tag.c ****         buffer += 6;
 1394              		.loc 1 201 9 is_stmt 0 view .LVU308
 1395 01da 1868     		ldr	r0, [r3]
 1396 01dc 47F80800 		str	r0, [r7, r8]	@ unaligned
 1397 01e0 9A88     		ldrh	r2, [r3, #4]	@ unaligned
 1398              	.LVL134:
 201:src-gen/Main/core/tag.c ****         buffer += 6;
 1399              		.loc 1 201 9 view .LVU309
 1400 01e2 9B79     		ldrb	r3, [r3, #6]	@ zero_extendqisi2
 1401 01e4 B280     		strh	r2, [r6, #4]	@ unaligned
 1402 01e6 06F8063F 		strb	r3, [r6, #6]!
 1403              	.LVL135:
 202:src-gen/Main/core/tag.c ****     }
 1404              		.loc 1 202 9 is_stmt 1 view .LVU310
 197:src-gen/Main/core/tag.c ****         size_t printed = lf_comma_separated_time(buffer, time / WEEKS(1));
 1405              		.loc 1 197 14 is_stmt 0 view .LVU311
 1406 01ea 0123     		movs	r3, #1
 1407 01ec 15E7     		b	.L73
 1408              	.LVL136:
 1409              	.L91:
 197:src-gen/Main/core/tag.c ****         size_t printed = lf_comma_separated_time(buffer, time / WEEKS(1));
 1410              		.loc 1 197 14 view .LVU312
 1411              	.LBE7:
 1412              	.LBB8:
 206:src-gen/Main/core/tag.c ****             buffer += 2;
ARM GAS  /var/folders/2h/lww79zv53b510qlyvytqnvq40000gn/T//ccgazJSx.s 			page 34


 1413              		.loc 1 206 13 is_stmt 1 view .LVU313
 1414 01ee 314B     		ldr	r3, .L96+76
 1415              	.LVL137:
 206:src-gen/Main/core/tag.c ****             buffer += 2;
 1416              		.loc 1 206 13 is_stmt 0 view .LVU314
 1417 01f0 1A88     		ldrh	r2, [r3]	@ unaligned
 1418 01f2 9B78     		ldrb	r3, [r3, #2]	@ zero_extendqisi2
 1419 01f4 3280     		strh	r2, [r6]	@ unaligned
 1420 01f6 06F8023F 		strb	r3, [r6, #2]!
 1421              	.LVL138:
 207:src-gen/Main/core/tag.c ****         }
 1422              		.loc 1 207 13 is_stmt 1 view .LVU315
 207:src-gen/Main/core/tag.c ****         }
 1423              		.loc 1 207 13 is_stmt 0 view .LVU316
 1424 01fa 17E7     		b	.L75
 1425              	.LVL139:
 1426              	.L92:
 207:src-gen/Main/core/tag.c ****         }
 1427              		.loc 1 207 13 view .LVU317
 1428              	.LBE8:
 1429              	.LBB9:
 218:src-gen/Main/core/tag.c ****             buffer += 2;
 1430              		.loc 1 218 13 is_stmt 1 view .LVU318
 1431 01fc 2D4B     		ldr	r3, .L96+76
 1432              	.LVL140:
 218:src-gen/Main/core/tag.c ****             buffer += 2;
 1433              		.loc 1 218 13 is_stmt 0 view .LVU319
 1434 01fe 1A88     		ldrh	r2, [r3]	@ unaligned
 1435 0200 9B78     		ldrb	r3, [r3, #2]	@ zero_extendqisi2
 1436 0202 3280     		strh	r2, [r6]	@ unaligned
 1437 0204 06F8023F 		strb	r3, [r6, #2]!
 1438              	.LVL141:
 219:src-gen/Main/core/tag.c ****         }
 1439              		.loc 1 219 13 is_stmt 1 view .LVU320
 219:src-gen/Main/core/tag.c ****         }
 1440              		.loc 1 219 13 is_stmt 0 view .LVU321
 1441 0208 39E7     		b	.L77
 1442              	.LVL142:
 1443              	.L93:
 219:src-gen/Main/core/tag.c ****         }
 1444              		.loc 1 219 13 view .LVU322
 1445              	.LBE9:
 1446              	.LBB10:
 230:src-gen/Main/core/tag.c ****             buffer += 2;
 1447              		.loc 1 230 13 is_stmt 1 view .LVU323
 1448 020a 2A4B     		ldr	r3, .L96+76
 1449              	.LVL143:
 230:src-gen/Main/core/tag.c ****             buffer += 2;
 1450              		.loc 1 230 13 is_stmt 0 view .LVU324
 1451 020c 1A88     		ldrh	r2, [r3]	@ unaligned
 1452 020e 9B78     		ldrb	r3, [r3, #2]	@ zero_extendqisi2
 1453 0210 3280     		strh	r2, [r6]	@ unaligned
 1454 0212 06F8023F 		strb	r3, [r6, #2]!
 1455              	.LVL144:
 231:src-gen/Main/core/tag.c ****         }
 1456              		.loc 1 231 13 is_stmt 1 view .LVU325
 231:src-gen/Main/core/tag.c ****         }
ARM GAS  /var/folders/2h/lww79zv53b510qlyvytqnvq40000gn/T//ccgazJSx.s 			page 35


 1457              		.loc 1 231 13 is_stmt 0 view .LVU326
 1458 0216 5EE7     		b	.L79
 1459              	.LVL145:
 1460              	.L94:
 231:src-gen/Main/core/tag.c ****         }
 1461              		.loc 1 231 13 view .LVU327
 1462              	.LBE10:
 1463              	.LBB11:
 242:src-gen/Main/core/tag.c ****             buffer += 2;
 1464              		.loc 1 242 13 is_stmt 1 view .LVU328
 1465 0218 264B     		ldr	r3, .L96+76
 1466              	.LVL146:
 242:src-gen/Main/core/tag.c ****             buffer += 2;
 1467              		.loc 1 242 13 is_stmt 0 view .LVU329
 1468 021a 1A88     		ldrh	r2, [r3]	@ unaligned
 1469 021c 9B78     		ldrb	r3, [r3, #2]	@ zero_extendqisi2
 1470 021e 3280     		strh	r2, [r6]	@ unaligned
 1471 0220 06F8023F 		strb	r3, [r6, #2]!
 1472              	.LVL147:
 243:src-gen/Main/core/tag.c ****         }
 1473              		.loc 1 243 13 is_stmt 1 view .LVU330
 243:src-gen/Main/core/tag.c ****         }
 1474              		.loc 1 243 13 is_stmt 0 view .LVU331
 1475 0224 81E7     		b	.L81
 1476              	.LVL148:
 1477              	.L95:
 243:src-gen/Main/core/tag.c ****         }
 1478              		.loc 1 243 13 view .LVU332
 1479              	.LBE11:
 1480              	.LBB12:
 254:src-gen/Main/core/tag.c ****             buffer += 2;
 1481              		.loc 1 254 13 is_stmt 1 view .LVU333
 1482 0226 234B     		ldr	r3, .L96+76
 1483              	.LVL149:
 254:src-gen/Main/core/tag.c ****             buffer += 2;
 1484              		.loc 1 254 13 is_stmt 0 view .LVU334
 1485 0228 1A88     		ldrh	r2, [r3]	@ unaligned
 1486 022a 9B78     		ldrb	r3, [r3, #2]	@ zero_extendqisi2
 1487 022c 3280     		strh	r2, [r6]	@ unaligned
 1488 022e 06F8023F 		strb	r3, [r6, #2]!
 1489              	.LVL150:
 255:src-gen/Main/core/tag.c ****         }
 1490              		.loc 1 255 13 is_stmt 1 view .LVU335
 255:src-gen/Main/core/tag.c ****         }
 1491              		.loc 1 255 13 is_stmt 0 view .LVU336
 1492 0232 A2E7     		b	.L83
 1493              	.LVL151:
 1494              	.L87:
 259:src-gen/Main/core/tag.c ****             time = time % MSEC(1);
 1495              		.loc 1 259 19 view .LVU337
 1496 0234 204D     		ldr	r5, .L96+80
 1497              	.LVL152:
 1498              	.L84:
 265:src-gen/Main/core/tag.c ****         buffer += printed;
 1499              		.loc 1 265 9 is_stmt 1 view .LVU338
 265:src-gen/Main/core/tag.c ****         buffer += printed;
 1500              		.loc 1 265 26 is_stmt 0 view .LVU339
ARM GAS  /var/folders/2h/lww79zv53b510qlyvytqnvq40000gn/T//ccgazJSx.s 			page 36


 1501 0236 3046     		mov	r0, r6
 1502 0238 FFF7FEFF 		bl	lf_comma_separated_time
 1503              	.LVL153:
 266:src-gen/Main/core/tag.c ****         snprintf(buffer, 14, " %s", units);
 1504              		.loc 1 266 9 is_stmt 1 view .LVU340
 266:src-gen/Main/core/tag.c ****         snprintf(buffer, 14, " %s", units);
 1505              		.loc 1 266 16 is_stmt 0 view .LVU341
 1506 023c 3418     		adds	r4, r6, r0
 1507              	.LVL154:
 267:src-gen/Main/core/tag.c ****         buffer += strlen(units) + 1;
 1508              		.loc 1 267 9 is_stmt 1 view .LVU342
 1509 023e 2B46     		mov	r3, r5
 1510 0240 1E4A     		ldr	r2, .L96+84
 1511 0242 0E21     		movs	r1, #14
 1512 0244 2046     		mov	r0, r4
 1513              	.LVL155:
 267:src-gen/Main/core/tag.c ****         buffer += strlen(units) + 1;
 1514              		.loc 1 267 9 is_stmt 0 view .LVU343
 1515 0246 FFF7FEFF 		bl	snprintf
 1516              	.LVL156:
 268:src-gen/Main/core/tag.c ****     } else {
 1517              		.loc 1 268 9 is_stmt 1 view .LVU344
 268:src-gen/Main/core/tag.c ****     } else {
 1518              		.loc 1 268 19 is_stmt 0 view .LVU345
 1519 024a 2846     		mov	r0, r5
 1520 024c FFF7FEFF 		bl	strlen
 1521              	.LVL157:
 268:src-gen/Main/core/tag.c ****     } else {
 1522              		.loc 1 268 16 view .LVU346
 1523 0250 461C     		adds	r6, r0, #1
 1524 0252 2644     		add	r6, r6, r4
 1525              	.LVL158:
 1526              	.L85:
 268:src-gen/Main/core/tag.c ****     } else {
 1527              		.loc 1 268 16 view .LVU347
 1528              	.LBE12:
 272:src-gen/Main/core/tag.c **** }
 1529              		.loc 1 272 5 is_stmt 1 view .LVU348
 273:src-gen/Main/core/tag.c **** 
 1530              		.loc 1 273 1 is_stmt 0 view .LVU349
 1531 0254 F01B     		subs	r0, r6, r7
 1532 0256 BDE8F081 		pop	{r4, r5, r6, r7, r8, pc}
 1533              	.LVL159:
 1534              	.L88:
 1535              	.LBB13:
 262:src-gen/Main/core/tag.c ****             time = time % USEC(1);
 1536              		.loc 1 262 19 view .LVU350
 1537 025a 194D     		ldr	r5, .L96+88
 1538              	.LVL160:
 262:src-gen/Main/core/tag.c ****             time = time % USEC(1);
 1539              		.loc 1 262 19 view .LVU351
 1540 025c EBE7     		b	.L84
 1541              	.LVL161:
 1542              	.L82:
 262:src-gen/Main/core/tag.c ****             time = time % USEC(1);
 1543              		.loc 1 262 19 view .LVU352
 1544              	.LBE13:
ARM GAS  /var/folders/2h/lww79zv53b510qlyvytqnvq40000gn/T//ccgazJSx.s 			page 37


 270:src-gen/Main/core/tag.c ****     }
 1545              		.loc 1 270 9 is_stmt 1 view .LVU353
 1546 025e 194B     		ldr	r3, .L96+92
 1547              	.LVL162:
 270:src-gen/Main/core/tag.c ****     }
 1548              		.loc 1 270 9 is_stmt 0 view .LVU354
 1549 0260 1B88     		ldrh	r3, [r3]	@ unaligned
 1550 0262 3380     		strh	r3, [r6]	@ unaligned
 1551 0264 F6E7     		b	.L85
 1552              	.L97:
 1553 0266 00BF     		.align	3
 1554              	.L96:
 1555 0268 005847F8 		.word	-129542144
 1556 026c 0D000000 		.word	13
 1557 0270 00CA9A3B 		.word	1000000000
 1558 0274 00000000 		.word	0
 1559 0278 000029F9 		.word	-114753536
 1560 027c 0F260200 		.word	140815
 1561 0280 000029F9 		.word	-114753536
 1562 0284 0F260200 		.word	140815
 1563 0288 00004F91 		.word	-1857093632
 1564 028c 38000000 		.word	.LC12
 1565 0290 00A0B830 		.word	817405952
 1566 0294 40000000 		.word	.LC13
 1567 0298 005847F8 		.word	-129542144
 1568 029c 48000000 		.word	.LC14
 1569 02a0 00CA9A3B 		.word	1000000000
 1570 02a4 54000000 		.word	.LC15
 1571 02a8 40420F00 		.word	1000000
 1572 02ac 10000000 		.word	.LC8
 1573 02b0 2C000000 		.word	.LC10
 1574 02b4 34000000 		.word	.LC11
 1575 02b8 00000000 		.word	.LC7
 1576 02bc 60000000 		.word	.LC16
 1577 02c0 1C000000 		.word	.LC9
 1578 02c4 00000000 		.word	.LC3
 1579              		.cfi_endproc
 1580              	.LFE144:
 1582              		.section	.rodata.__func__.0,"a"
 1583              		.align	2
 1586              	__func__.0:
 1587 0000 6C665F74 		.ascii	"lf_time_logical\000"
 1587      696D655F 
 1587      6C6F6769 
 1587      63616C00 
 1588              		.section	.rodata.__func__.1,"a"
 1589              		.align	2
 1592              	__func__.1:
 1593 0000 6C665F74 		.ascii	"lf_tag\000"
 1593      616700
 1594              		.global	_lf_last_reported_unadjusted_physical_time_ns
 1595              		.section	.data._lf_last_reported_unadjusted_physical_time_ns,"aw"
 1596              		.align	3
 1599              	_lf_last_reported_unadjusted_physical_time_ns:
 1600 0000 00000000 		.word	0
 1601 0004 00000080 		.word	-2147483648
 1602              		.global	_lf_last_reported_physical_time_ns
ARM GAS  /var/folders/2h/lww79zv53b510qlyvytqnvq40000gn/T//ccgazJSx.s 			page 38


 1603              		.section	.bss._lf_last_reported_physical_time_ns,"aw",%nobits
 1604              		.align	3
 1607              	_lf_last_reported_physical_time_ns:
 1608 0000 00000000 		.space	8
 1608      00000000 
 1609              		.global	_lf_time_test_physical_clock_offset
 1610              		.section	.bss._lf_time_test_physical_clock_offset,"aw",%nobits
 1611              		.align	3
 1614              	_lf_time_test_physical_clock_offset:
 1615 0000 00000000 		.space	8
 1615      00000000 
 1616              		.global	_lf_time_physical_clock_offset
 1617              		.section	.bss._lf_time_physical_clock_offset,"aw",%nobits
 1618              		.align	3
 1621              	_lf_time_physical_clock_offset:
 1622 0000 00000000 		.space	8
 1622      00000000 
 1623              		.global	start_time
 1624              		.section	.data.start_time,"aw"
 1625              		.align	3
 1628              	start_time:
 1629 0000 00000000 		.word	0
 1630 0004 00000080 		.word	-2147483648
 1631              		.text
 1632              	.Letext0:
 1633              		.file 2 "/Applications/ArmGNUToolchain/12.3.rel1/arm-none-eabi/arm-none-eabi/include/machine/_defa
 1634              		.file 3 "/Applications/ArmGNUToolchain/12.3.rel1/arm-none-eabi/lib/gcc/arm-none-eabi/12.3.1/includ
 1635              		.file 4 "/Applications/ArmGNUToolchain/12.3.rel1/arm-none-eabi/arm-none-eabi/include/sys/_stdint.h
 1636              		.file 5 "src-gen/Main/include/core/tag.h"
 1637              		.file 6 "src-gen/Main/include/core/platform.h"
 1638              		.file 7 "src-gen/Main/include/core/environment.h"
 1639              		.file 8 "src-gen/Main/include/core/utils/pqueue.h"
 1640              		.file 9 "src-gen/Main/include/core/lf_token.h"
 1641              		.file 10 "src-gen/Main/include/core/utils/vector.h"
 1642              		.file 11 "src-gen/Main/include/core/lf_types.h"
 1643              		.file 12 "/Applications/ArmGNUToolchain/12.3.rel1/arm-none-eabi/arm-none-eabi/include/string.h"
 1644              		.file 13 "/Applications/ArmGNUToolchain/12.3.rel1/arm-none-eabi/arm-none-eabi/include/stdio.h"
 1645              		.file 14 "/Applications/ArmGNUToolchain/12.3.rel1/arm-none-eabi/arm-none-eabi/include/assert.h"
 1646              		.file 15 "src-gen/Main/include/core/modal_models/modes.h"
 1647              		.file 16 "src-gen/Main/include/core/utils/util.h"
ARM GAS  /var/folders/2h/lww79zv53b510qlyvytqnvq40000gn/T//ccgazJSx.s 			page 39

